SF:/Users/zer0cell/production/empack/crates/empack-lib/src/application/cli.rs
FN:30,_RNvMNtNtCshmQA5Mrgi1L_10empack_lib11application3cliNtB2_9CliConfig4load
FN:159,_RNvMs0_NtNtCshmQA5Mrgi1L_10empack_lib11application3cliNtB5_8Commands15execution_order
FN:145,_RNvMs0_NtNtCshmQA5Mrgi1L_10empack_lib11application3cliNtB5_8Commands16requires_modpack
FN:174,_RNvXs1_NtNtCshmQA5Mrgi1L_10empack_lib11application3cliNtB5_3CliNtNtCsj3QBrvpYeJs_4core7default7Default7default
FN:133,_RNvXs_NtNtCshmQA5Mrgi1L_10empack_lib11application3cliNtB4_14SearchPlatformNtNtNtCsj3QBrvpYeJs_4core3str6traits7FromStr8from_str
FN:30,_RNvMNtNtCs5BmVzKVgC1k_10empack_lib11application3cliNtB2_9CliConfig4load
FN:159,_RNvMs0_NtNtCs5BmVzKVgC1k_10empack_lib11application3cliNtB5_8Commands15execution_order
FN:145,_RNvMs0_NtNtCs5BmVzKVgC1k_10empack_lib11application3cliNtB5_8Commands16requires_modpack
FN:174,_RNvXs1_NtNtCs5BmVzKVgC1k_10empack_lib11application3cliNtB5_3CliNtNtCsj3QBrvpYeJs_4core7default7Default7default
FN:133,_RNvXs_NtNtCs5BmVzKVgC1k_10empack_lib11application3cliNtB4_14SearchPlatformNtNtNtCsj3QBrvpYeJs_4core3str6traits7FromStr8from_str
FNDA:0,_RNvMNtNtCshmQA5Mrgi1L_10empack_lib11application3cliNtB2_9CliConfig4load
FNDA:0,_RNvMs0_NtNtCshmQA5Mrgi1L_10empack_lib11application3cliNtB5_8Commands15execution_order
FNDA:0,_RNvMs0_NtNtCshmQA5Mrgi1L_10empack_lib11application3cliNtB5_8Commands16requires_modpack
FNDA:0,_RNvXs1_NtNtCshmQA5Mrgi1L_10empack_lib11application3cliNtB5_3CliNtNtCsj3QBrvpYeJs_4core7default7Default7default
FNDA:0,_RNvXs_NtNtCshmQA5Mrgi1L_10empack_lib11application3cliNtB4_14SearchPlatformNtNtNtCsj3QBrvpYeJs_4core3str6traits7FromStr8from_str
FNDA:0,_RNvMNtNtCs5BmVzKVgC1k_10empack_lib11application3cliNtB2_9CliConfig4load
FNDA:0,_RNvMs0_NtNtCs5BmVzKVgC1k_10empack_lib11application3cliNtB5_8Commands15execution_order
FNDA:0,_RNvMs0_NtNtCs5BmVzKVgC1k_10empack_lib11application3cliNtB5_8Commands16requires_modpack
FNDA:0,_RNvXs1_NtNtCs5BmVzKVgC1k_10empack_lib11application3cliNtB5_3CliNtNtCsj3QBrvpYeJs_4core7default7Default7default
FNDA:0,_RNvXs_NtNtCs5BmVzKVgC1k_10empack_lib11application3cliNtB4_14SearchPlatformNtNtNtCsj3QBrvpYeJs_4core3str6traits7FromStr8from_str
FNF:5
FNH:0
DA:30,0
DA:31,0
DA:32,0
DA:33,0
DA:34,0
DA:35,0
DA:36,0
DA:133,0
DA:134,0
DA:135,0
DA:136,0
DA:137,0
DA:138,0
DA:140,0
DA:145,0
DA:146,0
DA:147,0
DA:148,0
DA:149,0
DA:150,0
DA:151,0
DA:152,0
DA:153,0
DA:154,0
DA:156,0
DA:159,0
DA:160,0
DA:161,0
DA:162,0
DA:163,0
DA:164,0
DA:165,0
DA:166,0
DA:167,0
DA:168,0
DA:170,0
DA:174,0
DA:175,0
DA:176,0
DA:177,0
DA:178,0
DA:179,0
BRF:0
BRH:0
LF:42
LH:0
end_of_record
SF:/Users/zer0cell/production/empack/crates/empack-lib/src/application/commands.rs
FN:236,_RNCNCNCNvNtNtCshmQA5Mrgi1L_10empack_lib11application8commands11handle_init0s_00Csbc2rGA5VZid_11add_command
FN:594,_RNCNCNvNtNtCshmQA5Mrgi1L_10empack_lib11application8commands10handle_add00Csbc2rGA5VZid_11add_command
FN:655,_RNCNCNvNtNtCshmQA5Mrgi1L_10empack_lib11application8commands10handle_add0s0_0Csbc2rGA5VZid_11add_command
FN:696,_RNCNCNvNtNtCshmQA5Mrgi1L_10empack_lib11application8commands10handle_add0s1_0Csbc2rGA5VZid_11add_command
FN:654,_RNCNCNvNtNtCshmQA5Mrgi1L_10empack_lib11application8commands10handle_add0s_0Csbc2rGA5VZid_11add_command
FN:200,_RNCNCNvNtNtCshmQA5Mrgi1L_10empack_lib11application8commands11handle_init00Csbc2rGA5VZid_11add_command
FN:308,_RNCNCNvNtNtCshmQA5Mrgi1L_10empack_lib11application8commands11handle_init0s0_0Csbc2rGA5VZid_11add_command
FN:349,_RNCNCNvNtNtCshmQA5Mrgi1L_10empack_lib11application8commands11handle_init0s1_0Csbc2rGA5VZid_11add_command
FN:233,_RNCNCNvNtNtCshmQA5Mrgi1L_10empack_lib11application8commands11handle_init0s_0Csbc2rGA5VZid_11add_command
FN:1282,_RNCNCNvNtNtCshmQA5Mrgi1L_10empack_lib11application8commands11handle_sync00Csbc2rGA5VZid_11add_command
FN:1311,_RNCNCNvNtNtCshmQA5Mrgi1L_10empack_lib11application8commands11handle_sync0s0_0Csbc2rGA5VZid_11add_command
FN:1285,_RNCNCNvNtNtCshmQA5Mrgi1L_10empack_lib11application8commands11handle_sync0s_0Csbc2rGA5VZid_11add_command
FN:907,_RNCNCNvNtNtCshmQA5Mrgi1L_10empack_lib11application8commands12handle_build00Csbc2rGA5VZid_11add_command
FN:814,_RNCNCNvNtNtCshmQA5Mrgi1L_10empack_lib11application8commands13handle_remove00Csbc2rGA5VZid_11add_command
FN:115,_RNCNCNvNtNtCshmQA5Mrgi1L_10empack_lib11application8commands19handle_requirements0s1_0Csbc2rGA5VZid_11add_command
FN:132,_RNCNCNvNtNtCshmQA5Mrgi1L_10empack_lib11application8commands19handle_requirements0s3_0Csbc2rGA5VZid_11add_command
FN:574,_RNCNvNtNtCshmQA5Mrgi1L_10empack_lib11application8commands10handle_add0Csbc2rGA5VZid_11add_command
FN:173,_RNCNvNtNtCshmQA5Mrgi1L_10empack_lib11application8commands11handle_init0Csbc2rGA5VZid_11add_command
FN:1021,_RNCNvNtNtCshmQA5Mrgi1L_10empack_lib11application8commands11handle_sync0Csbc2rGA5VZid_11add_command
FN:868,_RNCNvNtNtCshmQA5Mrgi1L_10empack_lib11application8commands12handle_build0Csbc2rGA5VZid_11add_command
FN:980,_RNCNvNtNtCshmQA5Mrgi1L_10empack_lib11application8commands12handle_clean0Csbc2rGA5VZid_11add_command
FN:759,_RNCNvNtNtCshmQA5Mrgi1L_10empack_lib11application8commands13handle_remove0Csbc2rGA5VZid_11add_command
FN:148,_RNCNvNtNtCshmQA5Mrgi1L_10empack_lib11application8commands14handle_version0Csbc2rGA5VZid_11add_command
FN:77,_RNCNvNtNtCshmQA5Mrgi1L_10empack_lib11application8commands19handle_requirements0Csbc2rGA5VZid_11add_command
FN:55,_RNCNvNtNtCshmQA5Mrgi1L_10empack_lib11application8commands28execute_command_with_session0Csbc2rGA5VZid_11add_command
FN:236,_RNCNCNCNvNtNtCshmQA5Mrgi1L_10empack_lib11application8commands11handle_init0s_00Bb_
FN:594,_RNCNCNvNtNtCshmQA5Mrgi1L_10empack_lib11application8commands10handle_add00B9_
FN:655,_RNCNCNvNtNtCshmQA5Mrgi1L_10empack_lib11application8commands10handle_add0s0_0B9_
FN:696,_RNCNCNvNtNtCshmQA5Mrgi1L_10empack_lib11application8commands10handle_add0s1_0B9_
FN:654,_RNCNCNvNtNtCshmQA5Mrgi1L_10empack_lib11application8commands10handle_add0s_0B9_
FN:200,_RNCNCNvNtNtCshmQA5Mrgi1L_10empack_lib11application8commands11handle_init00B9_
FN:308,_RNCNCNvNtNtCshmQA5Mrgi1L_10empack_lib11application8commands11handle_init0s0_0B9_
FN:349,_RNCNCNvNtNtCshmQA5Mrgi1L_10empack_lib11application8commands11handle_init0s1_0B9_
FN:233,_RNCNCNvNtNtCshmQA5Mrgi1L_10empack_lib11application8commands11handle_init0s_0B9_
FN:1282,_RNCNCNvNtNtCshmQA5Mrgi1L_10empack_lib11application8commands11handle_sync00B9_
FN:1311,_RNCNCNvNtNtCshmQA5Mrgi1L_10empack_lib11application8commands11handle_sync0s0_0B9_
FN:1285,_RNCNCNvNtNtCshmQA5Mrgi1L_10empack_lib11application8commands11handle_sync0s_0B9_
FN:907,_RNCNCNvNtNtCshmQA5Mrgi1L_10empack_lib11application8commands12handle_build00B9_
FN:814,_RNCNCNvNtNtCshmQA5Mrgi1L_10empack_lib11application8commands13handle_remove00B9_
FN:115,_RNCNCNvNtNtCshmQA5Mrgi1L_10empack_lib11application8commands19handle_requirements0s1_0B9_
FN:132,_RNCNCNvNtNtCshmQA5Mrgi1L_10empack_lib11application8commands19handle_requirements0s3_0B9_
FN:574,_RNCNvNtNtCshmQA5Mrgi1L_10empack_lib11application8commands10handle_add0B7_
FN:173,_RNCNvNtNtCshmQA5Mrgi1L_10empack_lib11application8commands11handle_init0B7_
FN:1021,_RNCNvNtNtCshmQA5Mrgi1L_10empack_lib11application8commands11handle_sync0B7_
FN:868,_RNCNvNtNtCshmQA5Mrgi1L_10empack_lib11application8commands12handle_build0B7_
FN:980,_RNCNvNtNtCshmQA5Mrgi1L_10empack_lib11application8commands12handle_clean0B7_
FN:759,_RNCNvNtNtCshmQA5Mrgi1L_10empack_lib11application8commands13handle_remove0B7_
FN:148,_RNCNvNtNtCshmQA5Mrgi1L_10empack_lib11application8commands14handle_version0B7_
FN:31,_RNCNvNtNtCshmQA5Mrgi1L_10empack_lib11application8commands15execute_command0B7_
FN:77,_RNCNvNtNtCshmQA5Mrgi1L_10empack_lib11application8commands19handle_requirements0B7_
FN:55,_RNCNvNtNtCshmQA5Mrgi1L_10empack_lib11application8commands28execute_command_with_session0B7_
FN:569,_RNvNtNtCshmQA5Mrgi1L_10empack_lib11application8commands10handle_add
FN:173,_RNvNtNtCshmQA5Mrgi1L_10empack_lib11application8commands11handle_init
FN:1021,_RNvNtNtCshmQA5Mrgi1L_10empack_lib11application8commands11handle_sync
FN:868,_RNvNtNtCshmQA5Mrgi1L_10empack_lib11application8commands12handle_build
FN:980,_RNvNtNtCshmQA5Mrgi1L_10empack_lib11application8commands12handle_clean
FN:759,_RNvNtNtCshmQA5Mrgi1L_10empack_lib11application8commands13handle_remove
FN:148,_RNvNtNtCshmQA5Mrgi1L_10empack_lib11application8commands14handle_version
FN:31,_RNvNtNtCshmQA5Mrgi1L_10empack_lib11application8commands15execute_command
FN:77,_RNvNtNtCshmQA5Mrgi1L_10empack_lib11application8commands19handle_requirements
FN:1364,_RNvNtNtCshmQA5Mrgi1L_10empack_lib11application8commands19parse_build_targets
FN:55,_RNvNtNtCshmQA5Mrgi1L_10empack_lib11application8commands28execute_command_with_session
FN:236,_RNCNCNCNvNtNtCshmQA5Mrgi1L_10empack_lib11application8commands11handle_init0s_00Cs8uoVYB8rq8D_17build_client_full
FN:594,_RNCNCNvNtNtCshmQA5Mrgi1L_10empack_lib11application8commands10handle_add00Cs8uoVYB8rq8D_17build_client_full
FN:655,_RNCNCNvNtNtCshmQA5Mrgi1L_10empack_lib11application8commands10handle_add0s0_0Cs8uoVYB8rq8D_17build_client_full
FN:696,_RNCNCNvNtNtCshmQA5Mrgi1L_10empack_lib11application8commands10handle_add0s1_0Cs8uoVYB8rq8D_17build_client_full
FN:654,_RNCNCNvNtNtCshmQA5Mrgi1L_10empack_lib11application8commands10handle_add0s_0Cs8uoVYB8rq8D_17build_client_full
FN:200,_RNCNCNvNtNtCshmQA5Mrgi1L_10empack_lib11application8commands11handle_init00Cs8uoVYB8rq8D_17build_client_full
FN:308,_RNCNCNvNtNtCshmQA5Mrgi1L_10empack_lib11application8commands11handle_init0s0_0Cs8uoVYB8rq8D_17build_client_full
FN:349,_RNCNCNvNtNtCshmQA5Mrgi1L_10empack_lib11application8commands11handle_init0s1_0Cs8uoVYB8rq8D_17build_client_full
FN:233,_RNCNCNvNtNtCshmQA5Mrgi1L_10empack_lib11application8commands11handle_init0s_0Cs8uoVYB8rq8D_17build_client_full
FN:1282,_RNCNCNvNtNtCshmQA5Mrgi1L_10empack_lib11application8commands11handle_sync00Cs8uoVYB8rq8D_17build_client_full
FN:1311,_RNCNCNvNtNtCshmQA5Mrgi1L_10empack_lib11application8commands11handle_sync0s0_0Cs8uoVYB8rq8D_17build_client_full
FN:1285,_RNCNCNvNtNtCshmQA5Mrgi1L_10empack_lib11application8commands11handle_sync0s_0Cs8uoVYB8rq8D_17build_client_full
FN:907,_RNCNCNvNtNtCshmQA5Mrgi1L_10empack_lib11application8commands12handle_build00Cs8uoVYB8rq8D_17build_client_full
FN:814,_RNCNCNvNtNtCshmQA5Mrgi1L_10empack_lib11application8commands13handle_remove00Cs8uoVYB8rq8D_17build_client_full
FN:115,_RNCNCNvNtNtCshmQA5Mrgi1L_10empack_lib11application8commands19handle_requirements0s1_0Cs8uoVYB8rq8D_17build_client_full
FN:132,_RNCNCNvNtNtCshmQA5Mrgi1L_10empack_lib11application8commands19handle_requirements0s3_0Cs8uoVYB8rq8D_17build_client_full
FN:574,_RNCNvNtNtCshmQA5Mrgi1L_10empack_lib11application8commands10handle_add0Cs8uoVYB8rq8D_17build_client_full
FN:173,_RNCNvNtNtCshmQA5Mrgi1L_10empack_lib11application8commands11handle_init0Cs8uoVYB8rq8D_17build_client_full
FN:1021,_RNCNvNtNtCshmQA5Mrgi1L_10empack_lib11application8commands11handle_sync0Cs8uoVYB8rq8D_17build_client_full
FN:868,_RNCNvNtNtCshmQA5Mrgi1L_10empack_lib11application8commands12handle_build0Cs8uoVYB8rq8D_17build_client_full
FN:980,_RNCNvNtNtCshmQA5Mrgi1L_10empack_lib11application8commands12handle_clean0Cs8uoVYB8rq8D_17build_client_full
FN:759,_RNCNvNtNtCshmQA5Mrgi1L_10empack_lib11application8commands13handle_remove0Cs8uoVYB8rq8D_17build_client_full
FN:148,_RNCNvNtNtCshmQA5Mrgi1L_10empack_lib11application8commands14handle_version0Cs8uoVYB8rq8D_17build_client_full
FN:77,_RNCNvNtNtCshmQA5Mrgi1L_10empack_lib11application8commands19handle_requirements0Cs8uoVYB8rq8D_17build_client_full
FN:55,_RNCNvNtNtCshmQA5Mrgi1L_10empack_lib11application8commands28execute_command_with_session0Cs8uoVYB8rq8D_17build_client_full
FN:236,_RNCNCNCNvNtNtCshmQA5Mrgi1L_10empack_lib11application8commands11handle_init0s_00Csj8HZQhsijMc_12build_server
FN:594,_RNCNCNvNtNtCshmQA5Mrgi1L_10empack_lib11application8commands10handle_add00Csj8HZQhsijMc_12build_server
FN:655,_RNCNCNvNtNtCshmQA5Mrgi1L_10empack_lib11application8commands10handle_add0s0_0Csj8HZQhsijMc_12build_server
FN:696,_RNCNCNvNtNtCshmQA5Mrgi1L_10empack_lib11application8commands10handle_add0s1_0Csj8HZQhsijMc_12build_server
FN:654,_RNCNCNvNtNtCshmQA5Mrgi1L_10empack_lib11application8commands10handle_add0s_0Csj8HZQhsijMc_12build_server
FN:200,_RNCNCNvNtNtCshmQA5Mrgi1L_10empack_lib11application8commands11handle_init00Csj8HZQhsijMc_12build_server
FN:308,_RNCNCNvNtNtCshmQA5Mrgi1L_10empack_lib11application8commands11handle_init0s0_0Csj8HZQhsijMc_12build_server
FN:349,_RNCNCNvNtNtCshmQA5Mrgi1L_10empack_lib11application8commands11handle_init0s1_0Csj8HZQhsijMc_12build_server
FN:233,_RNCNCNvNtNtCshmQA5Mrgi1L_10empack_lib11application8commands11handle_init0s_0Csj8HZQhsijMc_12build_server
FN:1282,_RNCNCNvNtNtCshmQA5Mrgi1L_10empack_lib11application8commands11handle_sync00Csj8HZQhsijMc_12build_server
FN:1311,_RNCNCNvNtNtCshmQA5Mrgi1L_10empack_lib11application8commands11handle_sync0s0_0Csj8HZQhsijMc_12build_server
FN:1285,_RNCNCNvNtNtCshmQA5Mrgi1L_10empack_lib11application8commands11handle_sync0s_0Csj8HZQhsijMc_12build_server
FN:907,_RNCNCNvNtNtCshmQA5Mrgi1L_10empack_lib11application8commands12handle_build00Csj8HZQhsijMc_12build_server
FN:814,_RNCNCNvNtNtCshmQA5Mrgi1L_10empack_lib11application8commands13handle_remove00Csj8HZQhsijMc_12build_server
FN:115,_RNCNCNvNtNtCshmQA5Mrgi1L_10empack_lib11application8commands19handle_requirements0s1_0Csj8HZQhsijMc_12build_server
FN:132,_RNCNCNvNtNtCshmQA5Mrgi1L_10empack_lib11application8commands19handle_requirements0s3_0Csj8HZQhsijMc_12build_server
FN:574,_RNCNvNtNtCshmQA5Mrgi1L_10empack_lib11application8commands10handle_add0Csj8HZQhsijMc_12build_server
FN:173,_RNCNvNtNtCshmQA5Mrgi1L_10empack_lib11application8commands11handle_init0Csj8HZQhsijMc_12build_server
FN:1021,_RNCNvNtNtCshmQA5Mrgi1L_10empack_lib11application8commands11handle_sync0Csj8HZQhsijMc_12build_server
FN:868,_RNCNvNtNtCshmQA5Mrgi1L_10empack_lib11application8commands12handle_build0Csj8HZQhsijMc_12build_server
FN:980,_RNCNvNtNtCshmQA5Mrgi1L_10empack_lib11application8commands12handle_clean0Csj8HZQhsijMc_12build_server
FN:759,_RNCNvNtNtCshmQA5Mrgi1L_10empack_lib11application8commands13handle_remove0Csj8HZQhsijMc_12build_server
FN:148,_RNCNvNtNtCshmQA5Mrgi1L_10empack_lib11application8commands14handle_version0Csj8HZQhsijMc_12build_server
FN:77,_RNCNvNtNtCshmQA5Mrgi1L_10empack_lib11application8commands19handle_requirements0Csj8HZQhsijMc_12build_server
FN:55,_RNCNvNtNtCshmQA5Mrgi1L_10empack_lib11application8commands28execute_command_with_session0Csj8HZQhsijMc_12build_server
FN:236,_RNCNCNCNvNtNtCshmQA5Mrgi1L_10empack_lib11application8commands11handle_init0s_00CsdrRwdeEzguW_17build_server_full
FN:594,_RNCNCNvNtNtCshmQA5Mrgi1L_10empack_lib11application8commands10handle_add00CsdrRwdeEzguW_17build_server_full
FN:655,_RNCNCNvNtNtCshmQA5Mrgi1L_10empack_lib11application8commands10handle_add0s0_0CsdrRwdeEzguW_17build_server_full
FN:696,_RNCNCNvNtNtCshmQA5Mrgi1L_10empack_lib11application8commands10handle_add0s1_0CsdrRwdeEzguW_17build_server_full
FN:654,_RNCNCNvNtNtCshmQA5Mrgi1L_10empack_lib11application8commands10handle_add0s_0CsdrRwdeEzguW_17build_server_full
FN:200,_RNCNCNvNtNtCshmQA5Mrgi1L_10empack_lib11application8commands11handle_init00CsdrRwdeEzguW_17build_server_full
FN:308,_RNCNCNvNtNtCshmQA5Mrgi1L_10empack_lib11application8commands11handle_init0s0_0CsdrRwdeEzguW_17build_server_full
FN:349,_RNCNCNvNtNtCshmQA5Mrgi1L_10empack_lib11application8commands11handle_init0s1_0CsdrRwdeEzguW_17build_server_full
FN:233,_RNCNCNvNtNtCshmQA5Mrgi1L_10empack_lib11application8commands11handle_init0s_0CsdrRwdeEzguW_17build_server_full
FN:1282,_RNCNCNvNtNtCshmQA5Mrgi1L_10empack_lib11application8commands11handle_sync00CsdrRwdeEzguW_17build_server_full
FN:1311,_RNCNCNvNtNtCshmQA5Mrgi1L_10empack_lib11application8commands11handle_sync0s0_0CsdrRwdeEzguW_17build_server_full
FN:1285,_RNCNCNvNtNtCshmQA5Mrgi1L_10empack_lib11application8commands11handle_sync0s_0CsdrRwdeEzguW_17build_server_full
FN:907,_RNCNCNvNtNtCshmQA5Mrgi1L_10empack_lib11application8commands12handle_build00CsdrRwdeEzguW_17build_server_full
FN:814,_RNCNCNvNtNtCshmQA5Mrgi1L_10empack_lib11application8commands13handle_remove00CsdrRwdeEzguW_17build_server_full
FN:115,_RNCNCNvNtNtCshmQA5Mrgi1L_10empack_lib11application8commands19handle_requirements0s1_0CsdrRwdeEzguW_17build_server_full
FN:132,_RNCNCNvNtNtCshmQA5Mrgi1L_10empack_lib11application8commands19handle_requirements0s3_0CsdrRwdeEzguW_17build_server_full
FN:574,_RNCNvNtNtCshmQA5Mrgi1L_10empack_lib11application8commands10handle_add0CsdrRwdeEzguW_17build_server_full
FN:173,_RNCNvNtNtCshmQA5Mrgi1L_10empack_lib11application8commands11handle_init0CsdrRwdeEzguW_17build_server_full
FN:1021,_RNCNvNtNtCshmQA5Mrgi1L_10empack_lib11application8commands11handle_sync0CsdrRwdeEzguW_17build_server_full
FN:868,_RNCNvNtNtCshmQA5Mrgi1L_10empack_lib11application8commands12handle_build0CsdrRwdeEzguW_17build_server_full
FN:980,_RNCNvNtNtCshmQA5Mrgi1L_10empack_lib11application8commands12handle_clean0CsdrRwdeEzguW_17build_server_full
FN:759,_RNCNvNtNtCshmQA5Mrgi1L_10empack_lib11application8commands13handle_remove0CsdrRwdeEzguW_17build_server_full
FN:148,_RNCNvNtNtCshmQA5Mrgi1L_10empack_lib11application8commands14handle_version0CsdrRwdeEzguW_17build_server_full
FN:77,_RNCNvNtNtCshmQA5Mrgi1L_10empack_lib11application8commands19handle_requirements0CsdrRwdeEzguW_17build_server_full
FN:55,_RNCNvNtNtCshmQA5Mrgi1L_10empack_lib11application8commands28execute_command_with_session0CsdrRwdeEzguW_17build_server_full
FN:236,_RNCNCNCNvNtNtCs5BmVzKVgC1k_10empack_lib11application8commands11handle_init0s_00Bb_
FN:594,_RNCNCNvNtNtCs5BmVzKVgC1k_10empack_lib11application8commands10handle_add00B9_
FN:655,_RNCNCNvNtNtCs5BmVzKVgC1k_10empack_lib11application8commands10handle_add0s0_0B9_
FN:696,_RNCNCNvNtNtCs5BmVzKVgC1k_10empack_lib11application8commands10handle_add0s1_0B9_
FN:654,_RNCNCNvNtNtCs5BmVzKVgC1k_10empack_lib11application8commands10handle_add0s_0B9_
FN:200,_RNCNCNvNtNtCs5BmVzKVgC1k_10empack_lib11application8commands11handle_init00B9_
FN:308,_RNCNCNvNtNtCs5BmVzKVgC1k_10empack_lib11application8commands11handle_init0s0_0B9_
FN:349,_RNCNCNvNtNtCs5BmVzKVgC1k_10empack_lib11application8commands11handle_init0s1_0B9_
FN:233,_RNCNCNvNtNtCs5BmVzKVgC1k_10empack_lib11application8commands11handle_init0s_0B9_
FN:1282,_RNCNCNvNtNtCs5BmVzKVgC1k_10empack_lib11application8commands11handle_sync00B9_
FN:1311,_RNCNCNvNtNtCs5BmVzKVgC1k_10empack_lib11application8commands11handle_sync0s0_0B9_
FN:1285,_RNCNCNvNtNtCs5BmVzKVgC1k_10empack_lib11application8commands11handle_sync0s_0B9_
FN:907,_RNCNCNvNtNtCs5BmVzKVgC1k_10empack_lib11application8commands12handle_build00B9_
FN:814,_RNCNCNvNtNtCs5BmVzKVgC1k_10empack_lib11application8commands13handle_remove00B9_
FN:115,_RNCNCNvNtNtCs5BmVzKVgC1k_10empack_lib11application8commands19handle_requirements0s1_0B9_
FN:132,_RNCNCNvNtNtCs5BmVzKVgC1k_10empack_lib11application8commands19handle_requirements0s3_0B9_
FN:574,_RNCNvNtNtCs5BmVzKVgC1k_10empack_lib11application8commands10handle_add0B7_
FN:173,_RNCNvNtNtCs5BmVzKVgC1k_10empack_lib11application8commands11handle_init0B7_
FN:1021,_RNCNvNtNtCs5BmVzKVgC1k_10empack_lib11application8commands11handle_sync0B7_
FN:868,_RNCNvNtNtCs5BmVzKVgC1k_10empack_lib11application8commands12handle_build0B7_
FN:980,_RNCNvNtNtCs5BmVzKVgC1k_10empack_lib11application8commands12handle_clean0B7_
FN:759,_RNCNvNtNtCs5BmVzKVgC1k_10empack_lib11application8commands13handle_remove0B7_
FN:148,_RNCNvNtNtCs5BmVzKVgC1k_10empack_lib11application8commands14handle_version0B7_
FN:77,_RNCNvNtNtCs5BmVzKVgC1k_10empack_lib11application8commands19handle_requirements0B7_
FN:31,_RNCNvNtNtCs5BmVzKVgC1k_10empack_lib11application8commands15execute_command0B7_
FN:55,_RNCNvNtNtCs5BmVzKVgC1k_10empack_lib11application8commands28execute_command_with_session0B7_
FN:31,_RNvNtNtCs5BmVzKVgC1k_10empack_lib11application8commands15execute_command
FN:55,_RNvNtNtCs5BmVzKVgC1k_10empack_lib11application8commands28execute_command_with_session
FN:569,_RNvNtNtCs5BmVzKVgC1k_10empack_lib11application8commands10handle_add
FN:173,_RNvNtNtCs5BmVzKVgC1k_10empack_lib11application8commands11handle_init
FN:1021,_RNvNtNtCs5BmVzKVgC1k_10empack_lib11application8commands11handle_sync
FN:868,_RNvNtNtCs5BmVzKVgC1k_10empack_lib11application8commands12handle_build
FN:980,_RNvNtNtCs5BmVzKVgC1k_10empack_lib11application8commands12handle_clean
FN:759,_RNvNtNtCs5BmVzKVgC1k_10empack_lib11application8commands13handle_remove
FN:148,_RNvNtNtCs5BmVzKVgC1k_10empack_lib11application8commands14handle_version
FN:77,_RNvNtNtCs5BmVzKVgC1k_10empack_lib11application8commands19handle_requirements
FN:1364,_RNvNtNtCs5BmVzKVgC1k_10empack_lib11application8commands19parse_build_targets
FN:236,_RNCNCNCNvNtNtCshmQA5Mrgi1L_10empack_lib11application8commands11handle_init0s_00CsaTeXJNQleyZ_12hermetic_e2e
FN:594,_RNCNCNvNtNtCshmQA5Mrgi1L_10empack_lib11application8commands10handle_add00CsaTeXJNQleyZ_12hermetic_e2e
FN:655,_RNCNCNvNtNtCshmQA5Mrgi1L_10empack_lib11application8commands10handle_add0s0_0CsaTeXJNQleyZ_12hermetic_e2e
FN:696,_RNCNCNvNtNtCshmQA5Mrgi1L_10empack_lib11application8commands10handle_add0s1_0CsaTeXJNQleyZ_12hermetic_e2e
FN:654,_RNCNCNvNtNtCshmQA5Mrgi1L_10empack_lib11application8commands10handle_add0s_0CsaTeXJNQleyZ_12hermetic_e2e
FN:200,_RNCNCNvNtNtCshmQA5Mrgi1L_10empack_lib11application8commands11handle_init00CsaTeXJNQleyZ_12hermetic_e2e
FN:308,_RNCNCNvNtNtCshmQA5Mrgi1L_10empack_lib11application8commands11handle_init0s0_0CsaTeXJNQleyZ_12hermetic_e2e
FN:349,_RNCNCNvNtNtCshmQA5Mrgi1L_10empack_lib11application8commands11handle_init0s1_0CsaTeXJNQleyZ_12hermetic_e2e
FN:233,_RNCNCNvNtNtCshmQA5Mrgi1L_10empack_lib11application8commands11handle_init0s_0CsaTeXJNQleyZ_12hermetic_e2e
FN:1282,_RNCNCNvNtNtCshmQA5Mrgi1L_10empack_lib11application8commands11handle_sync00CsaTeXJNQleyZ_12hermetic_e2e
FN:1311,_RNCNCNvNtNtCshmQA5Mrgi1L_10empack_lib11application8commands11handle_sync0s0_0CsaTeXJNQleyZ_12hermetic_e2e
FN:1285,_RNCNCNvNtNtCshmQA5Mrgi1L_10empack_lib11application8commands11handle_sync0s_0CsaTeXJNQleyZ_12hermetic_e2e
FN:907,_RNCNCNvNtNtCshmQA5Mrgi1L_10empack_lib11application8commands12handle_build00CsaTeXJNQleyZ_12hermetic_e2e
FN:814,_RNCNCNvNtNtCshmQA5Mrgi1L_10empack_lib11application8commands13handle_remove00CsaTeXJNQleyZ_12hermetic_e2e
FN:115,_RNCNCNvNtNtCshmQA5Mrgi1L_10empack_lib11application8commands19handle_requirements0s1_0CsaTeXJNQleyZ_12hermetic_e2e
FN:132,_RNCNCNvNtNtCshmQA5Mrgi1L_10empack_lib11application8commands19handle_requirements0s3_0CsaTeXJNQleyZ_12hermetic_e2e
FN:574,_RNCNvNtNtCshmQA5Mrgi1L_10empack_lib11application8commands10handle_add0CsaTeXJNQleyZ_12hermetic_e2e
FN:173,_RNCNvNtNtCshmQA5Mrgi1L_10empack_lib11application8commands11handle_init0CsaTeXJNQleyZ_12hermetic_e2e
FN:1021,_RNCNvNtNtCshmQA5Mrgi1L_10empack_lib11application8commands11handle_sync0CsaTeXJNQleyZ_12hermetic_e2e
FN:868,_RNCNvNtNtCshmQA5Mrgi1L_10empack_lib11application8commands12handle_build0CsaTeXJNQleyZ_12hermetic_e2e
FN:980,_RNCNvNtNtCshmQA5Mrgi1L_10empack_lib11application8commands12handle_clean0CsaTeXJNQleyZ_12hermetic_e2e
FN:759,_RNCNvNtNtCshmQA5Mrgi1L_10empack_lib11application8commands13handle_remove0CsaTeXJNQleyZ_12hermetic_e2e
FN:148,_RNCNvNtNtCshmQA5Mrgi1L_10empack_lib11application8commands14handle_version0CsaTeXJNQleyZ_12hermetic_e2e
FN:77,_RNCNvNtNtCshmQA5Mrgi1L_10empack_lib11application8commands19handle_requirements0CsaTeXJNQleyZ_12hermetic_e2e
FN:55,_RNCNvNtNtCshmQA5Mrgi1L_10empack_lib11application8commands28execute_command_with_session0CsaTeXJNQleyZ_12hermetic_e2e
FNDA:0,_RNCNCNCNvNtNtCshmQA5Mrgi1L_10empack_lib11application8commands11handle_init0s_00Csbc2rGA5VZid_11add_command
FNDA:0,_RNCNCNvNtNtCshmQA5Mrgi1L_10empack_lib11application8commands10handle_add00Csbc2rGA5VZid_11add_command
FNDA:0,_RNCNCNvNtNtCshmQA5Mrgi1L_10empack_lib11application8commands10handle_add0s0_0Csbc2rGA5VZid_11add_command
FNDA:1,_RNCNCNvNtNtCshmQA5Mrgi1L_10empack_lib11application8commands10handle_add0s1_0Csbc2rGA5VZid_11add_command
FNDA:0,_RNCNCNvNtNtCshmQA5Mrgi1L_10empack_lib11application8commands10handle_add0s_0Csbc2rGA5VZid_11add_command
FNDA:0,_RNCNCNvNtNtCshmQA5Mrgi1L_10empack_lib11application8commands11handle_init00Csbc2rGA5VZid_11add_command
FNDA:0,_RNCNCNvNtNtCshmQA5Mrgi1L_10empack_lib11application8commands11handle_init0s0_0Csbc2rGA5VZid_11add_command
FNDA:0,_RNCNCNvNtNtCshmQA5Mrgi1L_10empack_lib11application8commands11handle_init0s1_0Csbc2rGA5VZid_11add_command
FNDA:0,_RNCNCNvNtNtCshmQA5Mrgi1L_10empack_lib11application8commands11handle_init0s_0Csbc2rGA5VZid_11add_command
FNDA:0,_RNCNCNvNtNtCshmQA5Mrgi1L_10empack_lib11application8commands11handle_sync00Csbc2rGA5VZid_11add_command
FNDA:0,_RNCNCNvNtNtCshmQA5Mrgi1L_10empack_lib11application8commands11handle_sync0s0_0Csbc2rGA5VZid_11add_command
FNDA:0,_RNCNCNvNtNtCshmQA5Mrgi1L_10empack_lib11application8commands11handle_sync0s_0Csbc2rGA5VZid_11add_command
FNDA:0,_RNCNCNvNtNtCshmQA5Mrgi1L_10empack_lib11application8commands12handle_build00Csbc2rGA5VZid_11add_command
FNDA:0,_RNCNCNvNtNtCshmQA5Mrgi1L_10empack_lib11application8commands13handle_remove00Csbc2rGA5VZid_11add_command
FNDA:0,_RNCNCNvNtNtCshmQA5Mrgi1L_10empack_lib11application8commands19handle_requirements0s1_0Csbc2rGA5VZid_11add_command
FNDA:0,_RNCNCNvNtNtCshmQA5Mrgi1L_10empack_lib11application8commands19handle_requirements0s3_0Csbc2rGA5VZid_11add_command
FNDA:1,_RNCNvNtNtCshmQA5Mrgi1L_10empack_lib11application8commands10handle_add0Csbc2rGA5VZid_11add_command
FNDA:0,_RNCNvNtNtCshmQA5Mrgi1L_10empack_lib11application8commands11handle_init0Csbc2rGA5VZid_11add_command
FNDA:0,_RNCNvNtNtCshmQA5Mrgi1L_10empack_lib11application8commands11handle_sync0Csbc2rGA5VZid_11add_command
FNDA:0,_RNCNvNtNtCshmQA5Mrgi1L_10empack_lib11application8commands12handle_build0Csbc2rGA5VZid_11add_command
FNDA:0,_RNCNvNtNtCshmQA5Mrgi1L_10empack_lib11application8commands12handle_clean0Csbc2rGA5VZid_11add_command
FNDA:0,_RNCNvNtNtCshmQA5Mrgi1L_10empack_lib11application8commands13handle_remove0Csbc2rGA5VZid_11add_command
FNDA:0,_RNCNvNtNtCshmQA5Mrgi1L_10empack_lib11application8commands14handle_version0Csbc2rGA5VZid_11add_command
FNDA:0,_RNCNvNtNtCshmQA5Mrgi1L_10empack_lib11application8commands19handle_requirements0Csbc2rGA5VZid_11add_command
FNDA:1,_RNCNvNtNtCshmQA5Mrgi1L_10empack_lib11application8commands28execute_command_with_session0Csbc2rGA5VZid_11add_command
FNDA:0,_RNCNCNCNvNtNtCshmQA5Mrgi1L_10empack_lib11application8commands11handle_init0s_00Bb_
FNDA:0,_RNCNCNvNtNtCshmQA5Mrgi1L_10empack_lib11application8commands10handle_add00B9_
FNDA:0,_RNCNCNvNtNtCshmQA5Mrgi1L_10empack_lib11application8commands10handle_add0s0_0B9_
FNDA:0,_RNCNCNvNtNtCshmQA5Mrgi1L_10empack_lib11application8commands10handle_add0s1_0B9_
FNDA:0,_RNCNCNvNtNtCshmQA5Mrgi1L_10empack_lib11application8commands10handle_add0s_0B9_
FNDA:0,_RNCNCNvNtNtCshmQA5Mrgi1L_10empack_lib11application8commands11handle_init00B9_
FNDA:0,_RNCNCNvNtNtCshmQA5Mrgi1L_10empack_lib11application8commands11handle_init0s0_0B9_
FNDA:0,_RNCNCNvNtNtCshmQA5Mrgi1L_10empack_lib11application8commands11handle_init0s1_0B9_
FNDA:0,_RNCNCNvNtNtCshmQA5Mrgi1L_10empack_lib11application8commands11handle_init0s_0B9_
FNDA:0,_RNCNCNvNtNtCshmQA5Mrgi1L_10empack_lib11application8commands11handle_sync00B9_
FNDA:0,_RNCNCNvNtNtCshmQA5Mrgi1L_10empack_lib11application8commands11handle_sync0s0_0B9_
FNDA:0,_RNCNCNvNtNtCshmQA5Mrgi1L_10empack_lib11application8commands11handle_sync0s_0B9_
FNDA:0,_RNCNCNvNtNtCshmQA5Mrgi1L_10empack_lib11application8commands12handle_build00B9_
FNDA:0,_RNCNCNvNtNtCshmQA5Mrgi1L_10empack_lib11application8commands13handle_remove00B9_
FNDA:0,_RNCNCNvNtNtCshmQA5Mrgi1L_10empack_lib11application8commands19handle_requirements0s1_0B9_
FNDA:0,_RNCNCNvNtNtCshmQA5Mrgi1L_10empack_lib11application8commands19handle_requirements0s3_0B9_
FNDA:0,_RNCNvNtNtCshmQA5Mrgi1L_10empack_lib11application8commands10handle_add0B7_
FNDA:0,_RNCNvNtNtCshmQA5Mrgi1L_10empack_lib11application8commands11handle_init0B7_
FNDA:0,_RNCNvNtNtCshmQA5Mrgi1L_10empack_lib11application8commands11handle_sync0B7_
FNDA:0,_RNCNvNtNtCshmQA5Mrgi1L_10empack_lib11application8commands12handle_build0B7_
FNDA:0,_RNCNvNtNtCshmQA5Mrgi1L_10empack_lib11application8commands12handle_clean0B7_
FNDA:0,_RNCNvNtNtCshmQA5Mrgi1L_10empack_lib11application8commands13handle_remove0B7_
FNDA:0,_RNCNvNtNtCshmQA5Mrgi1L_10empack_lib11application8commands14handle_version0B7_
FNDA:0,_RNCNvNtNtCshmQA5Mrgi1L_10empack_lib11application8commands15execute_command0B7_
FNDA:0,_RNCNvNtNtCshmQA5Mrgi1L_10empack_lib11application8commands19handle_requirements0B7_
FNDA:0,_RNCNvNtNtCshmQA5Mrgi1L_10empack_lib11application8commands28execute_command_with_session0B7_
FNDA:2,_RNvNtNtCshmQA5Mrgi1L_10empack_lib11application8commands10handle_add
FNDA:0,_RNvNtNtCshmQA5Mrgi1L_10empack_lib11application8commands11handle_init
FNDA:0,_RNvNtNtCshmQA5Mrgi1L_10empack_lib11application8commands11handle_sync
FNDA:10,_RNvNtNtCshmQA5Mrgi1L_10empack_lib11application8commands12handle_build
FNDA:1,_RNvNtNtCshmQA5Mrgi1L_10empack_lib11application8commands12handle_clean
FNDA:0,_RNvNtNtCshmQA5Mrgi1L_10empack_lib11application8commands13handle_remove
FNDA:0,_RNvNtNtCshmQA5Mrgi1L_10empack_lib11application8commands14handle_version
FNDA:0,_RNvNtNtCshmQA5Mrgi1L_10empack_lib11application8commands15execute_command
FNDA:1,_RNvNtNtCshmQA5Mrgi1L_10empack_lib11application8commands19handle_requirements
FNDA:10,_RNvNtNtCshmQA5Mrgi1L_10empack_lib11application8commands19parse_build_targets
FNDA:14,_RNvNtNtCshmQA5Mrgi1L_10empack_lib11application8commands28execute_command_with_session
FNDA:0,_RNCNCNCNvNtNtCshmQA5Mrgi1L_10empack_lib11application8commands11handle_init0s_00Cs8uoVYB8rq8D_17build_client_full
FNDA:0,_RNCNCNvNtNtCshmQA5Mrgi1L_10empack_lib11application8commands10handle_add00Cs8uoVYB8rq8D_17build_client_full
FNDA:0,_RNCNCNvNtNtCshmQA5Mrgi1L_10empack_lib11application8commands10handle_add0s0_0Cs8uoVYB8rq8D_17build_client_full
FNDA:0,_RNCNCNvNtNtCshmQA5Mrgi1L_10empack_lib11application8commands10handle_add0s1_0Cs8uoVYB8rq8D_17build_client_full
FNDA:0,_RNCNCNvNtNtCshmQA5Mrgi1L_10empack_lib11application8commands10handle_add0s_0Cs8uoVYB8rq8D_17build_client_full
FNDA:0,_RNCNCNvNtNtCshmQA5Mrgi1L_10empack_lib11application8commands11handle_init00Cs8uoVYB8rq8D_17build_client_full
FNDA:0,_RNCNCNvNtNtCshmQA5Mrgi1L_10empack_lib11application8commands11handle_init0s0_0Cs8uoVYB8rq8D_17build_client_full
FNDA:0,_RNCNCNvNtNtCshmQA5Mrgi1L_10empack_lib11application8commands11handle_init0s1_0Cs8uoVYB8rq8D_17build_client_full
FNDA:0,_RNCNCNvNtNtCshmQA5Mrgi1L_10empack_lib11application8commands11handle_init0s_0Cs8uoVYB8rq8D_17build_client_full
FNDA:0,_RNCNCNvNtNtCshmQA5Mrgi1L_10empack_lib11application8commands11handle_sync00Cs8uoVYB8rq8D_17build_client_full
FNDA:0,_RNCNCNvNtNtCshmQA5Mrgi1L_10empack_lib11application8commands11handle_sync0s0_0Cs8uoVYB8rq8D_17build_client_full
FNDA:0,_RNCNCNvNtNtCshmQA5Mrgi1L_10empack_lib11application8commands11handle_sync0s_0Cs8uoVYB8rq8D_17build_client_full
FNDA:3,_RNCNCNvNtNtCshmQA5Mrgi1L_10empack_lib11application8commands12handle_build00Cs8uoVYB8rq8D_17build_client_full
FNDA:0,_RNCNCNvNtNtCshmQA5Mrgi1L_10empack_lib11application8commands13handle_remove00Cs8uoVYB8rq8D_17build_client_full
FNDA:0,_RNCNCNvNtNtCshmQA5Mrgi1L_10empack_lib11application8commands19handle_requirements0s1_0Cs8uoVYB8rq8D_17build_client_full
FNDA:0,_RNCNCNvNtNtCshmQA5Mrgi1L_10empack_lib11application8commands19handle_requirements0s3_0Cs8uoVYB8rq8D_17build_client_full
FNDA:0,_RNCNvNtNtCshmQA5Mrgi1L_10empack_lib11application8commands10handle_add0Cs8uoVYB8rq8D_17build_client_full
FNDA:0,_RNCNvNtNtCshmQA5Mrgi1L_10empack_lib11application8commands11handle_init0Cs8uoVYB8rq8D_17build_client_full
FNDA:0,_RNCNvNtNtCshmQA5Mrgi1L_10empack_lib11application8commands11handle_sync0Cs8uoVYB8rq8D_17build_client_full
FNDA:3,_RNCNvNtNtCshmQA5Mrgi1L_10empack_lib11application8commands12handle_build0Cs8uoVYB8rq8D_17build_client_full
FNDA:0,_RNCNvNtNtCshmQA5Mrgi1L_10empack_lib11application8commands12handle_clean0Cs8uoVYB8rq8D_17build_client_full
FNDA:0,_RNCNvNtNtCshmQA5Mrgi1L_10empack_lib11application8commands13handle_remove0Cs8uoVYB8rq8D_17build_client_full
FNDA:0,_RNCNvNtNtCshmQA5Mrgi1L_10empack_lib11application8commands14handle_version0Cs8uoVYB8rq8D_17build_client_full
FNDA:0,_RNCNvNtNtCshmQA5Mrgi1L_10empack_lib11application8commands19handle_requirements0Cs8uoVYB8rq8D_17build_client_full
FNDA:3,_RNCNvNtNtCshmQA5Mrgi1L_10empack_lib11application8commands28execute_command_with_session0Cs8uoVYB8rq8D_17build_client_full
FNDA:0,_RNCNCNCNvNtNtCshmQA5Mrgi1L_10empack_lib11application8commands11handle_init0s_00Csj8HZQhsijMc_12build_server
FNDA:0,_RNCNCNvNtNtCshmQA5Mrgi1L_10empack_lib11application8commands10handle_add00Csj8HZQhsijMc_12build_server
FNDA:0,_RNCNCNvNtNtCshmQA5Mrgi1L_10empack_lib11application8commands10handle_add0s0_0Csj8HZQhsijMc_12build_server
FNDA:0,_RNCNCNvNtNtCshmQA5Mrgi1L_10empack_lib11application8commands10handle_add0s1_0Csj8HZQhsijMc_12build_server
FNDA:0,_RNCNCNvNtNtCshmQA5Mrgi1L_10empack_lib11application8commands10handle_add0s_0Csj8HZQhsijMc_12build_server
FNDA:0,_RNCNCNvNtNtCshmQA5Mrgi1L_10empack_lib11application8commands11handle_init00Csj8HZQhsijMc_12build_server
FNDA:0,_RNCNCNvNtNtCshmQA5Mrgi1L_10empack_lib11application8commands11handle_init0s0_0Csj8HZQhsijMc_12build_server
FNDA:0,_RNCNCNvNtNtCshmQA5Mrgi1L_10empack_lib11application8commands11handle_init0s1_0Csj8HZQhsijMc_12build_server
FNDA:0,_RNCNCNvNtNtCshmQA5Mrgi1L_10empack_lib11application8commands11handle_init0s_0Csj8HZQhsijMc_12build_server
FNDA:0,_RNCNCNvNtNtCshmQA5Mrgi1L_10empack_lib11application8commands11handle_sync00Csj8HZQhsijMc_12build_server
FNDA:0,_RNCNCNvNtNtCshmQA5Mrgi1L_10empack_lib11application8commands11handle_sync0s0_0Csj8HZQhsijMc_12build_server
FNDA:0,_RNCNCNvNtNtCshmQA5Mrgi1L_10empack_lib11application8commands11handle_sync0s_0Csj8HZQhsijMc_12build_server
FNDA:3,_RNCNCNvNtNtCshmQA5Mrgi1L_10empack_lib11application8commands12handle_build00Csj8HZQhsijMc_12build_server
FNDA:0,_RNCNCNvNtNtCshmQA5Mrgi1L_10empack_lib11application8commands13handle_remove00Csj8HZQhsijMc_12build_server
FNDA:0,_RNCNCNvNtNtCshmQA5Mrgi1L_10empack_lib11application8commands19handle_requirements0s1_0Csj8HZQhsijMc_12build_server
FNDA:0,_RNCNCNvNtNtCshmQA5Mrgi1L_10empack_lib11application8commands19handle_requirements0s3_0Csj8HZQhsijMc_12build_server
FNDA:0,_RNCNvNtNtCshmQA5Mrgi1L_10empack_lib11application8commands10handle_add0Csj8HZQhsijMc_12build_server
FNDA:0,_RNCNvNtNtCshmQA5Mrgi1L_10empack_lib11application8commands11handle_init0Csj8HZQhsijMc_12build_server
FNDA:0,_RNCNvNtNtCshmQA5Mrgi1L_10empack_lib11application8commands11handle_sync0Csj8HZQhsijMc_12build_server
FNDA:3,_RNCNvNtNtCshmQA5Mrgi1L_10empack_lib11application8commands12handle_build0Csj8HZQhsijMc_12build_server
FNDA:0,_RNCNvNtNtCshmQA5Mrgi1L_10empack_lib11application8commands12handle_clean0Csj8HZQhsijMc_12build_server
FNDA:0,_RNCNvNtNtCshmQA5Mrgi1L_10empack_lib11application8commands13handle_remove0Csj8HZQhsijMc_12build_server
FNDA:0,_RNCNvNtNtCshmQA5Mrgi1L_10empack_lib11application8commands14handle_version0Csj8HZQhsijMc_12build_server
FNDA:0,_RNCNvNtNtCshmQA5Mrgi1L_10empack_lib11application8commands19handle_requirements0Csj8HZQhsijMc_12build_server
FNDA:3,_RNCNvNtNtCshmQA5Mrgi1L_10empack_lib11application8commands28execute_command_with_session0Csj8HZQhsijMc_12build_server
FNDA:0,_RNCNCNCNvNtNtCshmQA5Mrgi1L_10empack_lib11application8commands11handle_init0s_00CsdrRwdeEzguW_17build_server_full
FNDA:0,_RNCNCNvNtNtCshmQA5Mrgi1L_10empack_lib11application8commands10handle_add00CsdrRwdeEzguW_17build_server_full
FNDA:0,_RNCNCNvNtNtCshmQA5Mrgi1L_10empack_lib11application8commands10handle_add0s0_0CsdrRwdeEzguW_17build_server_full
FNDA:0,_RNCNCNvNtNtCshmQA5Mrgi1L_10empack_lib11application8commands10handle_add0s1_0CsdrRwdeEzguW_17build_server_full
FNDA:0,_RNCNCNvNtNtCshmQA5Mrgi1L_10empack_lib11application8commands10handle_add0s_0CsdrRwdeEzguW_17build_server_full
FNDA:0,_RNCNCNvNtNtCshmQA5Mrgi1L_10empack_lib11application8commands11handle_init00CsdrRwdeEzguW_17build_server_full
FNDA:0,_RNCNCNvNtNtCshmQA5Mrgi1L_10empack_lib11application8commands11handle_init0s0_0CsdrRwdeEzguW_17build_server_full
FNDA:0,_RNCNCNvNtNtCshmQA5Mrgi1L_10empack_lib11application8commands11handle_init0s1_0CsdrRwdeEzguW_17build_server_full
FNDA:0,_RNCNCNvNtNtCshmQA5Mrgi1L_10empack_lib11application8commands11handle_init0s_0CsdrRwdeEzguW_17build_server_full
FNDA:0,_RNCNCNvNtNtCshmQA5Mrgi1L_10empack_lib11application8commands11handle_sync00CsdrRwdeEzguW_17build_server_full
FNDA:0,_RNCNCNvNtNtCshmQA5Mrgi1L_10empack_lib11application8commands11handle_sync0s0_0CsdrRwdeEzguW_17build_server_full
FNDA:0,_RNCNCNvNtNtCshmQA5Mrgi1L_10empack_lib11application8commands11handle_sync0s_0CsdrRwdeEzguW_17build_server_full
FNDA:3,_RNCNCNvNtNtCshmQA5Mrgi1L_10empack_lib11application8commands12handle_build00CsdrRwdeEzguW_17build_server_full
FNDA:0,_RNCNCNvNtNtCshmQA5Mrgi1L_10empack_lib11application8commands13handle_remove00CsdrRwdeEzguW_17build_server_full
FNDA:0,_RNCNCNvNtNtCshmQA5Mrgi1L_10empack_lib11application8commands19handle_requirements0s1_0CsdrRwdeEzguW_17build_server_full
FNDA:0,_RNCNCNvNtNtCshmQA5Mrgi1L_10empack_lib11application8commands19handle_requirements0s3_0CsdrRwdeEzguW_17build_server_full
FNDA:0,_RNCNvNtNtCshmQA5Mrgi1L_10empack_lib11application8commands10handle_add0CsdrRwdeEzguW_17build_server_full
FNDA:0,_RNCNvNtNtCshmQA5Mrgi1L_10empack_lib11application8commands11handle_init0CsdrRwdeEzguW_17build_server_full
FNDA:0,_RNCNvNtNtCshmQA5Mrgi1L_10empack_lib11application8commands11handle_sync0CsdrRwdeEzguW_17build_server_full
FNDA:3,_RNCNvNtNtCshmQA5Mrgi1L_10empack_lib11application8commands12handle_build0CsdrRwdeEzguW_17build_server_full
FNDA:0,_RNCNvNtNtCshmQA5Mrgi1L_10empack_lib11application8commands12handle_clean0CsdrRwdeEzguW_17build_server_full
FNDA:0,_RNCNvNtNtCshmQA5Mrgi1L_10empack_lib11application8commands13handle_remove0CsdrRwdeEzguW_17build_server_full
FNDA:0,_RNCNvNtNtCshmQA5Mrgi1L_10empack_lib11application8commands14handle_version0CsdrRwdeEzguW_17build_server_full
FNDA:0,_RNCNvNtNtCshmQA5Mrgi1L_10empack_lib11application8commands19handle_requirements0CsdrRwdeEzguW_17build_server_full
FNDA:3,_RNCNvNtNtCshmQA5Mrgi1L_10empack_lib11application8commands28execute_command_with_session0CsdrRwdeEzguW_17build_server_full
FNDA:0,_RNCNCNCNvNtNtCs5BmVzKVgC1k_10empack_lib11application8commands11handle_init0s_00Bb_
FNDA:0,_RNCNCNvNtNtCs5BmVzKVgC1k_10empack_lib11application8commands10handle_add00B9_
FNDA:0,_RNCNCNvNtNtCs5BmVzKVgC1k_10empack_lib11application8commands10handle_add0s0_0B9_
FNDA:1,_RNCNCNvNtNtCs5BmVzKVgC1k_10empack_lib11application8commands10handle_add0s1_0B9_
FNDA:0,_RNCNCNvNtNtCs5BmVzKVgC1k_10empack_lib11application8commands10handle_add0s_0B9_
FNDA:0,_RNCNCNvNtNtCs5BmVzKVgC1k_10empack_lib11application8commands11handle_init00B9_
FNDA:0,_RNCNCNvNtNtCs5BmVzKVgC1k_10empack_lib11application8commands11handle_init0s0_0B9_
FNDA:0,_RNCNCNvNtNtCs5BmVzKVgC1k_10empack_lib11application8commands11handle_init0s1_0B9_
FNDA:0,_RNCNCNvNtNtCs5BmVzKVgC1k_10empack_lib11application8commands11handle_init0s_0B9_
FNDA:0,_RNCNCNvNtNtCs5BmVzKVgC1k_10empack_lib11application8commands11handle_sync00B9_
FNDA:0,_RNCNCNvNtNtCs5BmVzKVgC1k_10empack_lib11application8commands11handle_sync0s0_0B9_
FNDA:0,_RNCNCNvNtNtCs5BmVzKVgC1k_10empack_lib11application8commands11handle_sync0s_0B9_
FNDA:5,_RNCNCNvNtNtCs5BmVzKVgC1k_10empack_lib11application8commands12handle_build00B9_
FNDA:4,_RNCNCNvNtNtCs5BmVzKVgC1k_10empack_lib11application8commands13handle_remove00B9_
FNDA:4,_RNCNCNvNtNtCs5BmVzKVgC1k_10empack_lib11application8commands19handle_requirements0s1_0B9_
FNDA:4,_RNCNCNvNtNtCs5BmVzKVgC1k_10empack_lib11application8commands19handle_requirements0s3_0B9_
FNDA:5,_RNCNvNtNtCs5BmVzKVgC1k_10empack_lib11application8commands10handle_add0B7_
FNDA:3,_RNCNvNtNtCs5BmVzKVgC1k_10empack_lib11application8commands11handle_init0B7_
FNDA:5,_RNCNvNtNtCs5BmVzKVgC1k_10empack_lib11application8commands11handle_sync0B7_
FNDA:5,_RNCNvNtNtCs5BmVzKVgC1k_10empack_lib11application8commands12handle_build0B7_
FNDA:4,_RNCNvNtNtCs5BmVzKVgC1k_10empack_lib11application8commands12handle_clean0B7_
FNDA:5,_RNCNvNtNtCs5BmVzKVgC1k_10empack_lib11application8commands13handle_remove0B7_
FNDA:1,_RNCNvNtNtCs5BmVzKVgC1k_10empack_lib11application8commands14handle_version0B7_
FNDA:2,_RNCNvNtNtCs5BmVzKVgC1k_10empack_lib11application8commands19handle_requirements0B7_
FNDA:0,_RNCNvNtNtCs5BmVzKVgC1k_10empack_lib11application8commands15execute_command0B7_
FNDA:0,_RNCNvNtNtCs5BmVzKVgC1k_10empack_lib11application8commands28execute_command_with_session0B7_
FNDA:0,_RNvNtNtCs5BmVzKVgC1k_10empack_lib11application8commands15execute_command
FNDA:0,_RNvNtNtCs5BmVzKVgC1k_10empack_lib11application8commands28execute_command_with_session
FNDA:5,_RNvNtNtCs5BmVzKVgC1k_10empack_lib11application8commands10handle_add
FNDA:3,_RNvNtNtCs5BmVzKVgC1k_10empack_lib11application8commands11handle_init
FNDA:5,_RNvNtNtCs5BmVzKVgC1k_10empack_lib11application8commands11handle_sync
FNDA:5,_RNvNtNtCs5BmVzKVgC1k_10empack_lib11application8commands12handle_build
FNDA:4,_RNvNtNtCs5BmVzKVgC1k_10empack_lib11application8commands12handle_clean
FNDA:5,_RNvNtNtCs5BmVzKVgC1k_10empack_lib11application8commands13handle_remove
FNDA:1,_RNvNtNtCs5BmVzKVgC1k_10empack_lib11application8commands14handle_version
FNDA:2,_RNvNtNtCs5BmVzKVgC1k_10empack_lib11application8commands19handle_requirements
FNDA:9,_RNvNtNtCs5BmVzKVgC1k_10empack_lib11application8commands19parse_build_targets
FNDA:0,_RNCNCNCNvNtNtCshmQA5Mrgi1L_10empack_lib11application8commands11handle_init0s_00CsaTeXJNQleyZ_12hermetic_e2e
FNDA:0,_RNCNCNvNtNtCshmQA5Mrgi1L_10empack_lib11application8commands10handle_add00CsaTeXJNQleyZ_12hermetic_e2e
FNDA:0,_RNCNCNvNtNtCshmQA5Mrgi1L_10empack_lib11application8commands10handle_add0s0_0CsaTeXJNQleyZ_12hermetic_e2e
FNDA:1,_RNCNCNvNtNtCshmQA5Mrgi1L_10empack_lib11application8commands10handle_add0s1_0CsaTeXJNQleyZ_12hermetic_e2e
FNDA:0,_RNCNCNvNtNtCshmQA5Mrgi1L_10empack_lib11application8commands10handle_add0s_0CsaTeXJNQleyZ_12hermetic_e2e
FNDA:0,_RNCNCNvNtNtCshmQA5Mrgi1L_10empack_lib11application8commands11handle_init00CsaTeXJNQleyZ_12hermetic_e2e
FNDA:0,_RNCNCNvNtNtCshmQA5Mrgi1L_10empack_lib11application8commands11handle_init0s0_0CsaTeXJNQleyZ_12hermetic_e2e
FNDA:0,_RNCNCNvNtNtCshmQA5Mrgi1L_10empack_lib11application8commands11handle_init0s1_0CsaTeXJNQleyZ_12hermetic_e2e
FNDA:0,_RNCNCNvNtNtCshmQA5Mrgi1L_10empack_lib11application8commands11handle_init0s_0CsaTeXJNQleyZ_12hermetic_e2e
FNDA:0,_RNCNCNvNtNtCshmQA5Mrgi1L_10empack_lib11application8commands11handle_sync00CsaTeXJNQleyZ_12hermetic_e2e
FNDA:0,_RNCNCNvNtNtCshmQA5Mrgi1L_10empack_lib11application8commands11handle_sync0s0_0CsaTeXJNQleyZ_12hermetic_e2e
FNDA:0,_RNCNCNvNtNtCshmQA5Mrgi1L_10empack_lib11application8commands11handle_sync0s_0CsaTeXJNQleyZ_12hermetic_e2e
FNDA:1,_RNCNCNvNtNtCshmQA5Mrgi1L_10empack_lib11application8commands12handle_build00CsaTeXJNQleyZ_12hermetic_e2e
FNDA:0,_RNCNCNvNtNtCshmQA5Mrgi1L_10empack_lib11application8commands13handle_remove00CsaTeXJNQleyZ_12hermetic_e2e
FNDA:2,_RNCNCNvNtNtCshmQA5Mrgi1L_10empack_lib11application8commands19handle_requirements0s1_0CsaTeXJNQleyZ_12hermetic_e2e
FNDA:2,_RNCNCNvNtNtCshmQA5Mrgi1L_10empack_lib11application8commands19handle_requirements0s3_0CsaTeXJNQleyZ_12hermetic_e2e
FNDA:1,_RNCNvNtNtCshmQA5Mrgi1L_10empack_lib11application8commands10handle_add0CsaTeXJNQleyZ_12hermetic_e2e
FNDA:0,_RNCNvNtNtCshmQA5Mrgi1L_10empack_lib11application8commands11handle_init0CsaTeXJNQleyZ_12hermetic_e2e
FNDA:0,_RNCNvNtNtCshmQA5Mrgi1L_10empack_lib11application8commands11handle_sync0CsaTeXJNQleyZ_12hermetic_e2e
FNDA:1,_RNCNvNtNtCshmQA5Mrgi1L_10empack_lib11application8commands12handle_build0CsaTeXJNQleyZ_12hermetic_e2e
FNDA:1,_RNCNvNtNtCshmQA5Mrgi1L_10empack_lib11application8commands12handle_clean0CsaTeXJNQleyZ_12hermetic_e2e
FNDA:0,_RNCNvNtNtCshmQA5Mrgi1L_10empack_lib11application8commands13handle_remove0CsaTeXJNQleyZ_12hermetic_e2e
FNDA:0,_RNCNvNtNtCshmQA5Mrgi1L_10empack_lib11application8commands14handle_version0CsaTeXJNQleyZ_12hermetic_e2e
FNDA:1,_RNCNvNtNtCshmQA5Mrgi1L_10empack_lib11application8commands19handle_requirements0CsaTeXJNQleyZ_12hermetic_e2e
FNDA:4,_RNCNvNtNtCshmQA5Mrgi1L_10empack_lib11application8commands28execute_command_with_session0CsaTeXJNQleyZ_12hermetic_e2e
FNF:37
FNH:24
DA:31,0
DA:33,0
DA:35,0
DA:36,0
DA:38,0
DA:39,0
DA:40,0
DA:41,0
DA:42,0
DA:43,0
DA:44,0
DA:45,0
DA:46,0
DA:51,0
DA:52,0
DA:55,14
DA:56,14
DA:57,1
DA:58,0
DA:59,0
DA:61,2
DA:62,2
DA:63,2
DA:64,2
DA:65,0
DA:67,10
DA:68,10
DA:70,10
DA:71,1
DA:72,0
DA:74,14
DA:77,3
DA:78,3
DA:79,3
DA:80,3
DA:81,3
DA:84,3
DA:85,3
DA:86,2
DA:87,2
DA:88,2
DA:90,1
DA:91,1
DA:92,1
DA:93,1
DA:94,1
DA:95,1
DA:96,1
DA:97,1
DA:98,1
DA:99,1
DA:100,1
DA:105,3
DA:106,3
DA:108,3
DA:109,3
DA:111,3
DA:112,3
DA:113,3
DA:114,3
DA:115,6
DA:116,3
DA:117,3
DA:118,3
DA:119,3
DA:121,0
DA:122,0
DA:123,0
DA:124,0
DA:125,0
DA:126,0
DA:128,3
DA:129,3
DA:130,3
DA:131,3
DA:132,6
DA:133,3
DA:134,3
DA:135,3
DA:136,3
DA:138,0
DA:139,0
DA:140,0
DA:141,0
DA:142,0
DA:143,0
DA:145,3
DA:146,3
DA:148,1
DA:149,1
DA:150,1
DA:151,1
DA:152,1
DA:153,1
DA:154,1
DA:155,1
DA:156,1
DA:157,1
DA:159,1
DA:160,1
DA:161,1
DA:162,1
DA:163,1
DA:164,1
DA:165,1
DA:166,1
DA:168,1
DA:170,1
DA:171,1
DA:173,3
DA:175,3
DA:176,3
DA:177,3
DA:178,3
DA:179,3
DA:180,3
DA:181,3
DA:182,3
DA:184,3
DA:185,3
DA:186,3
DA:187,3
DA:188,3
DA:189,3
DA:190,0
DA:192,3
DA:194,0
DA:195,0
DA:196,0
DA:197,0
DA:198,0
DA:199,0
DA:200,0
DA:201,0
DA:202,0
DA:203,0
DA:204,0
DA:205,0
DA:206,0
DA:210,3
DA:211,3
DA:214,3
DA:215,3
DA:216,0
DA:217,0
DA:218,0
DA:219,0
DA:220,0
DA:221,0
DA:222,0
DA:223,0
DA:224,0
DA:225,3
DA:227,3
DA:228,3
DA:229,3
DA:230,3
DA:233,3
DA:234,0
DA:235,0
DA:236,0
DA:237,0
DA:238,0
DA:239,0
DA:242,3
DA:243,3
DA:244,3
DA:245,3
DA:247,0
DA:248,0
DA:249,0
DA:250,0
DA:252,0
DA:253,0
DA:254,0
DA:255,0
DA:258,0
DA:259,0
DA:262,0
DA:263,0
DA:264,0
DA:265,0
DA:266,0
DA:267,0
DA:268,0
DA:269,0
DA:270,0
DA:271,0
DA:272,0
DA:274,0
DA:275,0
DA:276,0
DA:277,0
DA:278,0
DA:279,0
DA:280,0
DA:285,0
DA:286,0
DA:287,0
DA:288,0
DA:289,0
DA:290,0
DA:293,0
DA:294,0
DA:295,0
DA:296,0
DA:297,0
DA:298,0
DA:299,0
DA:301,0
DA:302,0
DA:303,0
DA:304,0
DA:305,0
DA:307,0
DA:308,0
DA:309,0
DA:310,0
DA:311,0
DA:312,0
DA:313,0
DA:315,0
DA:316,0
DA:317,0
DA:318,0
DA:319,0
DA:320,0
DA:321,0
DA:322,0
DA:323,0
DA:324,0
DA:325,0
DA:326,0
DA:327,0
DA:328,0
DA:334,0
DA:335,0
DA:336,0
DA:337,0
DA:339,0
DA:340,0
DA:341,0
DA:342,0
DA:343,0
DA:344,0
DA:347,0
DA:348,0
DA:349,0
DA:350,0
DA:351,0
DA:352,0
DA:353,0
DA:354,0
DA:355,0
DA:356,0
DA:357,0
DA:360,0
DA:361,0
DA:362,0
DA:363,0
DA:364,0
DA:366,0
DA:367,0
DA:368,0
DA:370,0
DA:371,0
DA:372,0
DA:373,0
DA:374,0
DA:375,0
DA:377,0
DA:378,0
DA:379,0
DA:380,0
DA:381,0
DA:382,0
DA:383,0
DA:384,0
DA:385,0
DA:391,0
DA:392,0
DA:393,0
DA:395,0
DA:396,0
DA:397,0
DA:398,0
DA:399,0
DA:400,0
DA:402,0
DA:403,0
DA:404,0
DA:405,0
DA:406,0
DA:407,0
DA:408,0
DA:409,0
DA:410,0
DA:416,0
DA:417,0
DA:418,0
DA:420,0
DA:421,0
DA:422,0
DA:423,0
DA:424,0
DA:425,0
DA:427,0
DA:428,0
DA:429,0
DA:430,0
DA:431,0
DA:432,0
DA:433,0
DA:434,0
DA:435,0
DA:441,0
DA:442,0
DA:443,0
DA:445,0
DA:446,0
DA:447,0
DA:448,0
DA:449,0
DA:450,0
DA:452,0
DA:453,0
DA:454,0
DA:455,0
DA:456,0
DA:457,0
DA:458,0
DA:459,0
DA:460,0
DA:468,0
DA:469,0
DA:470,0
DA:471,0
DA:472,0
DA:473,0
DA:476,0
DA:477,0
DA:478,0
DA:479,0
DA:480,0
DA:481,0
DA:482,0
DA:483,0
DA:484,0
DA:485,0
DA:486,0
DA:487,0
DA:488,0
DA:489,0
DA:490,0
DA:491,0
DA:492,0
DA:493,0
DA:494,0
DA:495,0
DA:496,0
DA:499,0
DA:500,0
DA:501,0
DA:502,0
DA:504,0
DA:505,0
DA:506,0
DA:507,0
DA:508,0
DA:509,0
DA:510,0
DA:513,0
DA:514,0
DA:515,0
DA:516,0
DA:517,0
DA:518,0
DA:519,0
DA:520,0
DA:521,0
DA:522,0
DA:526,0
DA:527,0
DA:528,0
DA:531,0
DA:532,0
DA:533,0
DA:534,0
DA:535,0
DA:536,0
DA:537,0
DA:538,0
DA:539,0
DA:540,0
DA:541,0
DA:542,0
DA:544,0
DA:545,0
DA:546,0
DA:547,0
DA:548,0
DA:549,0
DA:550,0
DA:551,0
DA:552,0
DA:553,0
DA:554,0
DA:555,0
DA:556,0
DA:557,0
DA:559,0
DA:560,0
DA:561,0
DA:562,0
DA:566,0
DA:567,3
DA:569,7
DA:570,7
DA:571,7
DA:572,7
DA:573,7
DA:574,7
DA:577,7
DA:578,1
DA:579,1
DA:580,1
DA:581,1
DA:582,1
DA:583,1
DA:584,1
DA:585,1
DA:586,1
DA:587,6
DA:589,6
DA:592,6
DA:593,6
DA:594,6
DA:595,6
DA:596,1
DA:597,1
DA:598,1
DA:599,1
DA:600,1
DA:601,1
DA:602,1
DA:603,1
DA:604,1
DA:605,5
DA:608,5
DA:609,5
DA:610,5
DA:613,5
DA:614,0
DA:616,5
DA:617,5
DA:618,5
DA:619,5
DA:620,5
DA:625,5
DA:628,5
DA:629,5
DA:630,5
DA:631,5
DA:632,5
DA:635,5
DA:636,5
DA:637,5
DA:639,5
DA:640,5
DA:641,5
DA:642,5
DA:644,5
DA:645,5
DA:647,11
DA:648,6
DA:649,6
DA:650,6
DA:651,6
DA:654,6
DA:655,6
DA:656,0
DA:657,0
DA:658,0
DA:659,0
DA:660,0
DA:662,6
DA:663,6
DA:664,6
DA:666,3
DA:667,3
DA:668,3
DA:669,3
DA:671,3
DA:672,3
DA:673,3
DA:674,3
DA:677,3
DA:678,3
DA:679,3
DA:680,3
DA:681,3
DA:683,0
DA:684,0
DA:685,0
DA:686,0
DA:688,0
DA:689,0
DA:690,0
DA:691,0
DA:696,3
DA:697,3
DA:698,3
DA:700,0
DA:702,3
DA:704,3
DA:705,3
DA:706,3
DA:707,3
DA:708,3
DA:709,3
DA:710,3
DA:711,3
DA:712,0
DA:713,0
DA:714,0
DA:715,0
DA:716,0
DA:717,0
DA:718,0
DA:721,3
DA:722,3
DA:723,3
DA:724,3
DA:725,3
DA:726,3
DA:727,3
DA:732,5
DA:733,5
DA:734,5
DA:735,5
DA:736,5
DA:737,5
DA:738,5
DA:739,5
DA:740,5
DA:742,5
DA:743,2
DA:744,5
DA:745,3
DA:746,3
DA:747,3
DA:749,5
DA:750,3
DA:751,3
DA:752,3
DA:753,3
DA:754,3
DA:756,5
DA:757,7
DA:759,5
DA:760,5
DA:761,1
DA:762,1
DA:763,1
DA:764,1
DA:765,1
DA:766,1
DA:767,1
DA:768,1
DA:769,1
DA:770,4
DA:772,4
DA:775,4
DA:776,4
DA:777,1
DA:778,1
DA:779,1
DA:780,1
DA:781,1
DA:782,1
DA:783,1
DA:784,1
DA:785,1
DA:786,3
DA:788,3
DA:789,3
DA:790,3
DA:791,3
DA:794,3
DA:795,3
DA:796,3
DA:797,3
DA:799,7
DA:800,4
DA:801,4
DA:802,4
DA:803,4
DA:806,4
DA:807,4
DA:808,1
DA:809,3
DA:811,4
DA:812,4
DA:813,4
DA:814,4
DA:815,4
DA:816,4
DA:818,0
DA:820,4
DA:822,4
DA:823,4
DA:824,4
DA:825,4
DA:826,4
DA:827,4
DA:828,4
DA:829,4
DA:830,0
DA:831,0
DA:832,0
DA:833,0
DA:834,0
DA:835,0
DA:836,0
DA:841,3
DA:842,3
DA:843,3
DA:844,3
DA:845,3
DA:846,3
DA:847,3
DA:848,3
DA:849,3
DA:851,3
DA:852,0
DA:853,0
DA:854,0
DA:855,0
DA:856,3
DA:858,3
DA:859,3
DA:860,3
DA:861,3
DA:862,3
DA:863,3
DA:865,3
DA:866,5
DA:868,15
DA:869,15
DA:872,15
DA:873,15
DA:874,1
DA:875,1
DA:876,1
DA:877,1
DA:878,1
DA:879,1
DA:880,1
DA:881,1
DA:882,1
DA:883,14
DA:886,14
DA:887,1
DA:888,1
DA:889,1
DA:890,1
DA:891,1
DA:892,1
DA:893,1
DA:894,1
DA:895,13
DA:898,14
DA:900,14
DA:901,14
DA:902,14
DA:903,14
DA:906,14
DA:907,15
DA:908,2
DA:909,15
DA:915,15
DA:917,14
DA:918,0
DA:919,0
DA:920,0
DA:921,0
DA:924,0
DA:925,0
DA:926,0
DA:929,0
DA:930,0
DA:931,0
DA:932,0
DA:933,0
DA:934,0
DA:935,0
DA:937,0
DA:938,0
DA:939,0
DA:940,0
DA:941,0
DA:942,0
DA:944,0
DA:945,0
DA:946,0
DA:947,0
DA:950,0
DA:952,0
DA:953,0
DA:954,0
DA:955,0
DA:956,14
DA:959,14
DA:960,14
DA:963,14
DA:964,14
DA:965,14
DA:966,14
DA:968,12
DA:969,12
DA:970,12
DA:971,12
DA:972,12
DA:973,12
DA:974,12
DA:975,12
DA:977,12
DA:978,15
DA:980,5
DA:981,5
DA:983,5
DA:984,4
DA:985,2
DA:987,4
DA:988,4
DA:989,4
DA:990,4
DA:992,4
DA:993,4
DA:994,1
DA:995,1
DA:996,1
DA:997,1
DA:998,1
DA:999,1
DA:1000,1
DA:1001,1
DA:1002,3
DA:1003,3
DA:1004,3
DA:1005,3
DA:1006,3
DA:1007,3
DA:1008,1
DA:1010,5
DA:1011,2
DA:1012,2
DA:1013,2
DA:1014,2
DA:1015,2
DA:1016,3
DA:1018,5
DA:1019,5
DA:1021,5
DA:1022,5
DA:1025,5
DA:1026,5
DA:1027,1
DA:1028,1
DA:1029,1
DA:1030,1
DA:1031,1
DA:1032,1
DA:1033,1
DA:1034,1
DA:1035,1
DA:1036,4
DA:1039,4
DA:1040,4
DA:1041,4
DA:1044,4
DA:1045,4
DA:1046,4
DA:1049,0
DA:1052,0
DA:1053,0
DA:1054,0
DA:1055,0
DA:1056,0
DA:1059,0
DA:1060,0
DA:1061,0
DA:1063,0
DA:1064,0
DA:1065,0
DA:1066,0
DA:1067,0
DA:1068,0
DA:1069,0
DA:1070,0
DA:1073,0
DA:1074,0
DA:1075,0
DA:1076,0
DA:1077,0
DA:1078,0
DA:1079,0
DA:1081,0
DA:1082,0
DA:1083,0
DA:1084,0
DA:1085,0
DA:1086,0
DA:1087,0
DA:1088,0
DA:1089,0
DA:1090,0
DA:1095,0
DA:1096,0
DA:1099,0
DA:1100,0
DA:1102,0
DA:1103,0
DA:1107,0
DA:1108,0
DA:1109,0
DA:1110,0
DA:1111,0
DA:1112,0
DA:1115,0
DA:1116,0
DA:1117,0
DA:1118,0
DA:1119,0
DA:1120,0
DA:1121,0
DA:1124,0
DA:1126,0
DA:1127,0
DA:1128,0
DA:1129,0
DA:1132,0
DA:1133,0
DA:1134,0
DA:1135,0
DA:1136,0
DA:1137,0
DA:1140,0
DA:1141,0
DA:1142,0
DA:1143,0
DA:1144,0
DA:1145,0
DA:1146,0
DA:1147,0
DA:1149,0
DA:1150,0
DA:1152,0
DA:1154,0
DA:1155,0
DA:1156,0
DA:1157,0
DA:1161,0
DA:1162,0
DA:1163,0
DA:1164,0
DA:1165,0
DA:1167,0
DA:1168,0
DA:1169,0
DA:1170,0
DA:1172,0
DA:1173,0
DA:1174,0
DA:1175,0
DA:1179,0
DA:1181,0
DA:1182,0
DA:1183,0
DA:1184,0
DA:1185,0
DA:1186,0
DA:1191,0
DA:1192,0
DA:1193,0
DA:1194,0
DA:1195,0
DA:1199,0
DA:1200,0
DA:1201,0
DA:1202,0
DA:1203,0
DA:1204,0
DA:1205,0
DA:1209,0
DA:1210,0
DA:1211,0
DA:1212,0
DA:1213,0
DA:1214,0
DA:1215,0
DA:1217,0
DA:1218,0
DA:1219,0
DA:1221,0
DA:1222,0
DA:1223,0
DA:1225,0
DA:1226,0
DA:1227,0
DA:1228,0
DA:1229,0
DA:1230,0
DA:1231,0
DA:1232,0
DA:1233,0
DA:1234,0
DA:1236,0
DA:1237,0
DA:1238,0
DA:1239,0
DA:1240,0
DA:1241,0
DA:1242,0
DA:1243,0
DA:1244,0
DA:1245,0
DA:1246,0
DA:1251,0
DA:1252,0
DA:1253,0
DA:1254,0
DA:1255,0
DA:1256,0
DA:1257,0
DA:1260,0
DA:1261,0
DA:1262,0
DA:1263,0
DA:1264,0
DA:1265,0
DA:1267,0
DA:1268,0
DA:1270,0
DA:1271,0
DA:1272,0
DA:1274,0
DA:1275,0
DA:1276,0
DA:1277,0
DA:1278,0
DA:1279,0
DA:1280,0
DA:1281,0
DA:1282,0
DA:1283,0
DA:1285,0
DA:1286,0
DA:1287,0
DA:1289,0
DA:1291,0
DA:1292,0
DA:1293,0
DA:1294,0
DA:1295,0
DA:1296,0
DA:1297,0
DA:1298,0
DA:1299,0
DA:1300,0
DA:1303,0
DA:1304,0
DA:1305,0
DA:1306,0
DA:1307,0
DA:1308,0
DA:1309,0
DA:1310,0
DA:1311,0
DA:1312,0
DA:1313,0
DA:1315,0
DA:1317,0
DA:1318,0
DA:1319,0
DA:1320,0
DA:1321,0
DA:1322,0
DA:1323,0
DA:1324,0
DA:1325,0
DA:1326,0
DA:1327,0
DA:1328,0
DA:1329,0
DA:1336,0
DA:1337,0
DA:1338,0
DA:1339,0
DA:1340,0
DA:1341,0
DA:1342,0
DA:1343,0
DA:1344,0
DA:1346,0
DA:1347,0
DA:1348,0
DA:1349,0
DA:1350,0
DA:1351,0
DA:1352,0
DA:1353,0
DA:1354,0
DA:1355,0
DA:1356,0
DA:1358,0
DA:1359,5
DA:1364,19
DA:1365,19
DA:1366,1
DA:1367,18
DA:1369,18
DA:1371,35
DA:1372,20
DA:1373,20
DA:1374,2
DA:1375,2
DA:1376,2
DA:1377,2
DA:1378,2
DA:1379,2
DA:1380,2
DA:1382,18
DA:1383,17
DA:1384,13
DA:1385,7
DA:1386,4
DA:1387,1
DA:1391,15
DA:1392,19
BRF:0
BRH:0
LF:1066
LH:443
end_of_record
SF:/Users/zer0cell/production/empack/crates/empack-lib/src/application/commands.test.rs
FN:32,_RNCNvNtNtNtNtCs5BmVzKVgC1k_10empack_lib11application8commands5tests25handle_requirements_testss_28it_reports_packwiz_available0Bb_
FN:44,_RNCNvNtNtNtNtCs5BmVzKVgC1k_10empack_lib11application8commands5tests25handle_requirements_testss_30it_reports_packwiz_unavailable0Bb_
FN:287,_RNCNvNtNtNtNtCs5BmVzKVgC1k_10empack_lib11application8commands5tests19handle_remove_testss_25it_handles_empty_mod_list0Bb_
FN:300,_RNCNvNtNtNtNtCs5BmVzKVgC1k_10empack_lib11application8commands5tests19handle_remove_testss_32it_handles_uninitialized_project0Bb_
FN:265,_RNCNvNtNtNtNtCs5BmVzKVgC1k_10empack_lib11application8commands5tests19handle_remove_testss_32it_removes_mod_with_dependencies0Bb_
FN:224,_RNCNvNtNtNtNtCs5BmVzKVgC1k_10empack_lib11application8commands5tests19handle_remove_testss_34it_removes_single_mod_successfully0Bb_
FN:246,_RNCNvNtNtNtNtCs5BmVzKVgC1k_10empack_lib11application8commands5tests19handle_remove_testss_37it_removes_multiple_mods_successfully0Bb_
FN:693,_RNvNtNtNtCs5BmVzKVgC1k_10empack_lib11application8commands5testss_23test_sync_action_remove
FN:829,_RNvNtNtNtCs5BmVzKVgC1k_10empack_lib11application8commands5testss_25test_pack_name_validation
FN:674,_RNvNtNtNtCs5BmVzKVgC1k_10empack_lib11application8commands5testss_25test_sync_action_creation
FN:740,_RNvNtNtNtCs5BmVzKVgC1k_10empack_lib11application8commands5testss_26test_mod_loader_validation
FN:726,_RNvNtNtNtCs5BmVzKVgC1k_10empack_lib11application8commands5testss_28test_project_type_validation
FN:756,_RNvNtNtNtCs5BmVzKVgC1k_10empack_lib11application8commands5testss_29test_error_message_formatting
FN:766,_RNvNtNtNtCs5BmVzKVgC1k_10empack_lib11application8commands5testss_31test_success_message_formatting
FN:796,_RNvNtNtNtCs5BmVzKVgC1k_10empack_lib11application8commands5testss_32test_command_argument_validation
FN:813,_RNvNtNtNtCs5BmVzKVgC1k_10empack_lib11application8commands5testss_33test_minecraft_version_validation
FN:778,_RNvNtNtNtCs5BmVzKVgC1k_10empack_lib11application8commands5testss_33test_project_initialization_check
FN:711,_RNvNtNtNtCs5BmVzKVgC1k_10empack_lib11application8commands5testss_34test_build_target_validation_logic
FN:665,_RNvNtNtNtCs5BmVzKVgC1k_10empack_lib11application8commands5testss_35test_parse_build_targets_empty_list
FN:625,_RNvNtNtNtCs5BmVzKVgC1k_10empack_lib11application8commands5testss_36test_parse_build_targets_all_keyword
FN:637,_RNvNtNtNtCs5BmVzKVgC1k_10empack_lib11application8commands5testss_38test_parse_build_targets_single_target
FN:658,_RNvNtNtNtCs5BmVzKVgC1k_10empack_lib11application8commands5testss_39test_parse_build_targets_invalid_target
FN:647,_RNvNtNtNtCs5BmVzKVgC1k_10empack_lib11application8commands5testss_41test_parse_build_targets_multiple_targets
FN:62,_RNvNtNtNtNtCs5BmVzKVgC1k_10empack_lib11application8commands5tests17handle_init_testss_26it_initializes_new_project
FN:88,_RNvNtNtNtNtCs5BmVzKVgC1k_10empack_lib11application8commands5tests17handle_init_testss_33it_overwrites_existing_with_force
FN:76,_RNvNtNtNtNtCs5BmVzKVgC1k_10empack_lib11application8commands5tests17handle_init_testss_46it_refuses_to_overwrite_existing_without_force
FN:16,_RNCNvNtNtNtNtCs5BmVzKVgC1k_10empack_lib11application8commands5tests20handle_version_testss_31it_displays_version_information0Bb_
FN:287,_RNvNtNtNtNtCs5BmVzKVgC1k_10empack_lib11application8commands5tests19handle_remove_testss_25it_handles_empty_mod_list
FN:300,_RNvNtNtNtNtCs5BmVzKVgC1k_10empack_lib11application8commands5tests19handle_remove_testss_32it_handles_uninitialized_project
FN:265,_RNvNtNtNtNtCs5BmVzKVgC1k_10empack_lib11application8commands5tests19handle_remove_testss_32it_removes_mod_with_dependencies
FN:224,_RNvNtNtNtNtCs5BmVzKVgC1k_10empack_lib11application8commands5tests19handle_remove_testss_34it_removes_single_mod_successfully
FN:246,_RNvNtNtNtNtCs5BmVzKVgC1k_10empack_lib11application8commands5tests19handle_remove_testss_37it_removes_multiple_mods_successfully
FN:608,_RNCNvNtNtNtNtCs5BmVzKVgC1k_10empack_lib11application8commands5tests18handle_clean_testss_24it_handles_empty_targets0Bb_
FN:564,_RNCNvNtNtNtNtCs5BmVzKVgC1k_10empack_lib11application8commands5tests18handle_clean_testss_25it_cleans_build_artifacts0Bb_
FN:578,_RNCNvNtNtNtNtCs5BmVzKVgC1k_10empack_lib11application8commands5tests18handle_clean_testss_28it_cleans_all_when_requested0Bb_
FN:592,_RNCNvNtNtNtNtCs5BmVzKVgC1k_10empack_lib11application8commands5tests18handle_clean_testss_30it_cleans_cache_when_requested0Bb_
FN:168,_RNvNtNtNtNtCs5BmVzKVgC1k_10empack_lib11application8commands5tests16handle_add_testss_25it_handles_empty_mod_list
FN:196,_RNvNtNtNtNtCs5BmVzKVgC1k_10empack_lib11application8commands5tests16handle_add_testss_27it_handles_packwiz_failures
FN:106,_RNvNtNtNtNtCs5BmVzKVgC1k_10empack_lib11application8commands5tests16handle_add_testss_31it_adds_single_mod_successfully
FN:181,_RNvNtNtNtNtCs5BmVzKVgC1k_10empack_lib11application8commands5tests16handle_add_testss_32it_handles_uninitialized_project
FN:148,_RNvNtNtNtNtCs5BmVzKVgC1k_10empack_lib11application8commands5tests16handle_add_testss_34it_adds_multiple_mods_successfully
FN:321,_RNCNvNtNtNtNtCs5BmVzKVgC1k_10empack_lib11application8commands5tests17handle_sync_testss_19it_adds_missing_mod0Bb_
FN:342,_RNCNvNtNtNtNtCs5BmVzKVgC1k_10empack_lib11application8commands5tests17handle_sync_testss_20it_removes_extra_mod0Bb_
FN:362,_RNCNvNtNtNtNtCs5BmVzKVgC1k_10empack_lib11application8commands5tests17handle_sync_testss_28it_does_nothing_when_in_sync0Bb_
FN:405,_RNCNvNtNtNtNtCs5BmVzKVgC1k_10empack_lib11application8commands5tests17handle_sync_testss_32it_handles_uninitialized_project0Bb_
FN:382,_RNCNvNtNtNtNtCs5BmVzKVgC1k_10empack_lib11application8commands5tests17handle_sync_testss_35it_performs_dry_run_without_changes0Bb_
FN:321,_RNvNtNtNtNtCs5BmVzKVgC1k_10empack_lib11application8commands5tests17handle_sync_testss_19it_adds_missing_mod
FN:342,_RNvNtNtNtNtCs5BmVzKVgC1k_10empack_lib11application8commands5tests17handle_sync_testss_20it_removes_extra_mod
FN:362,_RNvNtNtNtNtCs5BmVzKVgC1k_10empack_lib11application8commands5tests17handle_sync_testss_28it_does_nothing_when_in_sync
FN:405,_RNvNtNtNtNtCs5BmVzKVgC1k_10empack_lib11application8commands5tests17handle_sync_testss_32it_handles_uninitialized_project
FN:382,_RNvNtNtNtNtCs5BmVzKVgC1k_10empack_lib11application8commands5tests17handle_sync_testss_35it_performs_dry_run_without_changes
FN:490,_RNvNtNtNtNtCs5BmVzKVgC1k_10empack_lib11application8commands5tests18handle_build_testss_21it_builds_all_targets
FN:426,_RNvNtNtNtNtCs5BmVzKVgC1k_10empack_lib11application8commands5tests18handle_build_testss_23it_builds_single_target
FN:462,_RNvNtNtNtNtCs5BmVzKVgC1k_10empack_lib11application8commands5tests18handle_build_testss_26it_builds_multiple_targets
FN:546,_RNvNtNtNtNtCs5BmVzKVgC1k_10empack_lib11application8commands5tests18handle_build_testss_32it_handles_uninitialized_project
FN:518,_RNvNtNtNtNtCs5BmVzKVgC1k_10empack_lib11application8commands5tests18handle_build_testss_37it_cleans_before_build_when_requested
FN:32,_RNvNtNtNtNtCs5BmVzKVgC1k_10empack_lib11application8commands5tests25handle_requirements_testss_28it_reports_packwiz_available
FN:44,_RNvNtNtNtNtCs5BmVzKVgC1k_10empack_lib11application8commands5tests25handle_requirements_testss_30it_reports_packwiz_unavailable
FN:817,_RNCNCNCNCNvNtNtNtCs5BmVzKVgC1k_10empack_lib11application8commands5testss_33test_minecraft_version_validation0000Bf_
FN:832,_RNCNCNCNvNtNtNtCs5BmVzKVgC1k_10empack_lib11application8commands5testss_25test_pack_name_validation000Bd_
FN:799,_RNCNCNCNvNtNtNtCs5BmVzKVgC1k_10empack_lib11application8commands5testss_32test_command_argument_validation000Bd_
FN:817,_RNCNCNCNvNtNtNtCs5BmVzKVgC1k_10empack_lib11application8commands5testss_33test_minecraft_version_validation000Bd_
FN:831,_RNCNCNvNtNtNtCs5BmVzKVgC1k_10empack_lib11application8commands5testss_25test_pack_name_validation00Bb_
FN:798,_RNCNCNvNtNtNtCs5BmVzKVgC1k_10empack_lib11application8commands5testss_32test_command_argument_validation00Bb_
FN:815,_RNCNCNvNtNtNtCs5BmVzKVgC1k_10empack_lib11application8commands5testss_33test_minecraft_version_validation00Bb_
FN:783,_RNCNCNvNtNtNtCs5BmVzKVgC1k_10empack_lib11application8commands5testss_33test_project_initialization_check00Bb_
FN:693,_RNCNvNtNtNtCs5BmVzKVgC1k_10empack_lib11application8commands5testss_23test_sync_action_remove0B9_
FN:829,_RNCNvNtNtNtCs5BmVzKVgC1k_10empack_lib11application8commands5testss_25test_pack_name_validation0B9_
FN:674,_RNCNvNtNtNtCs5BmVzKVgC1k_10empack_lib11application8commands5testss_25test_sync_action_creation0B9_
FN:740,_RNCNvNtNtNtCs5BmVzKVgC1k_10empack_lib11application8commands5testss_26test_mod_loader_validation0B9_
FN:726,_RNCNvNtNtNtCs5BmVzKVgC1k_10empack_lib11application8commands5testss_28test_project_type_validation0B9_
FN:756,_RNCNvNtNtNtCs5BmVzKVgC1k_10empack_lib11application8commands5testss_29test_error_message_formatting0B9_
FN:766,_RNCNvNtNtNtCs5BmVzKVgC1k_10empack_lib11application8commands5testss_31test_success_message_formatting0B9_
FN:796,_RNCNvNtNtNtCs5BmVzKVgC1k_10empack_lib11application8commands5testss_32test_command_argument_validation0B9_
FN:813,_RNCNvNtNtNtCs5BmVzKVgC1k_10empack_lib11application8commands5testss_33test_minecraft_version_validation0B9_
FN:778,_RNCNvNtNtNtCs5BmVzKVgC1k_10empack_lib11application8commands5testss_33test_project_initialization_check0B9_
FN:711,_RNCNvNtNtNtCs5BmVzKVgC1k_10empack_lib11application8commands5testss_34test_build_target_validation_logic0B9_
FN:665,_RNCNvNtNtNtCs5BmVzKVgC1k_10empack_lib11application8commands5testss_35test_parse_build_targets_empty_list0B9_
FN:625,_RNCNvNtNtNtCs5BmVzKVgC1k_10empack_lib11application8commands5testss_36test_parse_build_targets_all_keyword0B9_
FN:637,_RNCNvNtNtNtCs5BmVzKVgC1k_10empack_lib11application8commands5testss_38test_parse_build_targets_single_target0B9_
FN:658,_RNCNvNtNtNtCs5BmVzKVgC1k_10empack_lib11application8commands5testss_39test_parse_build_targets_invalid_target0B9_
FN:647,_RNCNvNtNtNtCs5BmVzKVgC1k_10empack_lib11application8commands5testss_41test_parse_build_targets_multiple_targets0B9_
FN:490,_RNCNvNtNtNtNtCs5BmVzKVgC1k_10empack_lib11application8commands5tests18handle_build_testss_21it_builds_all_targets0Bb_
FN:426,_RNCNvNtNtNtNtCs5BmVzKVgC1k_10empack_lib11application8commands5tests18handle_build_testss_23it_builds_single_target0Bb_
FN:462,_RNCNvNtNtNtNtCs5BmVzKVgC1k_10empack_lib11application8commands5tests18handle_build_testss_26it_builds_multiple_targets0Bb_
FN:546,_RNCNvNtNtNtNtCs5BmVzKVgC1k_10empack_lib11application8commands5tests18handle_build_testss_32it_handles_uninitialized_project0Bb_
FN:518,_RNCNvNtNtNtNtCs5BmVzKVgC1k_10empack_lib11application8commands5tests18handle_build_testss_37it_cleans_before_build_when_requested0Bb_
FN:608,_RNvNtNtNtNtCs5BmVzKVgC1k_10empack_lib11application8commands5tests18handle_clean_testss_24it_handles_empty_targets
FN:564,_RNvNtNtNtNtCs5BmVzKVgC1k_10empack_lib11application8commands5tests18handle_clean_testss_25it_cleans_build_artifacts
FN:578,_RNvNtNtNtNtCs5BmVzKVgC1k_10empack_lib11application8commands5tests18handle_clean_testss_28it_cleans_all_when_requested
FN:592,_RNvNtNtNtNtCs5BmVzKVgC1k_10empack_lib11application8commands5tests18handle_clean_testss_30it_cleans_cache_when_requested
FN:62,_RNCNvNtNtNtNtCs5BmVzKVgC1k_10empack_lib11application8commands5tests17handle_init_testss_26it_initializes_new_project0Bb_
FN:88,_RNCNvNtNtNtNtCs5BmVzKVgC1k_10empack_lib11application8commands5tests17handle_init_testss_33it_overwrites_existing_with_force0Bb_
FN:76,_RNCNvNtNtNtNtCs5BmVzKVgC1k_10empack_lib11application8commands5tests17handle_init_testss_46it_refuses_to_overwrite_existing_without_force0Bb_
FN:168,_RNCNvNtNtNtNtCs5BmVzKVgC1k_10empack_lib11application8commands5tests16handle_add_testss_25it_handles_empty_mod_list0Bb_
FN:196,_RNCNvNtNtNtNtCs5BmVzKVgC1k_10empack_lib11application8commands5tests16handle_add_testss_27it_handles_packwiz_failures0Bb_
FN:106,_RNCNvNtNtNtNtCs5BmVzKVgC1k_10empack_lib11application8commands5tests16handle_add_testss_31it_adds_single_mod_successfully0Bb_
FN:181,_RNCNvNtNtNtNtCs5BmVzKVgC1k_10empack_lib11application8commands5tests16handle_add_testss_32it_handles_uninitialized_project0Bb_
FN:148,_RNCNvNtNtNtNtCs5BmVzKVgC1k_10empack_lib11application8commands5tests16handle_add_testss_34it_adds_multiple_mods_successfully0Bb_
FN:16,_RNvNtNtNtNtCs5BmVzKVgC1k_10empack_lib11application8commands5tests20handle_version_testss_31it_displays_version_information
FNDA:1,_RNCNvNtNtNtNtCs5BmVzKVgC1k_10empack_lib11application8commands5tests25handle_requirements_testss_28it_reports_packwiz_available0Bb_
FNDA:1,_RNCNvNtNtNtNtCs5BmVzKVgC1k_10empack_lib11application8commands5tests25handle_requirements_testss_30it_reports_packwiz_unavailable0Bb_
FNDA:1,_RNCNvNtNtNtNtCs5BmVzKVgC1k_10empack_lib11application8commands5tests19handle_remove_testss_25it_handles_empty_mod_list0Bb_
FNDA:1,_RNCNvNtNtNtNtCs5BmVzKVgC1k_10empack_lib11application8commands5tests19handle_remove_testss_32it_handles_uninitialized_project0Bb_
FNDA:1,_RNCNvNtNtNtNtCs5BmVzKVgC1k_10empack_lib11application8commands5tests19handle_remove_testss_32it_removes_mod_with_dependencies0Bb_
FNDA:1,_RNCNvNtNtNtNtCs5BmVzKVgC1k_10empack_lib11application8commands5tests19handle_remove_testss_34it_removes_single_mod_successfully0Bb_
FNDA:1,_RNCNvNtNtNtNtCs5BmVzKVgC1k_10empack_lib11application8commands5tests19handle_remove_testss_37it_removes_multiple_mods_successfully0Bb_
FNDA:1,_RNvNtNtNtCs5BmVzKVgC1k_10empack_lib11application8commands5testss_23test_sync_action_remove
FNDA:1,_RNvNtNtNtCs5BmVzKVgC1k_10empack_lib11application8commands5testss_25test_pack_name_validation
FNDA:1,_RNvNtNtNtCs5BmVzKVgC1k_10empack_lib11application8commands5testss_25test_sync_action_creation
FNDA:1,_RNvNtNtNtCs5BmVzKVgC1k_10empack_lib11application8commands5testss_26test_mod_loader_validation
FNDA:1,_RNvNtNtNtCs5BmVzKVgC1k_10empack_lib11application8commands5testss_28test_project_type_validation
FNDA:1,_RNvNtNtNtCs5BmVzKVgC1k_10empack_lib11application8commands5testss_29test_error_message_formatting
FNDA:1,_RNvNtNtNtCs5BmVzKVgC1k_10empack_lib11application8commands5testss_31test_success_message_formatting
FNDA:1,_RNvNtNtNtCs5BmVzKVgC1k_10empack_lib11application8commands5testss_32test_command_argument_validation
FNDA:1,_RNvNtNtNtCs5BmVzKVgC1k_10empack_lib11application8commands5testss_33test_minecraft_version_validation
FNDA:1,_RNvNtNtNtCs5BmVzKVgC1k_10empack_lib11application8commands5testss_33test_project_initialization_check
FNDA:1,_RNvNtNtNtCs5BmVzKVgC1k_10empack_lib11application8commands5testss_34test_build_target_validation_logic
FNDA:1,_RNvNtNtNtCs5BmVzKVgC1k_10empack_lib11application8commands5testss_35test_parse_build_targets_empty_list
FNDA:1,_RNvNtNtNtCs5BmVzKVgC1k_10empack_lib11application8commands5testss_36test_parse_build_targets_all_keyword
FNDA:1,_RNvNtNtNtCs5BmVzKVgC1k_10empack_lib11application8commands5testss_38test_parse_build_targets_single_target
FNDA:1,_RNvNtNtNtCs5BmVzKVgC1k_10empack_lib11application8commands5testss_39test_parse_build_targets_invalid_target
FNDA:1,_RNvNtNtNtCs5BmVzKVgC1k_10empack_lib11application8commands5testss_41test_parse_build_targets_multiple_targets
FNDA:1,_RNvNtNtNtNtCs5BmVzKVgC1k_10empack_lib11application8commands5tests17handle_init_testss_26it_initializes_new_project
FNDA:1,_RNvNtNtNtNtCs5BmVzKVgC1k_10empack_lib11application8commands5tests17handle_init_testss_33it_overwrites_existing_with_force
FNDA:1,_RNvNtNtNtNtCs5BmVzKVgC1k_10empack_lib11application8commands5tests17handle_init_testss_46it_refuses_to_overwrite_existing_without_force
FNDA:1,_RNCNvNtNtNtNtCs5BmVzKVgC1k_10empack_lib11application8commands5tests20handle_version_testss_31it_displays_version_information0Bb_
FNDA:1,_RNvNtNtNtNtCs5BmVzKVgC1k_10empack_lib11application8commands5tests19handle_remove_testss_25it_handles_empty_mod_list
FNDA:1,_RNvNtNtNtNtCs5BmVzKVgC1k_10empack_lib11application8commands5tests19handle_remove_testss_32it_handles_uninitialized_project
FNDA:1,_RNvNtNtNtNtCs5BmVzKVgC1k_10empack_lib11application8commands5tests19handle_remove_testss_32it_removes_mod_with_dependencies
FNDA:1,_RNvNtNtNtNtCs5BmVzKVgC1k_10empack_lib11application8commands5tests19handle_remove_testss_34it_removes_single_mod_successfully
FNDA:1,_RNvNtNtNtNtCs5BmVzKVgC1k_10empack_lib11application8commands5tests19handle_remove_testss_37it_removes_multiple_mods_successfully
FNDA:1,_RNCNvNtNtNtNtCs5BmVzKVgC1k_10empack_lib11application8commands5tests18handle_clean_testss_24it_handles_empty_targets0Bb_
FNDA:1,_RNCNvNtNtNtNtCs5BmVzKVgC1k_10empack_lib11application8commands5tests18handle_clean_testss_25it_cleans_build_artifacts0Bb_
FNDA:1,_RNCNvNtNtNtNtCs5BmVzKVgC1k_10empack_lib11application8commands5tests18handle_clean_testss_28it_cleans_all_when_requested0Bb_
FNDA:1,_RNCNvNtNtNtNtCs5BmVzKVgC1k_10empack_lib11application8commands5tests18handle_clean_testss_30it_cleans_cache_when_requested0Bb_
FNDA:1,_RNvNtNtNtNtCs5BmVzKVgC1k_10empack_lib11application8commands5tests16handle_add_testss_25it_handles_empty_mod_list
FNDA:1,_RNvNtNtNtNtCs5BmVzKVgC1k_10empack_lib11application8commands5tests16handle_add_testss_27it_handles_packwiz_failures
FNDA:1,_RNvNtNtNtNtCs5BmVzKVgC1k_10empack_lib11application8commands5tests16handle_add_testss_31it_adds_single_mod_successfully
FNDA:1,_RNvNtNtNtNtCs5BmVzKVgC1k_10empack_lib11application8commands5tests16handle_add_testss_32it_handles_uninitialized_project
FNDA:1,_RNvNtNtNtNtCs5BmVzKVgC1k_10empack_lib11application8commands5tests16handle_add_testss_34it_adds_multiple_mods_successfully
FNDA:1,_RNCNvNtNtNtNtCs5BmVzKVgC1k_10empack_lib11application8commands5tests17handle_sync_testss_19it_adds_missing_mod0Bb_
FNDA:1,_RNCNvNtNtNtNtCs5BmVzKVgC1k_10empack_lib11application8commands5tests17handle_sync_testss_20it_removes_extra_mod0Bb_
FNDA:1,_RNCNvNtNtNtNtCs5BmVzKVgC1k_10empack_lib11application8commands5tests17handle_sync_testss_28it_does_nothing_when_in_sync0Bb_
FNDA:1,_RNCNvNtNtNtNtCs5BmVzKVgC1k_10empack_lib11application8commands5tests17handle_sync_testss_32it_handles_uninitialized_project0Bb_
FNDA:1,_RNCNvNtNtNtNtCs5BmVzKVgC1k_10empack_lib11application8commands5tests17handle_sync_testss_35it_performs_dry_run_without_changes0Bb_
FNDA:1,_RNvNtNtNtNtCs5BmVzKVgC1k_10empack_lib11application8commands5tests17handle_sync_testss_19it_adds_missing_mod
FNDA:1,_RNvNtNtNtNtCs5BmVzKVgC1k_10empack_lib11application8commands5tests17handle_sync_testss_20it_removes_extra_mod
FNDA:1,_RNvNtNtNtNtCs5BmVzKVgC1k_10empack_lib11application8commands5tests17handle_sync_testss_28it_does_nothing_when_in_sync
FNDA:1,_RNvNtNtNtNtCs5BmVzKVgC1k_10empack_lib11application8commands5tests17handle_sync_testss_32it_handles_uninitialized_project
FNDA:1,_RNvNtNtNtNtCs5BmVzKVgC1k_10empack_lib11application8commands5tests17handle_sync_testss_35it_performs_dry_run_without_changes
FNDA:1,_RNvNtNtNtNtCs5BmVzKVgC1k_10empack_lib11application8commands5tests18handle_build_testss_21it_builds_all_targets
FNDA:1,_RNvNtNtNtNtCs5BmVzKVgC1k_10empack_lib11application8commands5tests18handle_build_testss_23it_builds_single_target
FNDA:1,_RNvNtNtNtNtCs5BmVzKVgC1k_10empack_lib11application8commands5tests18handle_build_testss_26it_builds_multiple_targets
FNDA:1,_RNvNtNtNtNtCs5BmVzKVgC1k_10empack_lib11application8commands5tests18handle_build_testss_32it_handles_uninitialized_project
FNDA:1,_RNvNtNtNtNtCs5BmVzKVgC1k_10empack_lib11application8commands5tests18handle_build_testss_37it_cleans_before_build_when_requested
FNDA:1,_RNvNtNtNtNtCs5BmVzKVgC1k_10empack_lib11application8commands5tests25handle_requirements_testss_28it_reports_packwiz_available
FNDA:1,_RNvNtNtNtNtCs5BmVzKVgC1k_10empack_lib11application8commands5tests25handle_requirements_testss_30it_reports_packwiz_unavailable
FNDA:15,_RNCNCNCNCNvNtNtNtCs5BmVzKVgC1k_10empack_lib11application8commands5testss_33test_minecraft_version_validation0000Bf_
FNDA:31,_RNCNCNCNvNtNtNtCs5BmVzKVgC1k_10empack_lib11application8commands5testss_25test_pack_name_validation000Bd_
FNDA:32,_RNCNCNCNvNtNtNtCs5BmVzKVgC1k_10empack_lib11application8commands5testss_32test_command_argument_validation000Bd_
FNDA:11,_RNCNCNCNvNtNtNtCs5BmVzKVgC1k_10empack_lib11application8commands5testss_33test_minecraft_version_validation000Bd_
FNDA:7,_RNCNCNvNtNtNtCs5BmVzKVgC1k_10empack_lib11application8commands5testss_25test_pack_name_validation00Bb_
FNDA:6,_RNCNCNvNtNtNtCs5BmVzKVgC1k_10empack_lib11application8commands5testss_32test_command_argument_validation00Bb_
FNDA:6,_RNCNCNvNtNtNtCs5BmVzKVgC1k_10empack_lib11application8commands5testss_33test_minecraft_version_validation00Bb_
FNDA:4,_RNCNCNvNtNtNtCs5BmVzKVgC1k_10empack_lib11application8commands5testss_33test_project_initialization_check00Bb_
FNDA:1,_RNCNvNtNtNtCs5BmVzKVgC1k_10empack_lib11application8commands5testss_23test_sync_action_remove0B9_
FNDA:1,_RNCNvNtNtNtCs5BmVzKVgC1k_10empack_lib11application8commands5testss_25test_pack_name_validation0B9_
FNDA:1,_RNCNvNtNtNtCs5BmVzKVgC1k_10empack_lib11application8commands5testss_25test_sync_action_creation0B9_
FNDA:1,_RNCNvNtNtNtCs5BmVzKVgC1k_10empack_lib11application8commands5testss_26test_mod_loader_validation0B9_
FNDA:1,_RNCNvNtNtNtCs5BmVzKVgC1k_10empack_lib11application8commands5testss_28test_project_type_validation0B9_
FNDA:1,_RNCNvNtNtNtCs5BmVzKVgC1k_10empack_lib11application8commands5testss_29test_error_message_formatting0B9_
FNDA:1,_RNCNvNtNtNtCs5BmVzKVgC1k_10empack_lib11application8commands5testss_31test_success_message_formatting0B9_
FNDA:1,_RNCNvNtNtNtCs5BmVzKVgC1k_10empack_lib11application8commands5testss_32test_command_argument_validation0B9_
FNDA:1,_RNCNvNtNtNtCs5BmVzKVgC1k_10empack_lib11application8commands5testss_33test_minecraft_version_validation0B9_
FNDA:1,_RNCNvNtNtNtCs5BmVzKVgC1k_10empack_lib11application8commands5testss_33test_project_initialization_check0B9_
FNDA:1,_RNCNvNtNtNtCs5BmVzKVgC1k_10empack_lib11application8commands5testss_34test_build_target_validation_logic0B9_
FNDA:1,_RNCNvNtNtNtCs5BmVzKVgC1k_10empack_lib11application8commands5testss_35test_parse_build_targets_empty_list0B9_
FNDA:1,_RNCNvNtNtNtCs5BmVzKVgC1k_10empack_lib11application8commands5testss_36test_parse_build_targets_all_keyword0B9_
FNDA:1,_RNCNvNtNtNtCs5BmVzKVgC1k_10empack_lib11application8commands5testss_38test_parse_build_targets_single_target0B9_
FNDA:1,_RNCNvNtNtNtCs5BmVzKVgC1k_10empack_lib11application8commands5testss_39test_parse_build_targets_invalid_target0B9_
FNDA:1,_RNCNvNtNtNtCs5BmVzKVgC1k_10empack_lib11application8commands5testss_41test_parse_build_targets_multiple_targets0B9_
FNDA:1,_RNCNvNtNtNtNtCs5BmVzKVgC1k_10empack_lib11application8commands5tests18handle_build_testss_21it_builds_all_targets0Bb_
FNDA:1,_RNCNvNtNtNtNtCs5BmVzKVgC1k_10empack_lib11application8commands5tests18handle_build_testss_23it_builds_single_target0Bb_
FNDA:1,_RNCNvNtNtNtNtCs5BmVzKVgC1k_10empack_lib11application8commands5tests18handle_build_testss_26it_builds_multiple_targets0Bb_
FNDA:1,_RNCNvNtNtNtNtCs5BmVzKVgC1k_10empack_lib11application8commands5tests18handle_build_testss_32it_handles_uninitialized_project0Bb_
FNDA:1,_RNCNvNtNtNtNtCs5BmVzKVgC1k_10empack_lib11application8commands5tests18handle_build_testss_37it_cleans_before_build_when_requested0Bb_
FNDA:1,_RNvNtNtNtNtCs5BmVzKVgC1k_10empack_lib11application8commands5tests18handle_clean_testss_24it_handles_empty_targets
FNDA:1,_RNvNtNtNtNtCs5BmVzKVgC1k_10empack_lib11application8commands5tests18handle_clean_testss_25it_cleans_build_artifacts
FNDA:1,_RNvNtNtNtNtCs5BmVzKVgC1k_10empack_lib11application8commands5tests18handle_clean_testss_28it_cleans_all_when_requested
FNDA:1,_RNvNtNtNtNtCs5BmVzKVgC1k_10empack_lib11application8commands5tests18handle_clean_testss_30it_cleans_cache_when_requested
FNDA:1,_RNCNvNtNtNtNtCs5BmVzKVgC1k_10empack_lib11application8commands5tests17handle_init_testss_26it_initializes_new_project0Bb_
FNDA:1,_RNCNvNtNtNtNtCs5BmVzKVgC1k_10empack_lib11application8commands5tests17handle_init_testss_33it_overwrites_existing_with_force0Bb_
FNDA:1,_RNCNvNtNtNtNtCs5BmVzKVgC1k_10empack_lib11application8commands5tests17handle_init_testss_46it_refuses_to_overwrite_existing_without_force0Bb_
FNDA:1,_RNCNvNtNtNtNtCs5BmVzKVgC1k_10empack_lib11application8commands5tests16handle_add_testss_25it_handles_empty_mod_list0Bb_
FNDA:1,_RNCNvNtNtNtNtCs5BmVzKVgC1k_10empack_lib11application8commands5tests16handle_add_testss_27it_handles_packwiz_failures0Bb_
FNDA:1,_RNCNvNtNtNtNtCs5BmVzKVgC1k_10empack_lib11application8commands5tests16handle_add_testss_31it_adds_single_mod_successfully0Bb_
FNDA:1,_RNCNvNtNtNtNtCs5BmVzKVgC1k_10empack_lib11application8commands5tests16handle_add_testss_32it_handles_uninitialized_project0Bb_
FNDA:1,_RNCNvNtNtNtNtCs5BmVzKVgC1k_10empack_lib11application8commands5tests16handle_add_testss_34it_adds_multiple_mods_successfully0Bb_
FNDA:1,_RNvNtNtNtNtCs5BmVzKVgC1k_10empack_lib11application8commands5tests20handle_version_testss_31it_displays_version_information
FNF:100
FNH:100
DA:16,1
DA:17,1
DA:18,1
DA:20,1
DA:23,1
DA:32,1
DA:33,1
DA:34,1
DA:36,1
DA:38,1
DA:40,1
DA:41,1
DA:44,1
DA:45,1
DA:46,1
DA:48,1
DA:50,1
DA:52,1
DA:53,1
DA:62,1
DA:63,1
DA:64,1
DA:65,1
DA:67,1
DA:72,1
DA:73,1
DA:76,1
DA:77,1
DA:78,1
DA:79,1
DA:81,1
DA:84,1
DA:85,1
DA:88,1
DA:89,1
DA:90,1
DA:91,1
DA:93,1
DA:96,1
DA:97,1
DA:106,1
DA:107,1
DA:110,1
DA:111,1
DA:112,1
DA:113,1
DA:114,1
DA:115,1
DA:116,1
DA:117,1
DA:119,1
DA:120,1
DA:121,1
DA:122,1
DA:123,1
DA:124,1
DA:125,1
DA:126,1
DA:127,1
DA:128,1
DA:131,1
DA:133,1
DA:134,0
DA:135,0
DA:136,0
DA:137,1
DA:138,1
DA:141,1
DA:144,1
DA:145,1
DA:148,1
DA:149,1
DA:150,1
DA:151,1
DA:152,1
DA:153,1
DA:154,1
DA:156,1
DA:158,1
DA:161,1
DA:164,1
DA:165,1
DA:168,1
DA:169,1
DA:171,1
DA:173,1
DA:176,1
DA:177,1
DA:178,1
DA:181,1
DA:182,1
DA:183,1
DA:184,1
DA:186,1
DA:188,1
DA:191,1
DA:192,1
DA:193,1
DA:196,1
DA:197,1
DA:198,1
DA:199,1
DA:200,1
DA:201,1
DA:202,1
DA:203,1
DA:204,1
DA:205,1
DA:208,1
DA:210,1
DA:213,1
DA:214,1
DA:215,1
DA:224,1
DA:225,1
DA:226,1
DA:227,1
DA:228,1
DA:229,1
DA:230,1
DA:231,1
DA:232,1
DA:233,1
DA:236,1
DA:238,1
DA:241,1
DA:242,1
DA:243,1
DA:246,1
DA:247,1
DA:248,1
DA:249,1
DA:250,1
DA:251,1
DA:252,1
DA:254,1
DA:256,1
DA:259,1
DA:260,1
DA:261,1
DA:262,1
DA:265,1
DA:266,1
DA:267,1
DA:268,1
DA:269,1
DA:270,1
DA:271,1
DA:272,1
DA:273,1
DA:274,1
DA:277,1
DA:279,1
DA:282,1
DA:283,1
DA:284,1
DA:287,1
DA:288,1
DA:290,1
DA:292,1
DA:295,1
DA:296,1
DA:297,1
DA:300,1
DA:301,1
DA:302,1
DA:303,1
DA:305,1
DA:307,1
DA:310,1
DA:311,1
DA:312,1
DA:321,1
DA:322,1
DA:325,1
DA:326,1
DA:327,1
DA:328,1
DA:329,1
DA:330,1
DA:332,1
DA:335,1
DA:339,1
DA:342,1
DA:343,1
DA:344,1
DA:346,1
DA:347,1
DA:348,1
DA:349,1
DA:350,1
DA:351,1
DA:353,1
DA:356,1
DA:359,1
DA:362,1
DA:363,1
DA:364,1
DA:366,1
DA:367,1
DA:368,1
DA:369,1
DA:370,1
DA:371,1
DA:373,1
DA:376,1
DA:379,1
DA:382,1
DA:383,1
DA:384,1
DA:386,1
DA:387,1
DA:388,1
DA:389,1
DA:390,1
DA:391,1
DA:393,1
DA:396,1
DA:399,1
DA:401,1
DA:402,1
DA:405,1
DA:406,1
DA:407,1
DA:408,1
DA:410,1
DA:412,1
DA:415,1
DA:416,1
DA:417,1
DA:426,1
DA:427,1
DA:428,1
DA:429,1
DA:430,1
DA:431,1
DA:433,1
DA:440,1
DA:441,1
DA:442,1
DA:443,1
DA:444,1
DA:445,1
DA:446,1
DA:447,1
DA:448,1
DA:449,1
DA:450,1
DA:451,1
DA:452,1
DA:453,1
DA:454,1
DA:455,1
DA:456,1
DA:457,1
DA:458,1
DA:459,1
DA:462,1
DA:463,1
DA:464,1
DA:465,1
DA:466,1
DA:467,1
DA:469,1
DA:472,1
DA:473,1
DA:474,1
DA:475,1
DA:476,1
DA:477,1
DA:478,1
DA:479,1
DA:480,1
DA:481,1
DA:482,1
DA:483,1
DA:484,1
DA:485,1
DA:486,1
DA:487,1
DA:490,1
DA:491,1
DA:492,1
DA:493,1
DA:494,1
DA:495,1
DA:497,1
DA:500,1
DA:501,1
DA:502,1
DA:503,1
DA:504,1
DA:505,1
DA:506,1
DA:507,1
DA:508,1
DA:509,1
DA:510,1
DA:511,1
DA:512,1
DA:513,1
DA:514,1
DA:515,1
DA:518,1
DA:519,1
DA:520,1
DA:521,1
DA:522,1
DA:523,1
DA:525,1
DA:528,1
DA:529,1
DA:530,1
DA:531,1
DA:532,1
DA:533,1
DA:534,1
DA:535,1
DA:536,1
DA:537,1
DA:538,1
DA:539,1
DA:540,1
DA:541,1
DA:542,1
DA:543,1
DA:546,1
DA:547,1
DA:548,1
DA:549,1
DA:551,1
DA:554,1
DA:555,1
DA:564,1
DA:565,1
DA:566,1
DA:567,1
DA:568,1
DA:569,1
DA:571,1
DA:574,1
DA:575,1
DA:578,1
DA:579,1
DA:580,1
DA:581,1
DA:582,1
DA:583,1
DA:585,1
DA:588,1
DA:589,1
DA:592,1
DA:593,1
DA:594,1
DA:595,1
DA:596,1
DA:597,1
DA:599,1
DA:601,1
DA:605,1
DA:608,1
DA:609,1
DA:610,1
DA:611,1
DA:612,1
DA:613,1
DA:615,1
DA:618,1
DA:619,1
DA:625,1
DA:626,1
DA:627,1
DA:628,1
DA:629,1
DA:631,1
DA:632,1
DA:633,1
DA:634,1
DA:637,1
DA:638,1
DA:639,1
DA:640,1
DA:641,1
DA:642,1
DA:643,1
DA:644,1
DA:647,1
DA:648,1
DA:649,1
DA:650,1
DA:651,1
DA:652,1
DA:653,1
DA:654,1
DA:655,1
DA:658,1
DA:659,1
DA:660,1
DA:661,1
DA:662,1
DA:665,1
DA:666,1
DA:667,1
DA:668,1
DA:669,1
DA:674,1
DA:676,1
DA:677,1
DA:678,1
DA:679,1
DA:680,1
DA:682,1
DA:683,1
DA:684,1
DA:685,1
DA:686,1
DA:687,1
DA:688,1
DA:689,1
DA:690,1
DA:693,1
DA:694,1
DA:695,1
DA:696,1
DA:697,1
DA:699,1
DA:700,1
DA:701,1
DA:702,1
DA:703,1
DA:704,1
DA:705,1
DA:706,1
DA:711,1
DA:713,1
DA:715,6
DA:716,1
DA:717,5
DA:718,5
DA:719,1
DA:720,1
DA:721,5
DA:722,1
DA:723,1
DA:726,1
DA:728,1
DA:730,4
DA:731,3
DA:732,3
DA:733,1
DA:734,1
DA:735,3
DA:736,1
DA:737,1
DA:740,1
DA:742,1
DA:744,5
DA:745,4
DA:746,4
DA:747,1
DA:748,1
DA:749,4
DA:750,1
DA:751,1
DA:756,1
DA:758,1
DA:759,1
DA:761,1
DA:762,1
DA:763,1
DA:766,1
DA:768,1
DA:769,1
DA:771,1
DA:772,1
DA:773,1
DA:778,1
DA:783,4
DA:784,4
DA:785,4
DA:787,1
DA:788,1
DA:789,1
DA:790,1
DA:791,1
DA:796,1
DA:798,6
DA:799,32
DA:800,6
DA:802,1
DA:803,1
DA:804,1
DA:805,1
DA:806,1
DA:807,1
DA:808,1
DA:813,1
DA:815,6
DA:816,6
DA:817,15
DA:818,6
DA:820,1
DA:821,1
DA:822,1
DA:823,1
DA:824,1
DA:825,1
DA:826,1
DA:829,1
DA:831,7
DA:832,31
DA:833,7
DA:835,1
DA:836,1
DA:837,1
DA:838,1
DA:839,1
DA:840,1
DA:841,1
DA:842,1
BRF:0
BRH:0
LF:687
LH:642
end_of_record
SF:/Users/zer0cell/production/empack/crates/empack-lib/src/application/config.rs
FN:182,_RNCNvMs_NtNtCshmQA5Mrgi1L_10empack_lib11application6configNtB6_9AppConfig8validate0Ba_
FN:30,_RNvNtNtNtCshmQA5Mrgi1L_10empack_lib11application6config11default_fns10log_format
FN:42,_RNvNtNtNtCshmQA5Mrgi1L_10empack_lib11application6config11default_fns10log_output
FN:34,_RNvNtNtNtCshmQA5Mrgi1L_10empack_lib11application6config11default_fns11net_timeout
FN:38,_RNvNtNtNtCshmQA5Mrgi1L_10empack_lib11application6config11default_fns13cpu_parallels
FN:46,_RNvNtNtNtCshmQA5Mrgi1L_10empack_lib11application6config11default_fns22tty_caps_detect_intent
FN:26,_RNvNtNtNtCshmQA5Mrgi1L_10empack_lib11application6config11default_fns9log_level
FN:137,_RNvMs_NtNtCshmQA5Mrgi1L_10empack_lib11application6configNtB4_9AppConfig10merge_with
FN:124,_RNvMs_NtNtCshmQA5Mrgi1L_10empack_lib11application6configNtB4_9AppConfig16to_logger_config
FN:178,_RNvMs_NtNtCshmQA5Mrgi1L_10empack_lib11application6configNtB4_9AppConfig8validate
FN:106,_RNvXNtNtCshmQA5Mrgi1L_10empack_lib11application6configNtB2_9AppConfigNtNtCsj3QBrvpYeJs_4core7default7Default7default
FN:137,_RNvMs_NtNtCs5BmVzKVgC1k_10empack_lib11application6configNtB4_9AppConfig10merge_with
FN:106,_RNvXNtNtCs5BmVzKVgC1k_10empack_lib11application6configNtB2_9AppConfigNtNtCsj3QBrvpYeJs_4core7default7Default7default
FN:30,_RNvNtNtNtCs5BmVzKVgC1k_10empack_lib11application6config11default_fns10log_format
FN:42,_RNvNtNtNtCs5BmVzKVgC1k_10empack_lib11application6config11default_fns10log_output
FN:34,_RNvNtNtNtCs5BmVzKVgC1k_10empack_lib11application6config11default_fns11net_timeout
FN:38,_RNvNtNtNtCs5BmVzKVgC1k_10empack_lib11application6config11default_fns13cpu_parallels
FN:46,_RNvNtNtNtCs5BmVzKVgC1k_10empack_lib11application6config11default_fns22tty_caps_detect_intent
FN:26,_RNvNtNtNtCs5BmVzKVgC1k_10empack_lib11application6config11default_fns9log_level
FN:182,_RNCNvMs_NtNtCs5BmVzKVgC1k_10empack_lib11application6configNtB6_9AppConfig8validate0Ba_
FN:124,_RNvMs_NtNtCs5BmVzKVgC1k_10empack_lib11application6configNtB4_9AppConfig16to_logger_config
FN:178,_RNvMs_NtNtCs5BmVzKVgC1k_10empack_lib11application6configNtB4_9AppConfig8validate
FNDA:0,_RNCNvMs_NtNtCshmQA5Mrgi1L_10empack_lib11application6configNtB6_9AppConfig8validate0Ba_
FNDA:17,_RNvNtNtNtCshmQA5Mrgi1L_10empack_lib11application6config11default_fns10log_format
FNDA:17,_RNvNtNtNtCshmQA5Mrgi1L_10empack_lib11application6config11default_fns10log_output
FNDA:18,_RNvNtNtNtCshmQA5Mrgi1L_10empack_lib11application6config11default_fns11net_timeout
FNDA:18,_RNvNtNtNtCshmQA5Mrgi1L_10empack_lib11application6config11default_fns13cpu_parallels
FNDA:17,_RNvNtNtNtCshmQA5Mrgi1L_10empack_lib11application6config11default_fns22tty_caps_detect_intent
FNDA:18,_RNvNtNtNtCshmQA5Mrgi1L_10empack_lib11application6config11default_fns9log_level
FNDA:1,_RNvMs_NtNtCshmQA5Mrgi1L_10empack_lib11application6configNtB4_9AppConfig10merge_with
FNDA:0,_RNvMs_NtNtCshmQA5Mrgi1L_10empack_lib11application6configNtB4_9AppConfig16to_logger_config
FNDA:0,_RNvMs_NtNtCshmQA5Mrgi1L_10empack_lib11application6configNtB4_9AppConfig8validate
FNDA:17,_RNvXNtNtCshmQA5Mrgi1L_10empack_lib11application6configNtB2_9AppConfigNtNtCsj3QBrvpYeJs_4core7default7Default7default
FNDA:1,_RNvMs_NtNtCs5BmVzKVgC1k_10empack_lib11application6configNtB4_9AppConfig10merge_with
FNDA:98,_RNvXNtNtCs5BmVzKVgC1k_10empack_lib11application6configNtB2_9AppConfigNtNtCsj3QBrvpYeJs_4core7default7Default7default
FNDA:98,_RNvNtNtNtCs5BmVzKVgC1k_10empack_lib11application6config11default_fns10log_format
FNDA:98,_RNvNtNtNtCs5BmVzKVgC1k_10empack_lib11application6config11default_fns10log_output
FNDA:99,_RNvNtNtNtCs5BmVzKVgC1k_10empack_lib11application6config11default_fns11net_timeout
FNDA:99,_RNvNtNtNtCs5BmVzKVgC1k_10empack_lib11application6config11default_fns13cpu_parallels
FNDA:98,_RNvNtNtNtCs5BmVzKVgC1k_10empack_lib11application6config11default_fns22tty_caps_detect_intent
FNDA:99,_RNvNtNtNtCs5BmVzKVgC1k_10empack_lib11application6config11default_fns9log_level
FNDA:0,_RNCNvMs_NtNtCs5BmVzKVgC1k_10empack_lib11application6configNtB6_9AppConfig8validate0Ba_
FNDA:0,_RNvMs_NtNtCs5BmVzKVgC1k_10empack_lib11application6configNtB4_9AppConfig16to_logger_config
FNDA:0,_RNvMs_NtNtCs5BmVzKVgC1k_10empack_lib11application6configNtB4_9AppConfig8validate
FNF:11
FNH:8
DA:26,117
DA:27,117
DA:28,117
DA:30,115
DA:31,115
DA:32,115
DA:34,117
DA:35,117
DA:36,117
DA:38,117
DA:39,117
DA:40,117
DA:42,115
DA:43,115
DA:44,115
DA:46,115
DA:47,115
DA:48,115
DA:106,115
DA:107,115
DA:108,115
DA:109,115
DA:110,115
DA:111,115
DA:112,115
DA:113,115
DA:114,115
DA:115,115
DA:116,115
DA:117,115
DA:118,115
DA:119,115
DA:124,0
DA:125,0
DA:126,0
DA:127,0
DA:128,0
DA:129,0
DA:130,0
DA:131,0
DA:132,0
DA:133,0
DA:134,0
DA:137,2
DA:139,2
DA:140,0
DA:141,2
DA:142,2
DA:143,0
DA:144,2
DA:145,2
DA:146,0
DA:147,2
DA:148,2
DA:149,0
DA:150,2
DA:153,2
DA:154,2
DA:155,2
DA:156,2
DA:157,0
DA:158,2
DA:159,2
DA:160,2
DA:161,2
DA:164,2
DA:165,0
DA:166,2
DA:167,2
DA:168,0
DA:169,2
DA:170,2
DA:171,2
DA:172,2
DA:174,2
DA:175,2
DA:178,0
DA:180,0
DA:181,0
DA:182,0
DA:184,0
DA:186,0
DA:187,0
BRF:0
BRH:0
LF:84
LH:58
end_of_record
SF:/Users/zer0cell/production/empack/crates/empack-lib/src/application/env.rs
FN:26,_RNCNvMNtNtCshmQA5Mrgi1L_10empack_lib11application3envNtB4_17EnvironmentConfig4load0B8_
FN:32,_RNvMNtNtCshmQA5Mrgi1L_10empack_lib11application3envNtB2_17EnvironmentConfig18apply_color_config
FN:24,_RNvMNtNtCshmQA5Mrgi1L_10empack_lib11application3envNtB2_17EnvironmentConfig4load
FN:26,_RNCNvMNtNtCs5BmVzKVgC1k_10empack_lib11application3envNtB4_17EnvironmentConfig4load0B8_
FN:32,_RNvMNtNtCs5BmVzKVgC1k_10empack_lib11application3envNtB2_17EnvironmentConfig18apply_color_config
FN:24,_RNvMNtNtCs5BmVzKVgC1k_10empack_lib11application3envNtB2_17EnvironmentConfig4load
FNDA:0,_RNCNvMNtNtCshmQA5Mrgi1L_10empack_lib11application3envNtB4_17EnvironmentConfig4load0B8_
FNDA:0,_RNvMNtNtCshmQA5Mrgi1L_10empack_lib11application3envNtB2_17EnvironmentConfig18apply_color_config
FNDA:0,_RNvMNtNtCshmQA5Mrgi1L_10empack_lib11application3envNtB2_17EnvironmentConfig4load
FNDA:0,_RNCNvMNtNtCs5BmVzKVgC1k_10empack_lib11application3envNtB4_17EnvironmentConfig4load0B8_
FNDA:6,_RNvMNtNtCs5BmVzKVgC1k_10empack_lib11application3envNtB2_17EnvironmentConfig18apply_color_config
FNDA:6,_RNvMNtNtCs5BmVzKVgC1k_10empack_lib11application3envNtB2_17EnvironmentConfig4load
FNF:3
FNH:2
DA:24,6
DA:26,6
DA:27,6
DA:32,6
DA:33,6
DA:34,6
DA:35,6
DA:37,6
DA:38,1
DA:39,5
DA:42,5
DA:43,1
DA:44,1
DA:45,1
DA:46,4
DA:49,5
DA:50,3
DA:51,2
DA:52,2
DA:53,2
DA:56,5
DA:57,3
DA:58,3
DA:59,3
DA:60,1
DA:62,2
DA:64,5
DA:65,6
BRF:0
BRH:0
LF:29
LH:28
end_of_record
SF:/Users/zer0cell/production/empack/crates/empack-lib/src/application/env.test.rs
FN:5,_RNvNtNtNtCs5BmVzKVgC1k_10empack_lib11application3env5tests14clean_test_env
FN:63,_RNvNtNtNtCs5BmVzKVgC1k_10empack_lib11application3env5testss_28test_ci_environment_variable
FN:77,_RNvNtNtNtCs5BmVzKVgC1k_10empack_lib11application3env5testss_30test_empty_no_color_is_ignored
FN:15,_RNvNtNtNtCs5BmVzKVgC1k_10empack_lib11application3env5testss_34test_no_color_environment_variable
FN:43,_RNvNtNtNtCs5BmVzKVgC1k_10empack_lib11application3env5testss_36test_environment_variable_precedence
FN:29,_RNvNtNtNtCs5BmVzKVgC1k_10empack_lib11application3env5testss_37test_force_color_environment_variable
FN:91,_RNvNtNtNtCs5BmVzKVgC1k_10empack_lib11application3env5testss_39test_invalid_force_color_values_ignored
FNDA:12,_RNvNtNtNtCs5BmVzKVgC1k_10empack_lib11application3env5tests14clean_test_env
FNDA:1,_RNvNtNtNtCs5BmVzKVgC1k_10empack_lib11application3env5testss_28test_ci_environment_variable
FNDA:1,_RNvNtNtNtCs5BmVzKVgC1k_10empack_lib11application3env5testss_30test_empty_no_color_is_ignored
FNDA:1,_RNvNtNtNtCs5BmVzKVgC1k_10empack_lib11application3env5testss_34test_no_color_environment_variable
FNDA:1,_RNvNtNtNtCs5BmVzKVgC1k_10empack_lib11application3env5testss_36test_environment_variable_precedence
FNDA:1,_RNvNtNtNtCs5BmVzKVgC1k_10empack_lib11application3env5testss_37test_force_color_environment_variable
FNDA:1,_RNvNtNtNtCs5BmVzKVgC1k_10empack_lib11application3env5testss_39test_invalid_force_color_values_ignored
FNF:7
FNH:7
DA:5,12
DA:6,12
DA:7,12
DA:8,12
DA:9,12
DA:10,12
DA:11,12
DA:12,12
DA:15,1
DA:16,1
DA:17,1
DA:18,1
DA:19,1
DA:21,1
DA:22,1
DA:23,1
DA:25,1
DA:26,1
DA:29,1
DA:30,1
DA:31,1
DA:32,1
DA:33,1
DA:35,1
DA:36,1
DA:37,1
DA:39,1
DA:40,1
DA:43,1
DA:44,1
DA:47,1
DA:48,1
DA:49,1
DA:50,1
DA:51,1
DA:53,1
DA:54,1
DA:57,1
DA:59,1
DA:60,1
DA:63,1
DA:64,1
DA:65,1
DA:66,1
DA:67,1
DA:69,1
DA:70,1
DA:71,1
DA:73,1
DA:74,1
DA:77,1
DA:78,1
DA:79,1
DA:80,1
DA:81,1
DA:83,1
DA:84,1
DA:85,1
DA:87,1
DA:88,1
DA:91,1
DA:92,1
DA:93,1
DA:94,1
DA:95,1
DA:97,1
DA:98,1
DA:99,1
DA:101,1
DA:102,1
BRF:0
BRH:0
LF:70
LH:70
end_of_record
SF:/Users/zer0cell/production/empack/crates/empack-lib/src/application/loader.rs
FN:51,_RNvMNtNtCshmQA5Mrgi1L_10empack_lib11application6loaderNtNtB4_6config9AppConfig11init_global
FN:16,_RNvMNtNtCshmQA5Mrgi1L_10empack_lib11application6loaderNtNtB4_6config9AppConfig4load
FN:58,_RNvMNtNtCshmQA5Mrgi1L_10empack_lib11application6loaderNtNtB4_6config9AppConfig6global
FN:51,_RNvMNtNtCs5BmVzKVgC1k_10empack_lib11application6loaderNtNtB4_6config9AppConfig11init_global
FN:16,_RNvMNtNtCs5BmVzKVgC1k_10empack_lib11application6loaderNtNtB4_6config9AppConfig4load
FN:58,_RNvMNtNtCs5BmVzKVgC1k_10empack_lib11application6loaderNtNtB4_6config9AppConfig6global
FNDA:0,_RNvMNtNtCshmQA5Mrgi1L_10empack_lib11application6loaderNtNtB4_6config9AppConfig11init_global
FNDA:0,_RNvMNtNtCshmQA5Mrgi1L_10empack_lib11application6loaderNtNtB4_6config9AppConfig4load
FNDA:0,_RNvMNtNtCshmQA5Mrgi1L_10empack_lib11application6loaderNtNtB4_6config9AppConfig6global
FNDA:0,_RNvMNtNtCs5BmVzKVgC1k_10empack_lib11application6loaderNtNtB4_6config9AppConfig11init_global
FNDA:0,_RNvMNtNtCs5BmVzKVgC1k_10empack_lib11application6loaderNtNtB4_6config9AppConfig4load
FNDA:0,_RNvMNtNtCs5BmVzKVgC1k_10empack_lib11application6loaderNtNtB4_6config9AppConfig6global
FNF:3
FNH:0
DA:16,0
DA:20,0
DA:23,0
DA:24,0
DA:25,0
DA:27,0
DA:28,0
DA:29,0
DA:30,0
DA:31,0
DA:32,0
DA:33,0
DA:37,0
DA:38,0
DA:41,0
DA:42,0
DA:45,0
DA:47,0
DA:48,0
DA:51,0
DA:52,0
DA:53,0
DA:54,0
DA:55,0
DA:58,0
DA:59,0
DA:60,0
DA:61,0
DA:62,0
BRF:0
BRH:0
LF:29
LH:0
end_of_record
SF:/Users/zer0cell/production/empack/crates/empack-lib/src/application/loader.test.rs
FN:13,_RNvNtNtNtCs5BmVzKVgC1k_10empack_lib11application6loader5testss_19test_config_merging
FN:5,_RNvNtNtNtCs5BmVzKVgC1k_10empack_lib11application6loader5testss_28test_config_loading_defaults
FNDA:1,_RNvNtNtNtCs5BmVzKVgC1k_10empack_lib11application6loader5testss_19test_config_merging
FNDA:1,_RNvNtNtNtCs5BmVzKVgC1k_10empack_lib11application6loader5testss_28test_config_loading_defaults
FNF:2
FNH:2
DA:5,1
DA:6,1
DA:7,1
DA:8,1
DA:9,1
DA:10,1
DA:13,1
DA:14,1
DA:15,1
DA:16,1
DA:17,1
DA:18,1
DA:19,1
DA:20,1
DA:22,1
DA:23,1
DA:24,1
DA:25,1
DA:26,1
DA:27,1
BRF:0
BRH:0
LF:20
LH:20
end_of_record
SF:/Users/zer0cell/production/empack/crates/empack-lib/src/application/session.rs
FN:833,_RNCNvXs7_NtNtCshmQA5Mrgi1L_10empack_lib11application7sessionINtB7_14CommandSessionNtB7_22LiveFileSystemProviderNtB7_19LiveNetworkProviderNtNtB9_13session_mocks19MockProcessProviderNtB7_18LiveConfigProviderENtB7_7Session5state0Csbc2rGA5VZid_11add_command
FN:779,_RNvMs6_NtNtCshmQA5Mrgi1L_10empack_lib11application7sessionINtB5_14CommandSessionNtB5_22LiveFileSystemProviderNtB5_19LiveNetworkProviderNtNtB7_13session_mocks19MockProcessProviderNtB5_18LiveConfigProviderE10filesystemCsbc2rGA5VZid_11add_command
FN:754,_RNvMs6_NtNtCshmQA5Mrgi1L_10empack_lib11application7sessionINtB5_14CommandSessionNtB5_22LiveFileSystemProviderNtB5_19LiveNetworkProviderNtNtB7_13session_mocks19MockProcessProviderNtB5_18LiveConfigProviderE18new_with_providersCsbc2rGA5VZid_11add_command
FN:794,_RNvMs6_NtNtCshmQA5Mrgi1L_10empack_lib11application7sessionINtB5_14CommandSessionNtB5_22LiveFileSystemProviderNtB5_19LiveNetworkProviderNtNtB7_13session_mocks19MockProcessProviderNtB5_18LiveConfigProviderE6configCsbc2rGA5VZid_11add_command
FN:810,_RNvXs7_NtNtCshmQA5Mrgi1L_10empack_lib11application7sessionINtB5_14CommandSessionNtB5_22LiveFileSystemProviderNtB5_19LiveNetworkProviderNtNtB7_13session_mocks19MockProcessProviderNtB5_18LiveConfigProviderENtB5_7Session10filesystemCsbc2rGA5VZid_11add_command
FN:826,_RNvXs7_NtNtCshmQA5Mrgi1L_10empack_lib11application7sessionINtB5_14CommandSessionNtB5_22LiveFileSystemProviderNtB5_19LiveNetworkProviderNtNtB7_13session_mocks19MockProcessProviderNtB5_18LiveConfigProviderENtB5_7Session5stateCsbc2rGA5VZid_11add_command
FN:822,_RNvXs7_NtNtCshmQA5Mrgi1L_10empack_lib11application7sessionINtB5_14CommandSessionNtB5_22LiveFileSystemProviderNtB5_19LiveNetworkProviderNtNtB7_13session_mocks19MockProcessProviderNtB5_18LiveConfigProviderENtB5_7Session6configCsbc2rGA5VZid_11add_command
FN:806,_RNvXs7_NtNtCshmQA5Mrgi1L_10empack_lib11application7sessionINtB5_14CommandSessionNtB5_22LiveFileSystemProviderNtB5_19LiveNetworkProviderNtNtB7_13session_mocks19MockProcessProviderNtB5_18LiveConfigProviderENtB5_7Session7displayCsbc2rGA5VZid_11add_command
FN:814,_RNvXs7_NtNtCshmQA5Mrgi1L_10empack_lib11application7sessionINtB5_14CommandSessionNtB5_22LiveFileSystemProviderNtB5_19LiveNetworkProviderNtNtB7_13session_mocks19MockProcessProviderNtB5_18LiveConfigProviderENtB5_7Session7networkCsbc2rGA5VZid_11add_command
FN:818,_RNvXs7_NtNtCshmQA5Mrgi1L_10empack_lib11application7sessionINtB5_14CommandSessionNtB5_22LiveFileSystemProviderNtB5_19LiveNetworkProviderNtNtB7_13session_mocks19MockProcessProviderNtB5_18LiveConfigProviderENtB5_7Session7processCsbc2rGA5VZid_11add_command
FN:833,_RNCNvXININtNtCshmQA5Mrgi1L_10empack_lib11application7sessions7_0ppppEINtB7_14CommandSessionppppENtB7_7Session5state0Bb_
FN:574,_RNvMs1_NtNtCshmQA5Mrgi1L_10empack_lib11application7sessionNtB5_19LiveProcessProvider12get_path_env
FN:779,_RNvMs6_NtNtCshmQA5Mrgi1L_10empack_lib11application7sessionINtB5_14CommandSessionppppE10filesystemB9_
FN:754,_RNvMs6_NtNtCshmQA5Mrgi1L_10empack_lib11application7sessionINtB5_14CommandSessionppppE18new_with_providersB9_
FN:794,_RNvMs6_NtNtCshmQA5Mrgi1L_10empack_lib11application7sessionINtB5_14CommandSessionppppE6configB9_
FN:774,_RNvMs6_NtNtCshmQA5Mrgi1L_10empack_lib11application7sessionINtB5_14CommandSessionppppE7displayB9_
FN:784,_RNvMs6_NtNtCshmQA5Mrgi1L_10empack_lib11application7sessionINtB5_14CommandSessionppppE7networkB9_
FN:789,_RNvMs6_NtNtCshmQA5Mrgi1L_10empack_lib11application7sessionINtB5_14CommandSessionppppE7processB9_
FN:810,_RNvXININtNtCshmQA5Mrgi1L_10empack_lib11application7sessions7_0ppppEINtB5_14CommandSessionppppENtB5_7Session10filesystemB9_
FN:826,_RNvXININtNtCshmQA5Mrgi1L_10empack_lib11application7sessions7_0ppppEINtB5_14CommandSessionppppENtB5_7Session5stateB9_
FN:822,_RNvXININtNtCshmQA5Mrgi1L_10empack_lib11application7sessions7_0ppppEINtB5_14CommandSessionppppENtB5_7Session6configB9_
FN:806,_RNvXININtNtCshmQA5Mrgi1L_10empack_lib11application7sessions7_0ppppEINtB5_14CommandSessionppppENtB5_7Session7displayB9_
FN:814,_RNvXININtNtCshmQA5Mrgi1L_10empack_lib11application7sessions7_0ppppEINtB5_14CommandSessionppppENtB5_7Session7networkB9_
FN:818,_RNvXININtNtCshmQA5Mrgi1L_10empack_lib11application7sessions7_0ppppEINtB5_14CommandSessionppppENtB5_7Session7processB9_
FN:206,_RNCNvXNtNtCshmQA5Mrgi1L_10empack_lib11application7sessionNtB4_22LiveFileSystemProviderNtB4_18FileSystemProvider10write_file0B8_
FN:219,_RNCNvXNtNtCshmQA5Mrgi1L_10empack_lib11application7sessionNtB4_22LiveFileSystemProviderNtB4_18FileSystemProvider14create_dir_all0B8_
FN:201,_RNCNvXNtNtCshmQA5Mrgi1L_10empack_lib11application7sessionNtB4_22LiveFileSystemProviderNtB4_18FileSystemProvider14read_to_string0B8_
FN:395,_RNCNvXNtNtCshmQA5Mrgi1L_10empack_lib11application7sessionNtB4_22LiveFileSystemProviderNtB4_18FileSystemProvider16run_packwiz_init0B8_
FN:260,_RNCNvXNtNtCshmQA5Mrgi1L_10empack_lib11application7sessionNtB4_22LiveFileSystemProviderNtB4_18FileSystemProvider19has_build_artifacts0B8_
FN:432,_RNCNvXNtNtCshmQA5Mrgi1L_10empack_lib11application7sessionNtB4_22LiveFileSystemProviderNtB4_18FileSystemProvider19run_packwiz_refresh0B8_
FN:619,_RNCNvXs2_NtNtCshmQA5Mrgi1L_10empack_lib11application7sessionNtB7_19LiveProcessProviderNtB7_15ProcessProvider13check_packwiz0Bb_
FN:596,_RNCNvXs2_NtNtCshmQA5Mrgi1L_10empack_lib11application7sessionNtB7_19LiveProcessProviderNtB7_15ProcessProvider7execute0Bb_
FN:562,_RNvMs1_NtNtCshmQA5Mrgi1L_10empack_lib11application7sessionNtB5_19LiveProcessProvider12new_for_test
FN:555,_RNvMs1_NtNtCshmQA5Mrgi1L_10empack_lib11application7sessionNtB5_19LiveProcessProvider16with_custom_path
FN:550,_RNvMs1_NtNtCshmQA5Mrgi1L_10empack_lib11application7sessionNtB5_19LiveProcessProvider3new
FN:681,_RNvMs3_NtNtCshmQA5Mrgi1L_10empack_lib11application7sessionNtB5_18LiveConfigProvider3new
FN:723,_RNvMs5_NtNtCshmQA5Mrgi1L_10empack_lib11application7sessionINtB5_14CommandSessionNtB5_22LiveFileSystemProviderNtB5_19LiveNetworkProviderNtB5_19LiveProcessProviderNtB5_18LiveConfigProviderE3new
FN:487,_RNvMs_NtNtCshmQA5Mrgi1L_10empack_lib11application7sessionNtB4_19LiveNetworkProvider12new_for_test
FN:476,_RNvMs_NtNtCshmQA5Mrgi1L_10empack_lib11application7sessionNtB4_19LiveNetworkProvider3new
FN:204,_RNvXNtNtCshmQA5Mrgi1L_10empack_lib11application7sessionNtB2_22LiveFileSystemProviderNtB2_18FileSystemProvider10write_file
FN:146,_RNvXNtNtCshmQA5Mrgi1L_10empack_lib11application7sessionNtB2_22LiveFileSystemProviderNtB2_18FileSystemProvider11current_dir
FN:274,_RNvXNtNtCshmQA5Mrgi1L_10empack_lib11application7sessionNtB2_22LiveFileSystemProviderNtB2_18FileSystemProvider11remove_file
FN:213,_RNvXNtNtCshmQA5Mrgi1L_10empack_lib11application7sessionNtB2_22LiveFileSystemProviderNtB2_18FileSystemProvider12is_directory
FN:222,_RNvXNtNtCshmQA5Mrgi1L_10empack_lib11application7sessionNtB2_22LiveFileSystemProviderNtB2_18FileSystemProvider13get_file_list
FN:195,_RNvXNtNtCshmQA5Mrgi1L_10empack_lib11application7sessionNtB2_22LiveFileSystemProviderNtB2_18FileSystemProvider14config_manager
FN:217,_RNvXNtNtCshmQA5Mrgi1L_10empack_lib11application7sessionNtB2_22LiveFileSystemProviderNtB2_18FileSystemProvider14create_dir_all
FN:199,_RNvXNtNtCshmQA5Mrgi1L_10empack_lib11application7sessionNtB2_22LiveFileSystemProviderNtB2_18FileSystemProvider14read_to_string
FN:278,_RNvXNtNtCshmQA5Mrgi1L_10empack_lib11application7sessionNtB2_22LiveFileSystemProviderNtB2_18FileSystemProvider14remove_dir_all
FN:282,_RNvXNtNtCshmQA5Mrgi1L_10empack_lib11application7sessionNtB2_22LiveFileSystemProviderNtB2_18FileSystemProvider16run_packwiz_init
FN:152,_RNvXNtNtCshmQA5Mrgi1L_10empack_lib11application7sessionNtB2_22LiveFileSystemProviderNtB2_18FileSystemProvider18get_installed_mods
FN:238,_RNvXNtNtCshmQA5Mrgi1L_10empack_lib11application7sessionNtB2_22LiveFileSystemProviderNtB2_18FileSystemProvider19has_build_artifacts
FN:408,_RNvXNtNtCshmQA5Mrgi1L_10empack_lib11application7sessionNtB2_22LiveFileSystemProviderNtB2_18FileSystemProvider19run_packwiz_refresh
FN:445,_RNvXNtNtCshmQA5Mrgi1L_10empack_lib11application7sessionNtB2_22LiveFileSystemProviderNtB2_18FileSystemProvider28get_bootstrap_jar_cache_path
FN:209,_RNvXNtNtCshmQA5Mrgi1L_10empack_lib11application7sessionNtB2_22LiveFileSystemProviderNtB2_18FileSystemProvider6exists
FN:513,_RNvXs0_NtNtCshmQA5Mrgi1L_10empack_lib11application7sessionNtB5_19LiveNetworkProviderNtB5_15NetworkProvider11http_client
FN:520,_RNvXs0_NtNtCshmQA5Mrgi1L_10empack_lib11application7sessionNtB5_19LiveNetworkProviderNtB5_15NetworkProvider16project_resolver
FN:605,_RNvXs2_NtNtCshmQA5Mrgi1L_10empack_lib11application7sessionNtB5_19LiveProcessProviderNtB5_15ProcessProvider13check_packwiz
FN:626,_RNvXs2_NtNtCshmQA5Mrgi1L_10empack_lib11application7sessionNtB5_19LiveProcessProviderNtB5_15ProcessProvider19get_packwiz_version
FN:583,_RNvXs2_NtNtCshmQA5Mrgi1L_10empack_lib11application7sessionNtB5_19LiveProcessProviderNtB5_15ProcessProvider7execute
FN:687,_RNvXs4_NtNtCshmQA5Mrgi1L_10empack_lib11application7sessionNtB5_18LiveConfigProviderNtB5_14ConfigProvider10app_config
FN:833,_RNCNvXs7_NtNtCshmQA5Mrgi1L_10empack_lib11application7sessionINtB7_14CommandSessionNtB7_22LiveFileSystemProviderNtB7_19LiveNetworkProviderNtB7_19LiveProcessProviderNtB7_18LiveConfigProviderENtB7_7Session5state0Cs8uoVYB8rq8D_17build_client_full
FN:779,_RNvMs6_NtNtCshmQA5Mrgi1L_10empack_lib11application7sessionINtB5_14CommandSessionNtB5_22LiveFileSystemProviderNtB5_19LiveNetworkProviderNtB5_19LiveProcessProviderNtB5_18LiveConfigProviderE10filesystemCs8uoVYB8rq8D_17build_client_full
FN:754,_RNvMs6_NtNtCshmQA5Mrgi1L_10empack_lib11application7sessionINtB5_14CommandSessionNtB5_22LiveFileSystemProviderNtB5_19LiveNetworkProviderNtB5_19LiveProcessProviderNtB5_18LiveConfigProviderE18new_with_providersCs8uoVYB8rq8D_17build_client_full
FN:794,_RNvMs6_NtNtCshmQA5Mrgi1L_10empack_lib11application7sessionINtB5_14CommandSessionNtB5_22LiveFileSystemProviderNtB5_19LiveNetworkProviderNtB5_19LiveProcessProviderNtB5_18LiveConfigProviderE6configCs8uoVYB8rq8D_17build_client_full
FN:810,_RNvXs7_NtNtCshmQA5Mrgi1L_10empack_lib11application7sessionINtB5_14CommandSessionNtB5_22LiveFileSystemProviderNtB5_19LiveNetworkProviderNtB5_19LiveProcessProviderNtB5_18LiveConfigProviderENtB5_7Session10filesystemCs8uoVYB8rq8D_17build_client_full
FN:826,_RNvXs7_NtNtCshmQA5Mrgi1L_10empack_lib11application7sessionINtB5_14CommandSessionNtB5_22LiveFileSystemProviderNtB5_19LiveNetworkProviderNtB5_19LiveProcessProviderNtB5_18LiveConfigProviderENtB5_7Session5stateCs8uoVYB8rq8D_17build_client_full
FN:822,_RNvXs7_NtNtCshmQA5Mrgi1L_10empack_lib11application7sessionINtB5_14CommandSessionNtB5_22LiveFileSystemProviderNtB5_19LiveNetworkProviderNtB5_19LiveProcessProviderNtB5_18LiveConfigProviderENtB5_7Session6configCs8uoVYB8rq8D_17build_client_full
FN:806,_RNvXs7_NtNtCshmQA5Mrgi1L_10empack_lib11application7sessionINtB5_14CommandSessionNtB5_22LiveFileSystemProviderNtB5_19LiveNetworkProviderNtB5_19LiveProcessProviderNtB5_18LiveConfigProviderENtB5_7Session7displayCs8uoVYB8rq8D_17build_client_full
FN:814,_RNvXs7_NtNtCshmQA5Mrgi1L_10empack_lib11application7sessionINtB5_14CommandSessionNtB5_22LiveFileSystemProviderNtB5_19LiveNetworkProviderNtB5_19LiveProcessProviderNtB5_18LiveConfigProviderENtB5_7Session7networkCs8uoVYB8rq8D_17build_client_full
FN:818,_RNvXs7_NtNtCshmQA5Mrgi1L_10empack_lib11application7sessionINtB5_14CommandSessionNtB5_22LiveFileSystemProviderNtB5_19LiveNetworkProviderNtB5_19LiveProcessProviderNtB5_18LiveConfigProviderENtB5_7Session7processCs8uoVYB8rq8D_17build_client_full
FN:833,_RNCNvXs7_NtNtCshmQA5Mrgi1L_10empack_lib11application7sessionINtB7_14CommandSessionNtB7_22LiveFileSystemProviderNtB7_19LiveNetworkProviderNtB7_19LiveProcessProviderNtB7_18LiveConfigProviderENtB7_7Session5state0Csj8HZQhsijMc_12build_server
FN:779,_RNvMs6_NtNtCshmQA5Mrgi1L_10empack_lib11application7sessionINtB5_14CommandSessionNtB5_22LiveFileSystemProviderNtB5_19LiveNetworkProviderNtB5_19LiveProcessProviderNtB5_18LiveConfigProviderE10filesystemCsj8HZQhsijMc_12build_server
FN:754,_RNvMs6_NtNtCshmQA5Mrgi1L_10empack_lib11application7sessionINtB5_14CommandSessionNtB5_22LiveFileSystemProviderNtB5_19LiveNetworkProviderNtB5_19LiveProcessProviderNtB5_18LiveConfigProviderE18new_with_providersCsj8HZQhsijMc_12build_server
FN:794,_RNvMs6_NtNtCshmQA5Mrgi1L_10empack_lib11application7sessionINtB5_14CommandSessionNtB5_22LiveFileSystemProviderNtB5_19LiveNetworkProviderNtB5_19LiveProcessProviderNtB5_18LiveConfigProviderE6configCsj8HZQhsijMc_12build_server
FN:810,_RNvXs7_NtNtCshmQA5Mrgi1L_10empack_lib11application7sessionINtB5_14CommandSessionNtB5_22LiveFileSystemProviderNtB5_19LiveNetworkProviderNtB5_19LiveProcessProviderNtB5_18LiveConfigProviderENtB5_7Session10filesystemCsj8HZQhsijMc_12build_server
FN:826,_RNvXs7_NtNtCshmQA5Mrgi1L_10empack_lib11application7sessionINtB5_14CommandSessionNtB5_22LiveFileSystemProviderNtB5_19LiveNetworkProviderNtB5_19LiveProcessProviderNtB5_18LiveConfigProviderENtB5_7Session5stateCsj8HZQhsijMc_12build_server
FN:822,_RNvXs7_NtNtCshmQA5Mrgi1L_10empack_lib11application7sessionINtB5_14CommandSessionNtB5_22LiveFileSystemProviderNtB5_19LiveNetworkProviderNtB5_19LiveProcessProviderNtB5_18LiveConfigProviderENtB5_7Session6configCsj8HZQhsijMc_12build_server
FN:806,_RNvXs7_NtNtCshmQA5Mrgi1L_10empack_lib11application7sessionINtB5_14CommandSessionNtB5_22LiveFileSystemProviderNtB5_19LiveNetworkProviderNtB5_19LiveProcessProviderNtB5_18LiveConfigProviderENtB5_7Session7displayCsj8HZQhsijMc_12build_server
FN:814,_RNvXs7_NtNtCshmQA5Mrgi1L_10empack_lib11application7sessionINtB5_14CommandSessionNtB5_22LiveFileSystemProviderNtB5_19LiveNetworkProviderNtB5_19LiveProcessProviderNtB5_18LiveConfigProviderENtB5_7Session7networkCsj8HZQhsijMc_12build_server
FN:818,_RNvXs7_NtNtCshmQA5Mrgi1L_10empack_lib11application7sessionINtB5_14CommandSessionNtB5_22LiveFileSystemProviderNtB5_19LiveNetworkProviderNtB5_19LiveProcessProviderNtB5_18LiveConfigProviderENtB5_7Session7processCsj8HZQhsijMc_12build_server
FN:833,_RNCNvXs7_NtNtCshmQA5Mrgi1L_10empack_lib11application7sessionINtB7_14CommandSessionNtB7_22LiveFileSystemProviderNtB7_19LiveNetworkProviderNtB7_19LiveProcessProviderNtB7_18LiveConfigProviderENtB7_7Session5state0CsdrRwdeEzguW_17build_server_full
FN:779,_RNvMs6_NtNtCshmQA5Mrgi1L_10empack_lib11application7sessionINtB5_14CommandSessionNtB5_22LiveFileSystemProviderNtB5_19LiveNetworkProviderNtB5_19LiveProcessProviderNtB5_18LiveConfigProviderE10filesystemCsdrRwdeEzguW_17build_server_full
FN:754,_RNvMs6_NtNtCshmQA5Mrgi1L_10empack_lib11application7sessionINtB5_14CommandSessionNtB5_22LiveFileSystemProviderNtB5_19LiveNetworkProviderNtB5_19LiveProcessProviderNtB5_18LiveConfigProviderE18new_with_providersCsdrRwdeEzguW_17build_server_full
FN:794,_RNvMs6_NtNtCshmQA5Mrgi1L_10empack_lib11application7sessionINtB5_14CommandSessionNtB5_22LiveFileSystemProviderNtB5_19LiveNetworkProviderNtB5_19LiveProcessProviderNtB5_18LiveConfigProviderE6configCsdrRwdeEzguW_17build_server_full
FN:810,_RNvXs7_NtNtCshmQA5Mrgi1L_10empack_lib11application7sessionINtB5_14CommandSessionNtB5_22LiveFileSystemProviderNtB5_19LiveNetworkProviderNtB5_19LiveProcessProviderNtB5_18LiveConfigProviderENtB5_7Session10filesystemCsdrRwdeEzguW_17build_server_full
FN:826,_RNvXs7_NtNtCshmQA5Mrgi1L_10empack_lib11application7sessionINtB5_14CommandSessionNtB5_22LiveFileSystemProviderNtB5_19LiveNetworkProviderNtB5_19LiveProcessProviderNtB5_18LiveConfigProviderENtB5_7Session5stateCsdrRwdeEzguW_17build_server_full
FN:822,_RNvXs7_NtNtCshmQA5Mrgi1L_10empack_lib11application7sessionINtB5_14CommandSessionNtB5_22LiveFileSystemProviderNtB5_19LiveNetworkProviderNtB5_19LiveProcessProviderNtB5_18LiveConfigProviderENtB5_7Session6configCsdrRwdeEzguW_17build_server_full
FN:806,_RNvXs7_NtNtCshmQA5Mrgi1L_10empack_lib11application7sessionINtB5_14CommandSessionNtB5_22LiveFileSystemProviderNtB5_19LiveNetworkProviderNtB5_19LiveProcessProviderNtB5_18LiveConfigProviderENtB5_7Session7displayCsdrRwdeEzguW_17build_server_full
FN:814,_RNvXs7_NtNtCshmQA5Mrgi1L_10empack_lib11application7sessionINtB5_14CommandSessionNtB5_22LiveFileSystemProviderNtB5_19LiveNetworkProviderNtB5_19LiveProcessProviderNtB5_18LiveConfigProviderENtB5_7Session7networkCsdrRwdeEzguW_17build_server_full
FN:818,_RNvXs7_NtNtCshmQA5Mrgi1L_10empack_lib11application7sessionINtB5_14CommandSessionNtB5_22LiveFileSystemProviderNtB5_19LiveNetworkProviderNtB5_19LiveProcessProviderNtB5_18LiveConfigProviderENtB5_7Session7processCsdrRwdeEzguW_17build_server_full
FN:833,_RNCNvXININtNtCs5BmVzKVgC1k_10empack_lib11application7sessions7_0ppppEINtB7_14CommandSessionppppENtB7_7Session5state0Bb_
FN:206,_RNCNvXNtNtCs5BmVzKVgC1k_10empack_lib11application7sessionNtB4_22LiveFileSystemProviderNtB4_18FileSystemProvider10write_file0B8_
FN:219,_RNCNvXNtNtCs5BmVzKVgC1k_10empack_lib11application7sessionNtB4_22LiveFileSystemProviderNtB4_18FileSystemProvider14create_dir_all0B8_
FN:201,_RNCNvXNtNtCs5BmVzKVgC1k_10empack_lib11application7sessionNtB4_22LiveFileSystemProviderNtB4_18FileSystemProvider14read_to_string0B8_
FN:298,_RNCNvXNtNtCs5BmVzKVgC1k_10empack_lib11application7sessionNtB4_22LiveFileSystemProviderNtB4_18FileSystemProvider16run_packwiz_init0B8_
FN:332,_RNCNvXNtNtCs5BmVzKVgC1k_10empack_lib11application7sessionNtB4_22LiveFileSystemProviderNtB4_18FileSystemProvider16run_packwiz_inits0_0B8_
FN:321,_RNCNvXNtNtCs5BmVzKVgC1k_10empack_lib11application7sessionNtB4_22LiveFileSystemProviderNtB4_18FileSystemProvider16run_packwiz_inits_0B8_
FN:260,_RNCNvXNtNtCs5BmVzKVgC1k_10empack_lib11application7sessionNtB4_22LiveFileSystemProviderNtB4_18FileSystemProvider19has_build_artifacts0B8_
FN:619,_RNCNvXs2_NtNtCs5BmVzKVgC1k_10empack_lib11application7sessionNtB7_19LiveProcessProviderNtB7_15ProcessProvider13check_packwiz0Bb_
FN:596,_RNCNvXs2_NtNtCs5BmVzKVgC1k_10empack_lib11application7sessionNtB7_19LiveProcessProviderNtB7_15ProcessProvider7execute0Bb_
FN:574,_RNvMs1_NtNtCs5BmVzKVgC1k_10empack_lib11application7sessionNtB5_19LiveProcessProvider12get_path_env
FN:562,_RNvMs1_NtNtCs5BmVzKVgC1k_10empack_lib11application7sessionNtB5_19LiveProcessProvider12new_for_test
FN:555,_RNvMs1_NtNtCs5BmVzKVgC1k_10empack_lib11application7sessionNtB5_19LiveProcessProvider16with_custom_path
FN:550,_RNvMs1_NtNtCs5BmVzKVgC1k_10empack_lib11application7sessionNtB5_19LiveProcessProvider3new
FN:681,_RNvMs3_NtNtCs5BmVzKVgC1k_10empack_lib11application7sessionNtB5_18LiveConfigProvider3new
FN:723,_RNvMs5_NtNtCs5BmVzKVgC1k_10empack_lib11application7sessionINtB5_14CommandSessionNtB5_22LiveFileSystemProviderNtB5_19LiveNetworkProviderNtB5_19LiveProcessProviderNtB5_18LiveConfigProviderE3new
FN:779,_RNvMs6_NtNtCs5BmVzKVgC1k_10empack_lib11application7sessionINtB5_14CommandSessionppppE10filesystemB9_
FN:754,_RNvMs6_NtNtCs5BmVzKVgC1k_10empack_lib11application7sessionINtB5_14CommandSessionppppE18new_with_providersB9_
FN:794,_RNvMs6_NtNtCs5BmVzKVgC1k_10empack_lib11application7sessionINtB5_14CommandSessionppppE6configB9_
FN:774,_RNvMs6_NtNtCs5BmVzKVgC1k_10empack_lib11application7sessionINtB5_14CommandSessionppppE7displayB9_
FN:784,_RNvMs6_NtNtCs5BmVzKVgC1k_10empack_lib11application7sessionINtB5_14CommandSessionppppE7networkB9_
FN:789,_RNvMs6_NtNtCs5BmVzKVgC1k_10empack_lib11application7sessionINtB5_14CommandSessionppppE7processB9_
FN:487,_RNvMs_NtNtCs5BmVzKVgC1k_10empack_lib11application7sessionNtB4_19LiveNetworkProvider12new_for_test
FN:476,_RNvMs_NtNtCs5BmVzKVgC1k_10empack_lib11application7sessionNtB4_19LiveNetworkProvider3new
FN:810,_RNvXININtNtCs5BmVzKVgC1k_10empack_lib11application7sessions7_0ppppEINtB5_14CommandSessionppppENtB5_7Session10filesystemB9_
FN:826,_RNvXININtNtCs5BmVzKVgC1k_10empack_lib11application7sessions7_0ppppEINtB5_14CommandSessionppppENtB5_7Session5stateB9_
FN:822,_RNvXININtNtCs5BmVzKVgC1k_10empack_lib11application7sessions7_0ppppEINtB5_14CommandSessionppppENtB5_7Session6configB9_
FN:806,_RNvXININtNtCs5BmVzKVgC1k_10empack_lib11application7sessions7_0ppppEINtB5_14CommandSessionppppENtB5_7Session7displayB9_
FN:814,_RNvXININtNtCs5BmVzKVgC1k_10empack_lib11application7sessions7_0ppppEINtB5_14CommandSessionppppENtB5_7Session7networkB9_
FN:818,_RNvXININtNtCs5BmVzKVgC1k_10empack_lib11application7sessions7_0ppppEINtB5_14CommandSessionppppENtB5_7Session7processB9_
FN:204,_RNvXNtNtCs5BmVzKVgC1k_10empack_lib11application7sessionNtB2_22LiveFileSystemProviderNtB2_18FileSystemProvider10write_file
FN:146,_RNvXNtNtCs5BmVzKVgC1k_10empack_lib11application7sessionNtB2_22LiveFileSystemProviderNtB2_18FileSystemProvider11current_dir
FN:274,_RNvXNtNtCs5BmVzKVgC1k_10empack_lib11application7sessionNtB2_22LiveFileSystemProviderNtB2_18FileSystemProvider11remove_file
FN:213,_RNvXNtNtCs5BmVzKVgC1k_10empack_lib11application7sessionNtB2_22LiveFileSystemProviderNtB2_18FileSystemProvider12is_directory
FN:222,_RNvXNtNtCs5BmVzKVgC1k_10empack_lib11application7sessionNtB2_22LiveFileSystemProviderNtB2_18FileSystemProvider13get_file_list
FN:195,_RNvXNtNtCs5BmVzKVgC1k_10empack_lib11application7sessionNtB2_22LiveFileSystemProviderNtB2_18FileSystemProvider14config_manager
FN:217,_RNvXNtNtCs5BmVzKVgC1k_10empack_lib11application7sessionNtB2_22LiveFileSystemProviderNtB2_18FileSystemProvider14create_dir_all
FN:199,_RNvXNtNtCs5BmVzKVgC1k_10empack_lib11application7sessionNtB2_22LiveFileSystemProviderNtB2_18FileSystemProvider14read_to_string
FN:278,_RNvXNtNtCs5BmVzKVgC1k_10empack_lib11application7sessionNtB2_22LiveFileSystemProviderNtB2_18FileSystemProvider14remove_dir_all
FN:282,_RNvXNtNtCs5BmVzKVgC1k_10empack_lib11application7sessionNtB2_22LiveFileSystemProviderNtB2_18FileSystemProvider16run_packwiz_init
FN:152,_RNvXNtNtCs5BmVzKVgC1k_10empack_lib11application7sessionNtB2_22LiveFileSystemProviderNtB2_18FileSystemProvider18get_installed_mods
FN:238,_RNvXNtNtCs5BmVzKVgC1k_10empack_lib11application7sessionNtB2_22LiveFileSystemProviderNtB2_18FileSystemProvider19has_build_artifacts
FN:408,_RNvXNtNtCs5BmVzKVgC1k_10empack_lib11application7sessionNtB2_22LiveFileSystemProviderNtB2_18FileSystemProvider19run_packwiz_refresh
FN:445,_RNvXNtNtCs5BmVzKVgC1k_10empack_lib11application7sessionNtB2_22LiveFileSystemProviderNtB2_18FileSystemProvider28get_bootstrap_jar_cache_path
FN:209,_RNvXNtNtCs5BmVzKVgC1k_10empack_lib11application7sessionNtB2_22LiveFileSystemProviderNtB2_18FileSystemProvider6exists
FN:513,_RNvXs0_NtNtCs5BmVzKVgC1k_10empack_lib11application7sessionNtB5_19LiveNetworkProviderNtB5_15NetworkProvider11http_client
FN:520,_RNvXs0_NtNtCs5BmVzKVgC1k_10empack_lib11application7sessionNtB5_19LiveNetworkProviderNtB5_15NetworkProvider16project_resolver
FN:605,_RNvXs2_NtNtCs5BmVzKVgC1k_10empack_lib11application7sessionNtB5_19LiveProcessProviderNtB5_15ProcessProvider13check_packwiz
FN:626,_RNvXs2_NtNtCs5BmVzKVgC1k_10empack_lib11application7sessionNtB5_19LiveProcessProviderNtB5_15ProcessProvider19get_packwiz_version
FN:583,_RNvXs2_NtNtCs5BmVzKVgC1k_10empack_lib11application7sessionNtB5_19LiveProcessProviderNtB5_15ProcessProvider7execute
FN:687,_RNvXs4_NtNtCs5BmVzKVgC1k_10empack_lib11application7sessionNtB5_18LiveConfigProviderNtB5_14ConfigProvider10app_config
FN:833,_RNCNvXs7_NtNtCshmQA5Mrgi1L_10empack_lib11application7sessionINtB7_14CommandSessionNtB7_22LiveFileSystemProviderNtNtCs6jbmnWiGXI_12empack_tests8test_env19MockNetworkProviderNtB7_19LiveProcessProviderNtB7_18LiveConfigProviderENtB7_7Session5state0CsaTeXJNQleyZ_12hermetic_e2e
FN:779,_RNvMs6_NtNtCshmQA5Mrgi1L_10empack_lib11application7sessionINtB5_14CommandSessionNtB5_22LiveFileSystemProviderNtNtCs6jbmnWiGXI_12empack_tests8test_env19MockNetworkProviderNtB5_19LiveProcessProviderNtB5_18LiveConfigProviderE10filesystemCsaTeXJNQleyZ_12hermetic_e2e
FN:794,_RNvMs6_NtNtCshmQA5Mrgi1L_10empack_lib11application7sessionINtB5_14CommandSessionNtB5_22LiveFileSystemProviderNtNtCs6jbmnWiGXI_12empack_tests8test_env19MockNetworkProviderNtB5_19LiveProcessProviderNtB5_18LiveConfigProviderE6configCsaTeXJNQleyZ_12hermetic_e2e
FN:810,_RNvXs7_NtNtCshmQA5Mrgi1L_10empack_lib11application7sessionINtB5_14CommandSessionNtB5_22LiveFileSystemProviderNtNtCs6jbmnWiGXI_12empack_tests8test_env19MockNetworkProviderNtB5_19LiveProcessProviderNtB5_18LiveConfigProviderENtB5_7Session10filesystemCsaTeXJNQleyZ_12hermetic_e2e
FN:826,_RNvXs7_NtNtCshmQA5Mrgi1L_10empack_lib11application7sessionINtB5_14CommandSessionNtB5_22LiveFileSystemProviderNtNtCs6jbmnWiGXI_12empack_tests8test_env19MockNetworkProviderNtB5_19LiveProcessProviderNtB5_18LiveConfigProviderENtB5_7Session5stateCsaTeXJNQleyZ_12hermetic_e2e
FN:822,_RNvXs7_NtNtCshmQA5Mrgi1L_10empack_lib11application7sessionINtB5_14CommandSessionNtB5_22LiveFileSystemProviderNtNtCs6jbmnWiGXI_12empack_tests8test_env19MockNetworkProviderNtB5_19LiveProcessProviderNtB5_18LiveConfigProviderENtB5_7Session6configCsaTeXJNQleyZ_12hermetic_e2e
FN:806,_RNvXs7_NtNtCshmQA5Mrgi1L_10empack_lib11application7sessionINtB5_14CommandSessionNtB5_22LiveFileSystemProviderNtNtCs6jbmnWiGXI_12empack_tests8test_env19MockNetworkProviderNtB5_19LiveProcessProviderNtB5_18LiveConfigProviderENtB5_7Session7displayCsaTeXJNQleyZ_12hermetic_e2e
FN:814,_RNvXs7_NtNtCshmQA5Mrgi1L_10empack_lib11application7sessionINtB5_14CommandSessionNtB5_22LiveFileSystemProviderNtNtCs6jbmnWiGXI_12empack_tests8test_env19MockNetworkProviderNtB5_19LiveProcessProviderNtB5_18LiveConfigProviderENtB5_7Session7networkCsaTeXJNQleyZ_12hermetic_e2e
FN:818,_RNvXs7_NtNtCshmQA5Mrgi1L_10empack_lib11application7sessionINtB5_14CommandSessionNtB5_22LiveFileSystemProviderNtNtCs6jbmnWiGXI_12empack_tests8test_env19MockNetworkProviderNtB5_19LiveProcessProviderNtB5_18LiveConfigProviderENtB5_7Session7processCsaTeXJNQleyZ_12hermetic_e2e
FN:754,_RNvMs6_NtNtCshmQA5Mrgi1L_10empack_lib11application7sessionINtB5_14CommandSessionNtB5_22LiveFileSystemProviderNtNtCs6jbmnWiGXI_12empack_tests8test_env19MockNetworkProviderNtB5_19LiveProcessProviderNtB5_18LiveConfigProviderE18new_with_providersB1N_
FNDA:0,_RNCNvXs7_NtNtCshmQA5Mrgi1L_10empack_lib11application7sessionINtB7_14CommandSessionNtB7_22LiveFileSystemProviderNtB7_19LiveNetworkProviderNtNtB9_13session_mocks19MockProcessProviderNtB7_18LiveConfigProviderENtB7_7Session5state0Csbc2rGA5VZid_11add_command
FNDA:2,_RNvMs6_NtNtCshmQA5Mrgi1L_10empack_lib11application7sessionINtB5_14CommandSessionNtB5_22LiveFileSystemProviderNtB5_19LiveNetworkProviderNtNtB7_13session_mocks19MockProcessProviderNtB5_18LiveConfigProviderE10filesystemCsbc2rGA5VZid_11add_command
FNDA:1,_RNvMs6_NtNtCshmQA5Mrgi1L_10empack_lib11application7sessionINtB5_14CommandSessionNtB5_22LiveFileSystemProviderNtB5_19LiveNetworkProviderNtNtB7_13session_mocks19MockProcessProviderNtB5_18LiveConfigProviderE18new_with_providersCsbc2rGA5VZid_11add_command
FNDA:2,_RNvMs6_NtNtCshmQA5Mrgi1L_10empack_lib11application7sessionINtB5_14CommandSessionNtB5_22LiveFileSystemProviderNtB5_19LiveNetworkProviderNtNtB7_13session_mocks19MockProcessProviderNtB5_18LiveConfigProviderE6configCsbc2rGA5VZid_11add_command
FNDA:1,_RNvXs7_NtNtCshmQA5Mrgi1L_10empack_lib11application7sessionINtB5_14CommandSessionNtB5_22LiveFileSystemProviderNtB5_19LiveNetworkProviderNtNtB7_13session_mocks19MockProcessProviderNtB5_18LiveConfigProviderENtB5_7Session10filesystemCsbc2rGA5VZid_11add_command
FNDA:2,_RNvXs7_NtNtCshmQA5Mrgi1L_10empack_lib11application7sessionINtB5_14CommandSessionNtB5_22LiveFileSystemProviderNtB5_19LiveNetworkProviderNtNtB7_13session_mocks19MockProcessProviderNtB5_18LiveConfigProviderENtB5_7Session5stateCsbc2rGA5VZid_11add_command
FNDA:1,_RNvXs7_NtNtCshmQA5Mrgi1L_10empack_lib11application7sessionINtB5_14CommandSessionNtB5_22LiveFileSystemProviderNtB5_19LiveNetworkProviderNtNtB7_13session_mocks19MockProcessProviderNtB5_18LiveConfigProviderENtB5_7Session6configCsbc2rGA5VZid_11add_command
FNDA:10,_RNvXs7_NtNtCshmQA5Mrgi1L_10empack_lib11application7sessionINtB5_14CommandSessionNtB5_22LiveFileSystemProviderNtB5_19LiveNetworkProviderNtNtB7_13session_mocks19MockProcessProviderNtB5_18LiveConfigProviderENtB5_7Session7displayCsbc2rGA5VZid_11add_command
FNDA:2,_RNvXs7_NtNtCshmQA5Mrgi1L_10empack_lib11application7sessionINtB5_14CommandSessionNtB5_22LiveFileSystemProviderNtB5_19LiveNetworkProviderNtNtB7_13session_mocks19MockProcessProviderNtB5_18LiveConfigProviderENtB5_7Session7networkCsbc2rGA5VZid_11add_command
FNDA:1,_RNvXs7_NtNtCshmQA5Mrgi1L_10empack_lib11application7sessionINtB5_14CommandSessionNtB5_22LiveFileSystemProviderNtB5_19LiveNetworkProviderNtNtB7_13session_mocks19MockProcessProviderNtB5_18LiveConfigProviderENtB5_7Session7processCsbc2rGA5VZid_11add_command
FNDA:0,_RNCNvXININtNtCshmQA5Mrgi1L_10empack_lib11application7sessions7_0ppppEINtB7_14CommandSessionppppENtB7_7Session5state0Bb_
FNDA:0,_RNvMs1_NtNtCshmQA5Mrgi1L_10empack_lib11application7sessionNtB5_19LiveProcessProvider12get_path_env
FNDA:0,_RNvMs6_NtNtCshmQA5Mrgi1L_10empack_lib11application7sessionINtB5_14CommandSessionppppE10filesystemB9_
FNDA:0,_RNvMs6_NtNtCshmQA5Mrgi1L_10empack_lib11application7sessionINtB5_14CommandSessionppppE18new_with_providersB9_
FNDA:0,_RNvMs6_NtNtCshmQA5Mrgi1L_10empack_lib11application7sessionINtB5_14CommandSessionppppE6configB9_
FNDA:0,_RNvMs6_NtNtCshmQA5Mrgi1L_10empack_lib11application7sessionINtB5_14CommandSessionppppE7displayB9_
FNDA:0,_RNvMs6_NtNtCshmQA5Mrgi1L_10empack_lib11application7sessionINtB5_14CommandSessionppppE7networkB9_
FNDA:0,_RNvMs6_NtNtCshmQA5Mrgi1L_10empack_lib11application7sessionINtB5_14CommandSessionppppE7processB9_
FNDA:0,_RNvXININtNtCshmQA5Mrgi1L_10empack_lib11application7sessions7_0ppppEINtB5_14CommandSessionppppENtB5_7Session10filesystemB9_
FNDA:0,_RNvXININtNtCshmQA5Mrgi1L_10empack_lib11application7sessions7_0ppppEINtB5_14CommandSessionppppENtB5_7Session5stateB9_
FNDA:0,_RNvXININtNtCshmQA5Mrgi1L_10empack_lib11application7sessions7_0ppppEINtB5_14CommandSessionppppENtB5_7Session6configB9_
FNDA:0,_RNvXININtNtCshmQA5Mrgi1L_10empack_lib11application7sessions7_0ppppEINtB5_14CommandSessionppppENtB5_7Session7displayB9_
FNDA:0,_RNvXININtNtCshmQA5Mrgi1L_10empack_lib11application7sessions7_0ppppEINtB5_14CommandSessionppppENtB5_7Session7networkB9_
FNDA:0,_RNvXININtNtCshmQA5Mrgi1L_10empack_lib11application7sessions7_0ppppEINtB5_14CommandSessionppppENtB5_7Session7processB9_
FNDA:0,_RNCNvXNtNtCshmQA5Mrgi1L_10empack_lib11application7sessionNtB4_22LiveFileSystemProviderNtB4_18FileSystemProvider10write_file0B8_
FNDA:0,_RNCNvXNtNtCshmQA5Mrgi1L_10empack_lib11application7sessionNtB4_22LiveFileSystemProviderNtB4_18FileSystemProvider14create_dir_all0B8_
FNDA:5,_RNCNvXNtNtCshmQA5Mrgi1L_10empack_lib11application7sessionNtB4_22LiveFileSystemProviderNtB4_18FileSystemProvider14read_to_string0B8_
FNDA:0,_RNCNvXNtNtCshmQA5Mrgi1L_10empack_lib11application7sessionNtB4_22LiveFileSystemProviderNtB4_18FileSystemProvider16run_packwiz_init0B8_
FNDA:0,_RNCNvXNtNtCshmQA5Mrgi1L_10empack_lib11application7sessionNtB4_22LiveFileSystemProviderNtB4_18FileSystemProvider19has_build_artifacts0B8_
FNDA:0,_RNCNvXNtNtCshmQA5Mrgi1L_10empack_lib11application7sessionNtB4_22LiveFileSystemProviderNtB4_18FileSystemProvider19run_packwiz_refresh0B8_
FNDA:1,_RNCNvXs2_NtNtCshmQA5Mrgi1L_10empack_lib11application7sessionNtB7_19LiveProcessProviderNtB7_15ProcessProvider13check_packwiz0Bb_
FNDA:0,_RNCNvXs2_NtNtCshmQA5Mrgi1L_10empack_lib11application7sessionNtB7_19LiveProcessProviderNtB7_15ProcessProvider7execute0Bb_
FNDA:4,_RNvMs1_NtNtCshmQA5Mrgi1L_10empack_lib11application7sessionNtB5_19LiveProcessProvider12new_for_test
FNDA:4,_RNvMs1_NtNtCshmQA5Mrgi1L_10empack_lib11application7sessionNtB5_19LiveProcessProvider16with_custom_path
FNDA:9,_RNvMs1_NtNtCshmQA5Mrgi1L_10empack_lib11application7sessionNtB5_19LiveProcessProvider3new
FNDA:14,_RNvMs3_NtNtCshmQA5Mrgi1L_10empack_lib11application7sessionNtB5_18LiveConfigProvider3new
FNDA:0,_RNvMs5_NtNtCshmQA5Mrgi1L_10empack_lib11application7sessionINtB5_14CommandSessionNtB5_22LiveFileSystemProviderNtB5_19LiveNetworkProviderNtB5_19LiveProcessProviderNtB5_18LiveConfigProviderE3new
FNDA:1,_RNvMs_NtNtCshmQA5Mrgi1L_10empack_lib11application7sessionNtB4_19LiveNetworkProvider12new_for_test
FNDA:9,_RNvMs_NtNtCshmQA5Mrgi1L_10empack_lib11application7sessionNtB4_19LiveNetworkProvider3new
FNDA:31,_RNvXNtNtCshmQA5Mrgi1L_10empack_lib11application7sessionNtB2_22LiveFileSystemProviderNtB2_18FileSystemProvider10write_file
FNDA:35,_RNvXNtNtCshmQA5Mrgi1L_10empack_lib11application7sessionNtB2_22LiveFileSystemProviderNtB2_18FileSystemProvider11current_dir
FNDA:0,_RNvXNtNtCshmQA5Mrgi1L_10empack_lib11application7sessionNtB2_22LiveFileSystemProviderNtB2_18FileSystemProvider11remove_file
FNDA:101,_RNvXNtNtCshmQA5Mrgi1L_10empack_lib11application7sessionNtB2_22LiveFileSystemProviderNtB2_18FileSystemProvider12is_directory
FNDA:42,_RNvXNtNtCshmQA5Mrgi1L_10empack_lib11application7sessionNtB2_22LiveFileSystemProviderNtB2_18FileSystemProvider13get_file_list
FNDA:2,_RNvXNtNtCshmQA5Mrgi1L_10empack_lib11application7sessionNtB2_22LiveFileSystemProviderNtB2_18FileSystemProvider14config_manager
FNDA:36,_RNvXNtNtCshmQA5Mrgi1L_10empack_lib11application7sessionNtB2_22LiveFileSystemProviderNtB2_18FileSystemProvider14create_dir_all
FNDA:45,_RNvXNtNtCshmQA5Mrgi1L_10empack_lib11application7sessionNtB2_22LiveFileSystemProviderNtB2_18FileSystemProvider14read_to_string
FNDA:1,_RNvXNtNtCshmQA5Mrgi1L_10empack_lib11application7sessionNtB2_22LiveFileSystemProviderNtB2_18FileSystemProvider14remove_dir_all
FNDA:0,_RNvXNtNtCshmQA5Mrgi1L_10empack_lib11application7sessionNtB2_22LiveFileSystemProviderNtB2_18FileSystemProvider16run_packwiz_init
FNDA:0,_RNvXNtNtCshmQA5Mrgi1L_10empack_lib11application7sessionNtB2_22LiveFileSystemProviderNtB2_18FileSystemProvider18get_installed_mods
FNDA:2,_RNvXNtNtCshmQA5Mrgi1L_10empack_lib11application7sessionNtB2_22LiveFileSystemProviderNtB2_18FileSystemProvider19has_build_artifacts
FNDA:0,_RNvXNtNtCshmQA5Mrgi1L_10empack_lib11application7sessionNtB2_22LiveFileSystemProviderNtB2_18FileSystemProvider19run_packwiz_refresh
FNDA:20,_RNvXNtNtCshmQA5Mrgi1L_10empack_lib11application7sessionNtB2_22LiveFileSystemProviderNtB2_18FileSystemProvider28get_bootstrap_jar_cache_path
FNDA:69,_RNvXNtNtCshmQA5Mrgi1L_10empack_lib11application7sessionNtB2_22LiveFileSystemProviderNtB2_18FileSystemProvider6exists
FNDA:1,_RNvXs0_NtNtCshmQA5Mrgi1L_10empack_lib11application7sessionNtB5_19LiveNetworkProviderNtB5_15NetworkProvider11http_client
FNDA:1,_RNvXs0_NtNtCshmQA5Mrgi1L_10empack_lib11application7sessionNtB5_19LiveNetworkProviderNtB5_15NetworkProvider16project_resolver
FNDA:1,_RNvXs2_NtNtCshmQA5Mrgi1L_10empack_lib11application7sessionNtB5_19LiveProcessProviderNtB5_15ProcessProvider13check_packwiz
FNDA:1,_RNvXs2_NtNtCshmQA5Mrgi1L_10empack_lib11application7sessionNtB5_19LiveProcessProviderNtB5_15ProcessProvider19get_packwiz_version
FNDA:29,_RNvXs2_NtNtCshmQA5Mrgi1L_10empack_lib11application7sessionNtB5_19LiveProcessProviderNtB5_15ProcessProvider7execute
FNDA:53,_RNvXs4_NtNtCshmQA5Mrgi1L_10empack_lib11application7sessionNtB5_18LiveConfigProviderNtB5_14ConfigProvider10app_config
FNDA:9,_RNCNvXs7_NtNtCshmQA5Mrgi1L_10empack_lib11application7sessionINtB7_14CommandSessionNtB7_22LiveFileSystemProviderNtB7_19LiveNetworkProviderNtB7_19LiveProcessProviderNtB7_18LiveConfigProviderENtB7_7Session5state0Cs8uoVYB8rq8D_17build_client_full
FNDA:18,_RNvMs6_NtNtCshmQA5Mrgi1L_10empack_lib11application7sessionINtB5_14CommandSessionNtB5_22LiveFileSystemProviderNtB5_19LiveNetworkProviderNtB5_19LiveProcessProviderNtB5_18LiveConfigProviderE10filesystemCs8uoVYB8rq8D_17build_client_full
FNDA:3,_RNvMs6_NtNtCshmQA5Mrgi1L_10empack_lib11application7sessionINtB5_14CommandSessionNtB5_22LiveFileSystemProviderNtB5_19LiveNetworkProviderNtB5_19LiveProcessProviderNtB5_18LiveConfigProviderE18new_with_providersCs8uoVYB8rq8D_17build_client_full
FNDA:9,_RNvMs6_NtNtCshmQA5Mrgi1L_10empack_lib11application7sessionINtB5_14CommandSessionNtB5_22LiveFileSystemProviderNtB5_19LiveNetworkProviderNtB5_19LiveProcessProviderNtB5_18LiveConfigProviderE6configCs8uoVYB8rq8D_17build_client_full
FNDA:57,_RNvXs7_NtNtCshmQA5Mrgi1L_10empack_lib11application7sessionINtB5_14CommandSessionNtB5_22LiveFileSystemProviderNtB5_19LiveNetworkProviderNtB5_19LiveProcessProviderNtB5_18LiveConfigProviderENtB5_7Session10filesystemCs8uoVYB8rq8D_17build_client_full
FNDA:9,_RNvXs7_NtNtCshmQA5Mrgi1L_10empack_lib11application7sessionINtB5_14CommandSessionNtB5_22LiveFileSystemProviderNtB5_19LiveNetworkProviderNtB5_19LiveProcessProviderNtB5_18LiveConfigProviderENtB5_7Session5stateCs8uoVYB8rq8D_17build_client_full
FNDA:3,_RNvXs7_NtNtCshmQA5Mrgi1L_10empack_lib11application7sessionINtB5_14CommandSessionNtB5_22LiveFileSystemProviderNtB5_19LiveNetworkProviderNtB5_19LiveProcessProviderNtB5_18LiveConfigProviderENtB5_7Session6configCs8uoVYB8rq8D_17build_client_full
FNDA:9,_RNvXs7_NtNtCshmQA5Mrgi1L_10empack_lib11application7sessionINtB5_14CommandSessionNtB5_22LiveFileSystemProviderNtB5_19LiveNetworkProviderNtB5_19LiveProcessProviderNtB5_18LiveConfigProviderENtB5_7Session7displayCs8uoVYB8rq8D_17build_client_full
FNDA:0,_RNvXs7_NtNtCshmQA5Mrgi1L_10empack_lib11application7sessionINtB5_14CommandSessionNtB5_22LiveFileSystemProviderNtB5_19LiveNetworkProviderNtB5_19LiveProcessProviderNtB5_18LiveConfigProviderENtB5_7Session7networkCs8uoVYB8rq8D_17build_client_full
FNDA:6,_RNvXs7_NtNtCshmQA5Mrgi1L_10empack_lib11application7sessionINtB5_14CommandSessionNtB5_22LiveFileSystemProviderNtB5_19LiveNetworkProviderNtB5_19LiveProcessProviderNtB5_18LiveConfigProviderENtB5_7Session7processCs8uoVYB8rq8D_17build_client_full
FNDA:8,_RNCNvXs7_NtNtCshmQA5Mrgi1L_10empack_lib11application7sessionINtB7_14CommandSessionNtB7_22LiveFileSystemProviderNtB7_19LiveNetworkProviderNtB7_19LiveProcessProviderNtB7_18LiveConfigProviderENtB7_7Session5state0Csj8HZQhsijMc_12build_server
FNDA:16,_RNvMs6_NtNtCshmQA5Mrgi1L_10empack_lib11application7sessionINtB5_14CommandSessionNtB5_22LiveFileSystemProviderNtB5_19LiveNetworkProviderNtB5_19LiveProcessProviderNtB5_18LiveConfigProviderE10filesystemCsj8HZQhsijMc_12build_server
FNDA:3,_RNvMs6_NtNtCshmQA5Mrgi1L_10empack_lib11application7sessionINtB5_14CommandSessionNtB5_22LiveFileSystemProviderNtB5_19LiveNetworkProviderNtB5_19LiveProcessProviderNtB5_18LiveConfigProviderE18new_with_providersCsj8HZQhsijMc_12build_server
FNDA:8,_RNvMs6_NtNtCshmQA5Mrgi1L_10empack_lib11application7sessionINtB5_14CommandSessionNtB5_22LiveFileSystemProviderNtB5_19LiveNetworkProviderNtB5_19LiveProcessProviderNtB5_18LiveConfigProviderE6configCsj8HZQhsijMc_12build_server
FNDA:108,_RNvXs7_NtNtCshmQA5Mrgi1L_10empack_lib11application7sessionINtB5_14CommandSessionNtB5_22LiveFileSystemProviderNtB5_19LiveNetworkProviderNtB5_19LiveProcessProviderNtB5_18LiveConfigProviderENtB5_7Session10filesystemCsj8HZQhsijMc_12build_server
FNDA:8,_RNvXs7_NtNtCshmQA5Mrgi1L_10empack_lib11application7sessionINtB5_14CommandSessionNtB5_22LiveFileSystemProviderNtB5_19LiveNetworkProviderNtB5_19LiveProcessProviderNtB5_18LiveConfigProviderENtB5_7Session5stateCsj8HZQhsijMc_12build_server
FNDA:3,_RNvXs7_NtNtCshmQA5Mrgi1L_10empack_lib11application7sessionINtB5_14CommandSessionNtB5_22LiveFileSystemProviderNtB5_19LiveNetworkProviderNtB5_19LiveProcessProviderNtB5_18LiveConfigProviderENtB5_7Session6configCsj8HZQhsijMc_12build_server
FNDA:7,_RNvXs7_NtNtCshmQA5Mrgi1L_10empack_lib11application7sessionINtB5_14CommandSessionNtB5_22LiveFileSystemProviderNtB5_19LiveNetworkProviderNtB5_19LiveProcessProviderNtB5_18LiveConfigProviderENtB5_7Session7displayCsj8HZQhsijMc_12build_server
FNDA:0,_RNvXs7_NtNtCshmQA5Mrgi1L_10empack_lib11application7sessionINtB5_14CommandSessionNtB5_22LiveFileSystemProviderNtB5_19LiveNetworkProviderNtB5_19LiveProcessProviderNtB5_18LiveConfigProviderENtB5_7Session7networkCsj8HZQhsijMc_12build_server
FNDA:11,_RNvXs7_NtNtCshmQA5Mrgi1L_10empack_lib11application7sessionINtB5_14CommandSessionNtB5_22LiveFileSystemProviderNtB5_19LiveNetworkProviderNtB5_19LiveProcessProviderNtB5_18LiveConfigProviderENtB5_7Session7processCsj8HZQhsijMc_12build_server
FNDA:9,_RNCNvXs7_NtNtCshmQA5Mrgi1L_10empack_lib11application7sessionINtB7_14CommandSessionNtB7_22LiveFileSystemProviderNtB7_19LiveNetworkProviderNtB7_19LiveProcessProviderNtB7_18LiveConfigProviderENtB7_7Session5state0CsdrRwdeEzguW_17build_server_full
FNDA:18,_RNvMs6_NtNtCshmQA5Mrgi1L_10empack_lib11application7sessionINtB5_14CommandSessionNtB5_22LiveFileSystemProviderNtB5_19LiveNetworkProviderNtB5_19LiveProcessProviderNtB5_18LiveConfigProviderE10filesystemCsdrRwdeEzguW_17build_server_full
FNDA:3,_RNvMs6_NtNtCshmQA5Mrgi1L_10empack_lib11application7sessionINtB5_14CommandSessionNtB5_22LiveFileSystemProviderNtB5_19LiveNetworkProviderNtB5_19LiveProcessProviderNtB5_18LiveConfigProviderE18new_with_providersCsdrRwdeEzguW_17build_server_full
FNDA:9,_RNvMs6_NtNtCshmQA5Mrgi1L_10empack_lib11application7sessionINtB5_14CommandSessionNtB5_22LiveFileSystemProviderNtB5_19LiveNetworkProviderNtB5_19LiveProcessProviderNtB5_18LiveConfigProviderE6configCsdrRwdeEzguW_17build_server_full
FNDA:75,_RNvXs7_NtNtCshmQA5Mrgi1L_10empack_lib11application7sessionINtB5_14CommandSessionNtB5_22LiveFileSystemProviderNtB5_19LiveNetworkProviderNtB5_19LiveProcessProviderNtB5_18LiveConfigProviderENtB5_7Session10filesystemCsdrRwdeEzguW_17build_server_full
FNDA:9,_RNvXs7_NtNtCshmQA5Mrgi1L_10empack_lib11application7sessionINtB5_14CommandSessionNtB5_22LiveFileSystemProviderNtB5_19LiveNetworkProviderNtB5_19LiveProcessProviderNtB5_18LiveConfigProviderENtB5_7Session5stateCsdrRwdeEzguW_17build_server_full
FNDA:3,_RNvXs7_NtNtCshmQA5Mrgi1L_10empack_lib11application7sessionINtB5_14CommandSessionNtB5_22LiveFileSystemProviderNtB5_19LiveNetworkProviderNtB5_19LiveProcessProviderNtB5_18LiveConfigProviderENtB5_7Session6configCsdrRwdeEzguW_17build_server_full
FNDA:9,_RNvXs7_NtNtCshmQA5Mrgi1L_10empack_lib11application7sessionINtB5_14CommandSessionNtB5_22LiveFileSystemProviderNtB5_19LiveNetworkProviderNtB5_19LiveProcessProviderNtB5_18LiveConfigProviderENtB5_7Session7displayCsdrRwdeEzguW_17build_server_full
FNDA:0,_RNvXs7_NtNtCshmQA5Mrgi1L_10empack_lib11application7sessionINtB5_14CommandSessionNtB5_22LiveFileSystemProviderNtB5_19LiveNetworkProviderNtB5_19LiveProcessProviderNtB5_18LiveConfigProviderENtB5_7Session7networkCsdrRwdeEzguW_17build_server_full
FNDA:9,_RNvXs7_NtNtCshmQA5Mrgi1L_10empack_lib11application7sessionINtB5_14CommandSessionNtB5_22LiveFileSystemProviderNtB5_19LiveNetworkProviderNtB5_19LiveProcessProviderNtB5_18LiveConfigProviderENtB5_7Session7processCsdrRwdeEzguW_17build_server_full
FNDA:0,_RNCNvXININtNtCs5BmVzKVgC1k_10empack_lib11application7sessions7_0ppppEINtB7_14CommandSessionppppENtB7_7Session5state0Bb_
FNDA:0,_RNCNvXNtNtCs5BmVzKVgC1k_10empack_lib11application7sessionNtB4_22LiveFileSystemProviderNtB4_18FileSystemProvider10write_file0B8_
FNDA:0,_RNCNvXNtNtCs5BmVzKVgC1k_10empack_lib11application7sessionNtB4_22LiveFileSystemProviderNtB4_18FileSystemProvider14create_dir_all0B8_
FNDA:0,_RNCNvXNtNtCs5BmVzKVgC1k_10empack_lib11application7sessionNtB4_22LiveFileSystemProviderNtB4_18FileSystemProvider14read_to_string0B8_
FNDA:0,_RNCNvXNtNtCs5BmVzKVgC1k_10empack_lib11application7sessionNtB4_22LiveFileSystemProviderNtB4_18FileSystemProvider16run_packwiz_init0B8_
FNDA:0,_RNCNvXNtNtCs5BmVzKVgC1k_10empack_lib11application7sessionNtB4_22LiveFileSystemProviderNtB4_18FileSystemProvider16run_packwiz_inits0_0B8_
FNDA:0,_RNCNvXNtNtCs5BmVzKVgC1k_10empack_lib11application7sessionNtB4_22LiveFileSystemProviderNtB4_18FileSystemProvider16run_packwiz_inits_0B8_
FNDA:0,_RNCNvXNtNtCs5BmVzKVgC1k_10empack_lib11application7sessionNtB4_22LiveFileSystemProviderNtB4_18FileSystemProvider19has_build_artifacts0B8_
FNDA:0,_RNCNvXs2_NtNtCs5BmVzKVgC1k_10empack_lib11application7sessionNtB7_19LiveProcessProviderNtB7_15ProcessProvider13check_packwiz0Bb_
FNDA:0,_RNCNvXs2_NtNtCs5BmVzKVgC1k_10empack_lib11application7sessionNtB7_19LiveProcessProviderNtB7_15ProcessProvider7execute0Bb_
FNDA:0,_RNvMs1_NtNtCs5BmVzKVgC1k_10empack_lib11application7sessionNtB5_19LiveProcessProvider12get_path_env
FNDA:0,_RNvMs1_NtNtCs5BmVzKVgC1k_10empack_lib11application7sessionNtB5_19LiveProcessProvider12new_for_test
FNDA:0,_RNvMs1_NtNtCs5BmVzKVgC1k_10empack_lib11application7sessionNtB5_19LiveProcessProvider16with_custom_path
FNDA:0,_RNvMs1_NtNtCs5BmVzKVgC1k_10empack_lib11application7sessionNtB5_19LiveProcessProvider3new
FNDA:0,_RNvMs3_NtNtCs5BmVzKVgC1k_10empack_lib11application7sessionNtB5_18LiveConfigProvider3new
FNDA:0,_RNvMs5_NtNtCs5BmVzKVgC1k_10empack_lib11application7sessionINtB5_14CommandSessionNtB5_22LiveFileSystemProviderNtB5_19LiveNetworkProviderNtB5_19LiveProcessProviderNtB5_18LiveConfigProviderE3new
FNDA:0,_RNvMs6_NtNtCs5BmVzKVgC1k_10empack_lib11application7sessionINtB5_14CommandSessionppppE10filesystemB9_
FNDA:0,_RNvMs6_NtNtCs5BmVzKVgC1k_10empack_lib11application7sessionINtB5_14CommandSessionppppE18new_with_providersB9_
FNDA:0,_RNvMs6_NtNtCs5BmVzKVgC1k_10empack_lib11application7sessionINtB5_14CommandSessionppppE6configB9_
FNDA:0,_RNvMs6_NtNtCs5BmVzKVgC1k_10empack_lib11application7sessionINtB5_14CommandSessionppppE7displayB9_
FNDA:0,_RNvMs6_NtNtCs5BmVzKVgC1k_10empack_lib11application7sessionINtB5_14CommandSessionppppE7networkB9_
FNDA:0,_RNvMs6_NtNtCs5BmVzKVgC1k_10empack_lib11application7sessionINtB5_14CommandSessionppppE7processB9_
FNDA:0,_RNvMs_NtNtCs5BmVzKVgC1k_10empack_lib11application7sessionNtB4_19LiveNetworkProvider12new_for_test
FNDA:0,_RNvMs_NtNtCs5BmVzKVgC1k_10empack_lib11application7sessionNtB4_19LiveNetworkProvider3new
FNDA:0,_RNvXININtNtCs5BmVzKVgC1k_10empack_lib11application7sessions7_0ppppEINtB5_14CommandSessionppppENtB5_7Session10filesystemB9_
FNDA:0,_RNvXININtNtCs5BmVzKVgC1k_10empack_lib11application7sessions7_0ppppEINtB5_14CommandSessionppppENtB5_7Session5stateB9_
FNDA:0,_RNvXININtNtCs5BmVzKVgC1k_10empack_lib11application7sessions7_0ppppEINtB5_14CommandSessionppppENtB5_7Session6configB9_
FNDA:0,_RNvXININtNtCs5BmVzKVgC1k_10empack_lib11application7sessions7_0ppppEINtB5_14CommandSessionppppENtB5_7Session7displayB9_
FNDA:0,_RNvXININtNtCs5BmVzKVgC1k_10empack_lib11application7sessions7_0ppppEINtB5_14CommandSessionppppENtB5_7Session7networkB9_
FNDA:0,_RNvXININtNtCs5BmVzKVgC1k_10empack_lib11application7sessions7_0ppppEINtB5_14CommandSessionppppENtB5_7Session7processB9_
FNDA:0,_RNvXNtNtCs5BmVzKVgC1k_10empack_lib11application7sessionNtB2_22LiveFileSystemProviderNtB2_18FileSystemProvider10write_file
FNDA:0,_RNvXNtNtCs5BmVzKVgC1k_10empack_lib11application7sessionNtB2_22LiveFileSystemProviderNtB2_18FileSystemProvider11current_dir
FNDA:0,_RNvXNtNtCs5BmVzKVgC1k_10empack_lib11application7sessionNtB2_22LiveFileSystemProviderNtB2_18FileSystemProvider11remove_file
FNDA:0,_RNvXNtNtCs5BmVzKVgC1k_10empack_lib11application7sessionNtB2_22LiveFileSystemProviderNtB2_18FileSystemProvider12is_directory
FNDA:0,_RNvXNtNtCs5BmVzKVgC1k_10empack_lib11application7sessionNtB2_22LiveFileSystemProviderNtB2_18FileSystemProvider13get_file_list
FNDA:0,_RNvXNtNtCs5BmVzKVgC1k_10empack_lib11application7sessionNtB2_22LiveFileSystemProviderNtB2_18FileSystemProvider14config_manager
FNDA:0,_RNvXNtNtCs5BmVzKVgC1k_10empack_lib11application7sessionNtB2_22LiveFileSystemProviderNtB2_18FileSystemProvider14create_dir_all
FNDA:0,_RNvXNtNtCs5BmVzKVgC1k_10empack_lib11application7sessionNtB2_22LiveFileSystemProviderNtB2_18FileSystemProvider14read_to_string
FNDA:0,_RNvXNtNtCs5BmVzKVgC1k_10empack_lib11application7sessionNtB2_22LiveFileSystemProviderNtB2_18FileSystemProvider14remove_dir_all
FNDA:0,_RNvXNtNtCs5BmVzKVgC1k_10empack_lib11application7sessionNtB2_22LiveFileSystemProviderNtB2_18FileSystemProvider16run_packwiz_init
FNDA:0,_RNvXNtNtCs5BmVzKVgC1k_10empack_lib11application7sessionNtB2_22LiveFileSystemProviderNtB2_18FileSystemProvider18get_installed_mods
FNDA:0,_RNvXNtNtCs5BmVzKVgC1k_10empack_lib11application7sessionNtB2_22LiveFileSystemProviderNtB2_18FileSystemProvider19has_build_artifacts
FNDA:0,_RNvXNtNtCs5BmVzKVgC1k_10empack_lib11application7sessionNtB2_22LiveFileSystemProviderNtB2_18FileSystemProvider19run_packwiz_refresh
FNDA:0,_RNvXNtNtCs5BmVzKVgC1k_10empack_lib11application7sessionNtB2_22LiveFileSystemProviderNtB2_18FileSystemProvider28get_bootstrap_jar_cache_path
FNDA:0,_RNvXNtNtCs5BmVzKVgC1k_10empack_lib11application7sessionNtB2_22LiveFileSystemProviderNtB2_18FileSystemProvider6exists
FNDA:0,_RNvXs0_NtNtCs5BmVzKVgC1k_10empack_lib11application7sessionNtB5_19LiveNetworkProviderNtB5_15NetworkProvider11http_client
FNDA:0,_RNvXs0_NtNtCs5BmVzKVgC1k_10empack_lib11application7sessionNtB5_19LiveNetworkProviderNtB5_15NetworkProvider16project_resolver
FNDA:0,_RNvXs2_NtNtCs5BmVzKVgC1k_10empack_lib11application7sessionNtB5_19LiveProcessProviderNtB5_15ProcessProvider13check_packwiz
FNDA:0,_RNvXs2_NtNtCs5BmVzKVgC1k_10empack_lib11application7sessionNtB5_19LiveProcessProviderNtB5_15ProcessProvider19get_packwiz_version
FNDA:0,_RNvXs2_NtNtCs5BmVzKVgC1k_10empack_lib11application7sessionNtB5_19LiveProcessProviderNtB5_15ProcessProvider7execute
FNDA:0,_RNvXs4_NtNtCs5BmVzKVgC1k_10empack_lib11application7sessionNtB5_18LiveConfigProviderNtB5_14ConfigProvider10app_config
FNDA:0,_RNCNvXs7_NtNtCshmQA5Mrgi1L_10empack_lib11application7sessionINtB7_14CommandSessionNtB7_22LiveFileSystemProviderNtNtCs6jbmnWiGXI_12empack_tests8test_env19MockNetworkProviderNtB7_19LiveProcessProviderNtB7_18LiveConfigProviderENtB7_7Session5state0CsaTeXJNQleyZ_12hermetic_e2e
FNDA:6,_RNvMs6_NtNtCshmQA5Mrgi1L_10empack_lib11application7sessionINtB5_14CommandSessionNtB5_22LiveFileSystemProviderNtNtCs6jbmnWiGXI_12empack_tests8test_env19MockNetworkProviderNtB5_19LiveProcessProviderNtB5_18LiveConfigProviderE10filesystemCsaTeXJNQleyZ_12hermetic_e2e
FNDA:13,_RNvMs6_NtNtCshmQA5Mrgi1L_10empack_lib11application7sessionINtB5_14CommandSessionNtB5_22LiveFileSystemProviderNtNtCs6jbmnWiGXI_12empack_tests8test_env19MockNetworkProviderNtB5_19LiveProcessProviderNtB5_18LiveConfigProviderE6configCsaTeXJNQleyZ_12hermetic_e2e
FNDA:10,_RNvXs7_NtNtCshmQA5Mrgi1L_10empack_lib11application7sessionINtB5_14CommandSessionNtB5_22LiveFileSystemProviderNtNtCs6jbmnWiGXI_12empack_tests8test_env19MockNetworkProviderNtB5_19LiveProcessProviderNtB5_18LiveConfigProviderENtB5_7Session10filesystemCsaTeXJNQleyZ_12hermetic_e2e
FNDA:6,_RNvXs7_NtNtCshmQA5Mrgi1L_10empack_lib11application7sessionINtB5_14CommandSessionNtB5_22LiveFileSystemProviderNtNtCs6jbmnWiGXI_12empack_tests8test_env19MockNetworkProviderNtB5_19LiveProcessProviderNtB5_18LiveConfigProviderENtB5_7Session5stateCsaTeXJNQleyZ_12hermetic_e2e
FNDA:2,_RNvXs7_NtNtCshmQA5Mrgi1L_10empack_lib11application7sessionINtB5_14CommandSessionNtB5_22LiveFileSystemProviderNtNtCs6jbmnWiGXI_12empack_tests8test_env19MockNetworkProviderNtB5_19LiveProcessProviderNtB5_18LiveConfigProviderENtB5_7Session6configCsaTeXJNQleyZ_12hermetic_e2e
FNDA:19,_RNvXs7_NtNtCshmQA5Mrgi1L_10empack_lib11application7sessionINtB5_14CommandSessionNtB5_22LiveFileSystemProviderNtNtCs6jbmnWiGXI_12empack_tests8test_env19MockNetworkProviderNtB5_19LiveProcessProviderNtB5_18LiveConfigProviderENtB5_7Session7displayCsaTeXJNQleyZ_12hermetic_e2e
FNDA:2,_RNvXs7_NtNtCshmQA5Mrgi1L_10empack_lib11application7sessionINtB5_14CommandSessionNtB5_22LiveFileSystemProviderNtNtCs6jbmnWiGXI_12empack_tests8test_env19MockNetworkProviderNtB5_19LiveProcessProviderNtB5_18LiveConfigProviderENtB5_7Session7networkCsaTeXJNQleyZ_12hermetic_e2e
FNDA:4,_RNvXs7_NtNtCshmQA5Mrgi1L_10empack_lib11application7sessionINtB5_14CommandSessionNtB5_22LiveFileSystemProviderNtNtCs6jbmnWiGXI_12empack_tests8test_env19MockNetworkProviderNtB5_19LiveProcessProviderNtB5_18LiveConfigProviderENtB5_7Session7processCsaTeXJNQleyZ_12hermetic_e2e
FNDA:4,_RNvMs6_NtNtCshmQA5Mrgi1L_10empack_lib11application7sessionINtB5_14CommandSessionNtB5_22LiveFileSystemProviderNtNtCs6jbmnWiGXI_12empack_tests8test_env19MockNetworkProviderNtB5_19LiveProcessProviderNtB5_18LiveConfigProviderE18new_with_providersB1N_
FNF:53
FNH:35
DA:146,35
DA:147,35
DA:148,35
DA:152,0
DA:153,0
DA:154,0
DA:155,0
DA:156,0
DA:157,0
DA:158,0
DA:160,0
DA:161,0
DA:162,0
DA:163,0
DA:165,0
DA:166,0
DA:170,0
DA:171,0
DA:172,0
DA:173,0
DA:174,0
DA:178,0
DA:179,0
DA:180,0
DA:181,0
DA:183,0
DA:187,0
DA:189,0
DA:192,0
DA:193,0
DA:195,2
DA:196,2
DA:197,2
DA:199,45
DA:200,45
DA:201,45
DA:202,45
DA:204,31
DA:205,31
DA:206,31
DA:207,31
DA:209,69
DA:210,69
DA:211,69
DA:213,101
DA:214,101
DA:215,101
DA:217,36
DA:218,36
DA:219,36
DA:220,36
DA:222,42
DA:223,42
DA:225,42
DA:226,0
DA:227,42
DA:229,42
DA:230,151
DA:231,109
DA:232,109
DA:235,42
DA:236,42
DA:238,2
DA:239,2
DA:240,0
DA:241,2
DA:243,2
DA:244,2
DA:245,2
DA:246,2
DA:249,2
DA:250,2
DA:251,2
DA:252,2
DA:253,0
DA:255,0
DA:256,0
DA:259,0
DA:260,0
DA:261,0
DA:262,0
DA:263,0
DA:265,0
DA:267,0
DA:268,0
DA:271,0
DA:272,2
DA:274,0
DA:275,0
DA:276,0
DA:278,1
DA:279,1
DA:280,1
DA:282,0
DA:283,0
DA:284,0
DA:285,0
DA:286,0
DA:287,0
DA:288,0
DA:289,0
DA:290,0
DA:291,0
DA:297,0
DA:298,0
DA:299,0
DA:300,0
DA:301,0
DA:302,0
DA:304,0
DA:305,0
DA:306,0
DA:307,0
DA:308,0
DA:309,0
DA:310,0
DA:311,0
DA:312,0
DA:313,0
DA:314,0
DA:315,0
DA:316,0
DA:317,0
DA:318,0
DA:319,0
DA:320,0
DA:321,0
DA:322,0
DA:325,0
DA:326,0
DA:327,0
DA:328,0
DA:329,0
DA:330,0
DA:331,0
DA:332,0
DA:333,0
DA:334,0
DA:335,0
DA:336,0
DA:337,0
DA:342,0
DA:345,0
DA:346,0
DA:347,0
DA:348,0
DA:349,0
DA:352,0
DA:354,0
DA:355,0
DA:356,0
DA:357,0
DA:358,0
DA:359,0
DA:360,0
DA:361,0
DA:362,0
DA:363,0
DA:364,0
DA:368,0
DA:369,0
DA:370,0
DA:371,0
DA:372,0
DA:373,0
DA:374,0
DA:375,0
DA:376,0
DA:377,0
DA:378,0
DA:379,0
DA:380,0
DA:381,0
DA:382,0
DA:383,0
DA:384,0
DA:385,0
DA:386,0
DA:387,0
DA:390,0
DA:391,0
DA:392,0
DA:393,0
DA:394,0
DA:395,0
DA:396,0
DA:398,0
DA:399,0
DA:400,0
DA:401,0
DA:402,0
DA:404,0
DA:406,0
DA:408,0
DA:414,0
DA:415,0
DA:416,0
DA:417,0
DA:418,0
DA:419,0
DA:420,0
DA:425,0
DA:427,0
DA:428,0
DA:429,0
DA:430,0
DA:431,0
DA:432,0
DA:433,0
DA:435,0
DA:436,0
DA:437,0
DA:438,0
DA:439,0
DA:441,0
DA:443,0
DA:445,20
DA:447,20
DA:448,20
DA:449,20
DA:450,20
DA:452,20
DA:453,12
DA:454,8
DA:457,8
DA:458,8
DA:459,8
DA:460,8
DA:462,8
DA:463,20
DA:476,9
DA:477,9
DA:478,9
DA:479,9
DA:480,9
DA:481,9
DA:482,9
DA:483,9
DA:487,1
DA:488,1
DA:489,1
DA:490,1
DA:491,1
DA:492,1
DA:493,1
DA:494,1
DA:495,1
DA:513,1
DA:514,1
DA:515,1
DA:516,1
DA:517,1
DA:518,1
DA:520,1
DA:521,1
DA:522,1
DA:523,1
DA:524,1
DA:526,1
DA:527,1
DA:528,1
DA:529,1
DA:530,1
DA:531,1
DA:532,1
DA:533,1
DA:539,1
DA:550,9
DA:551,9
DA:552,9
DA:555,4
DA:556,4
DA:557,4
DA:558,4
DA:559,4
DA:562,4
DA:563,4
DA:564,4
DA:565,4
DA:566,4
DA:567,4
DA:569,0
DA:571,4
DA:574,0
DA:575,0
DA:576,0
DA:577,0
DA:579,0
DA:583,29
DA:586,29
DA:587,29
DA:590,29
DA:591,3
DA:592,26
DA:594,29
DA:595,29
DA:596,29
DA:598,29
DA:599,29
DA:600,29
DA:601,29
DA:602,29
DA:603,29
DA:605,1
DA:607,1
DA:608,1
DA:611,1
DA:612,1
DA:613,1
DA:615,1
DA:616,1
DA:617,1
DA:618,1
DA:619,1
DA:620,1
DA:622,0
DA:624,1
DA:626,1
DA:628,1
DA:629,1
DA:632,1
DA:633,1
DA:634,1
DA:636,1
DA:638,1
DA:639,0
DA:640,1
DA:642,1
DA:643,1
DA:644,1
DA:647,1
DA:648,1
DA:649,1
DA:650,1
DA:651,1
DA:652,1
DA:654,1
DA:655,1
DA:656,0
DA:658,0
DA:662,0
DA:663,0
DA:664,0
DA:665,0
DA:666,0
DA:667,0
DA:668,0
DA:671,0
DA:672,1
DA:681,14
DA:682,14
DA:683,14
DA:687,53
DA:688,53
DA:689,53
DA:723,0
DA:725,0
DA:726,0
DA:727,0
DA:728,0
DA:729,0
DA:731,0
DA:732,0
DA:734,0
DA:735,0
DA:736,0
DA:737,0
DA:738,0
DA:739,0
DA:740,0
DA:741,0
DA:742,0
DA:754,14
DA:755,14
DA:756,14
DA:757,14
DA:758,14
DA:759,14
DA:760,14
DA:761,14
DA:763,14
DA:764,14
DA:765,14
DA:766,14
DA:767,14
DA:768,14
DA:769,14
DA:770,14
DA:771,14
DA:774,0
DA:775,0
DA:776,0
DA:779,60
DA:780,60
DA:781,60
DA:784,0
DA:785,0
DA:786,0
DA:789,0
DA:790,0
DA:791,0
DA:794,41
DA:795,41
DA:796,41
DA:806,54
DA:807,54
DA:808,54
DA:810,251
DA:811,251
DA:812,251
DA:814,4
DA:815,4
DA:816,4
DA:818,31
DA:819,31
DA:820,31
DA:822,12
DA:823,12
DA:824,12
DA:826,34
DA:827,34
DA:828,34
DA:829,34
DA:830,34
DA:831,34
DA:832,34
DA:833,34
DA:834,26
DA:835,26
DA:836,26
DA:837,26
DA:838,34
DA:839,34
BRF:0
BRH:0
LF:409
LH:225
end_of_record
SF:/Users/zer0cell/production/empack/crates/empack-lib/src/application/session_mocks.rs
FN:609,_RNCNvMs4_NtNtCshmQA5Mrgi1L_10empack_lib11application13session_mocksNtB7_19MockProcessProvider11verify_call0Bb_
FN:600,_RNCNvMs4_NtNtCshmQA5Mrgi1L_10empack_lib11application13session_mocksNtB7_19MockProcessProvider21get_calls_for_command0Bb_
FN:460,_RNCNvXs1_NtNtCshmQA5Mrgi1L_10empack_lib11application13session_mocksNtB7_19MockNetworkProviderNtNtB9_7session15NetworkProvider11http_client0Bb_
FN:522,_RNCNvXs3_NtNtCshmQA5Mrgi1L_10empack_lib11application13session_mocksNtB7_19MockProjectResolverNtNtNtBb_6empack6search20ProjectResolverTrait15resolve_project0Bb_
FN:627,_RNCNvXs5_NtNtCshmQA5Mrgi1L_10empack_lib11application13session_mocksNtB7_19MockProcessProviderNtNtB9_7session15ProcessProvider7execute0Bb_
FN:635,_RNCNvXs5_NtNtCshmQA5Mrgi1L_10empack_lib11application13session_mocksNtB7_19MockProcessProviderNtNtB9_7session15ProcessProvider7executes_0Bb_
FN:318,_RNCNvXs_NtNtCshmQA5Mrgi1L_10empack_lib11application13session_mocksNtB6_22MockFileSystemProviderNtNtB8_7session18FileSystemProvider14remove_dir_all0Ba_
FN:361,_RNCNvXs_NtNtCshmQA5Mrgi1L_10empack_lib11application13session_mocksNtB6_22MockFileSystemProviderNtNtB8_7session18FileSystemProvider16run_packwiz_init0Ba_
FN:372,_RNCNvXs_NtNtCshmQA5Mrgi1L_10empack_lib11application13session_mocksNtB6_22MockFileSystemProviderNtNtB8_7session18FileSystemProvider16run_packwiz_inits_0Ba_
FN:69,_RNvMNtNtCshmQA5Mrgi1L_10empack_lib11application13session_mocksNtB2_22MockFileSystemProvider10with_files
FN:46,_RNvMNtNtCshmQA5Mrgi1L_10empack_lib11application13session_mocksNtB2_22MockFileSystemProvider16with_current_dir
FN:179,_RNvMNtNtCshmQA5Mrgi1L_10empack_lib11application13session_mocksNtB2_22MockFileSystemProvider18with_built_project
FN:75,_RNvMNtNtCshmQA5Mrgi1L_10empack_lib11application13session_mocksNtB2_22MockFileSystemProvider19with_empack_project
FN:52,_RNvMNtNtCshmQA5Mrgi1L_10empack_lib11application13session_mocksNtB2_22MockFileSystemProvider19with_installed_mods
FN:133,_RNvMNtNtCshmQA5Mrgi1L_10empack_lib11application13session_mocksNtB2_22MockFileSystemProvider23with_configured_project
FN:35,_RNvMNtNtCshmQA5Mrgi1L_10empack_lib11application13session_mocksNtB2_22MockFileSystemProvider3new
FN:57,_RNvMNtNtCshmQA5Mrgi1L_10empack_lib11application13session_mocksNtB2_22MockFileSystemProvider9with_file
FN:444,_RNvMs0_NtNtCshmQA5Mrgi1L_10empack_lib11application13session_mocksNtB5_19MockNetworkProvider19with_error_response
FN:435,_RNvMs0_NtNtCshmQA5Mrgi1L_10empack_lib11application13session_mocksNtB5_19MockNetworkProvider21with_project_response
FN:427,_RNvMs0_NtNtCshmQA5Mrgi1L_10empack_lib11application13session_mocksNtB5_19MockNetworkProvider3new
FN:489,_RNvMs2_NtNtCshmQA5Mrgi1L_10empack_lib11application13session_mocksNtB5_19MockProjectResolver13with_response
FN:502,_RNvMs2_NtNtCshmQA5Mrgi1L_10empack_lib11application13session_mocksNtB5_19MockProjectResolver19with_error_response
FN:494,_RNvMs2_NtNtCshmQA5Mrgi1L_10empack_lib11application13session_mocksNtB5_19MockProjectResolver21with_project_response
FN:483,_RNvMs2_NtNtCshmQA5Mrgi1L_10empack_lib11application13session_mocksNtB5_19MockProjectResolver3new
FN:606,_RNvMs4_NtNtCshmQA5Mrgi1L_10empack_lib11application13session_mocksNtB5_19MockProcessProvider11verify_call
FN:571,_RNvMs4_NtNtCshmQA5Mrgi1L_10empack_lib11application13session_mocksNtB5_19MockProcessProvider11with_result
FN:581,_RNvMs4_NtNtCshmQA5Mrgi1L_10empack_lib11application13session_mocksNtB5_19MockProcessProvider19with_packwiz_result
FN:566,_RNvMs4_NtNtCshmQA5Mrgi1L_10empack_lib11application13session_mocksNtB5_19MockProcessProvider20with_packwiz_version
FN:596,_RNvMs4_NtNtCshmQA5Mrgi1L_10empack_lib11application13session_mocksNtB5_19MockProcessProvider21get_calls_for_command
FN:561,_RNvMs4_NtNtCshmQA5Mrgi1L_10empack_lib11application13session_mocksNtB5_19MockProcessProvider24with_packwiz_unavailable
FN:552,_RNvMs4_NtNtCshmQA5Mrgi1L_10empack_lib11application13session_mocksNtB5_19MockProcessProvider3new
FN:591,_RNvMs4_NtNtCshmQA5Mrgi1L_10empack_lib11application13session_mocksNtB5_19MockProcessProvider9get_calls
FN:671,_RNvMs6_NtNtCshmQA5Mrgi1L_10empack_lib11application13session_mocksNtB5_18MockConfigProvider3new
FN:740,_RNvMs8_NtNtCshmQA5Mrgi1L_10empack_lib11application13session_mocksNtB5_18MockCommandSession10filesystem
FN:729,_RNvMs8_NtNtCshmQA5Mrgi1L_10empack_lib11application13session_mocksNtB5_18MockCommandSession11with_config
FN:719,_RNvMs8_NtNtCshmQA5Mrgi1L_10empack_lib11application13session_mocksNtB5_18MockCommandSession12with_network
FN:724,_RNvMs8_NtNtCshmQA5Mrgi1L_10empack_lib11application13session_mocksNtB5_18MockCommandSession12with_process
FN:714,_RNvMs8_NtNtCshmQA5Mrgi1L_10empack_lib11application13session_mocksNtB5_18MockCommandSession15with_filesystem
FN:693,_RNvMs8_NtNtCshmQA5Mrgi1L_10empack_lib11application13session_mocksNtB5_18MockCommandSession3new
FN:755,_RNvMs8_NtNtCshmQA5Mrgi1L_10empack_lib11application13session_mocksNtB5_18MockCommandSession6config
FN:735,_RNvMs8_NtNtCshmQA5Mrgi1L_10empack_lib11application13session_mocksNtB5_18MockCommandSession7display
FN:745,_RNvMs8_NtNtCshmQA5Mrgi1L_10empack_lib11application13session_mocksNtB5_18MockCommandSession7network
FN:750,_RNvMs8_NtNtCshmQA5Mrgi1L_10empack_lib11application13session_mocksNtB5_18MockCommandSession7process
FN:455,_RNvXs1_NtNtCshmQA5Mrgi1L_10empack_lib11application13session_mocksNtB5_19MockNetworkProviderNtNtB7_7session15NetworkProvider11http_client
FN:463,_RNvXs1_NtNtCshmQA5Mrgi1L_10empack_lib11application13session_mocksNtB5_19MockNetworkProviderNtNtB7_7session15NetworkProvider16project_resolver
FN:512,_RNvXs3_NtNtCshmQA5Mrgi1L_10empack_lib11application13session_mocksNtB5_19MockProjectResolverNtNtNtB9_6empack6search20ProjectResolverTrait15resolve_project
FN:652,_RNvXs5_NtNtCshmQA5Mrgi1L_10empack_lib11application13session_mocksNtB5_19MockProcessProviderNtNtB7_7session15ProcessProvider13check_packwiz
FN:656,_RNvXs5_NtNtCshmQA5Mrgi1L_10empack_lib11application13session_mocksNtB5_19MockProcessProviderNtNtB7_7session15ProcessProvider19get_packwiz_version
FN:618,_RNvXs5_NtNtCshmQA5Mrgi1L_10empack_lib11application13session_mocksNtB5_19MockProcessProviderNtNtB7_7session15ProcessProvider7execute
FN:677,_RNvXs7_NtNtCshmQA5Mrgi1L_10empack_lib11application13session_mocksNtB5_18MockConfigProviderNtNtB7_7session14ConfigProvider10app_config
FN:765,_RNvXs9_NtNtCshmQA5Mrgi1L_10empack_lib11application13session_mocksNtB5_18MockCommandSessionNtNtB7_7session7Session10filesystem
FN:781,_RNvXs9_NtNtCshmQA5Mrgi1L_10empack_lib11application13session_mocksNtB5_18MockCommandSessionNtNtB7_7session7Session5state
FN:777,_RNvXs9_NtNtCshmQA5Mrgi1L_10empack_lib11application13session_mocksNtB5_18MockCommandSessionNtNtB7_7session7Session6config
FN:761,_RNvXs9_NtNtCshmQA5Mrgi1L_10empack_lib11application13session_mocksNtB5_18MockCommandSessionNtNtB7_7session7Session7display
FN:769,_RNvXs9_NtNtCshmQA5Mrgi1L_10empack_lib11application13session_mocksNtB5_18MockCommandSessionNtNtB7_7session7Session7network
FN:773,_RNvXs9_NtNtCshmQA5Mrgi1L_10empack_lib11application13session_mocksNtB5_18MockCommandSessionNtNtB7_7session7Session7process
FN:224,_RNvXs_NtNtCshmQA5Mrgi1L_10empack_lib11application13session_mocksNtB4_22MockFileSystemProviderNtNtB6_7session18FileSystemProvider10write_file
FN:197,_RNvXs_NtNtCshmQA5Mrgi1L_10empack_lib11application13session_mocksNtB4_22MockFileSystemProviderNtNtB6_7session18FileSystemProvider11current_dir
FN:309,_RNvXs_NtNtCshmQA5Mrgi1L_10empack_lib11application13session_mocksNtB4_22MockFileSystemProviderNtNtB6_7session18FileSystemProvider11remove_file
FN:239,_RNvXs_NtNtCshmQA5Mrgi1L_10empack_lib11application13session_mocksNtB4_22MockFileSystemProviderNtNtB6_7session18FileSystemProvider12is_directory
FN:270,_RNvXs_NtNtCshmQA5Mrgi1L_10empack_lib11application13session_mocksNtB4_22MockFileSystemProviderNtNtB6_7session18FileSystemProvider13get_file_list
FN:207,_RNvXs_NtNtCshmQA5Mrgi1L_10empack_lib11application13session_mocksNtB4_22MockFileSystemProviderNtNtB6_7session18FileSystemProvider14config_manager
FN:255,_RNvXs_NtNtCshmQA5Mrgi1L_10empack_lib11application13session_mocksNtB4_22MockFileSystemProviderNtNtB6_7session18FileSystemProvider14create_dir_all
FN:215,_RNvXs_NtNtCshmQA5Mrgi1L_10empack_lib11application13session_mocksNtB4_22MockFileSystemProviderNtNtB6_7session18FileSystemProvider14read_to_string
FN:314,_RNvXs_NtNtCshmQA5Mrgi1L_10empack_lib11application13session_mocksNtB4_22MockFileSystemProviderNtNtB6_7session18FileSystemProvider14remove_dir_all
FN:329,_RNvXs_NtNtCshmQA5Mrgi1L_10empack_lib11application13session_mocksNtB4_22MockFileSystemProviderNtNtB6_7session18FileSystemProvider16run_packwiz_init
FN:203,_RNvXs_NtNtCshmQA5Mrgi1L_10empack_lib11application13session_mocksNtB4_22MockFileSystemProviderNtNtB6_7session18FileSystemProvider18get_installed_mods
FN:292,_RNvXs_NtNtCshmQA5Mrgi1L_10empack_lib11application13session_mocksNtB4_22MockFileSystemProviderNtNtB6_7session18FileSystemProvider19has_build_artifacts
FN:381,_RNvXs_NtNtCshmQA5Mrgi1L_10empack_lib11application13session_mocksNtB4_22MockFileSystemProviderNtNtB6_7session18FileSystemProvider19run_packwiz_refresh
FN:395,_RNvXs_NtNtCshmQA5Mrgi1L_10empack_lib11application13session_mocksNtB4_22MockFileSystemProviderNtNtB6_7session18FileSystemProvider28get_bootstrap_jar_cache_path
FN:232,_RNvXs_NtNtCshmQA5Mrgi1L_10empack_lib11application13session_mocksNtB4_22MockFileSystemProviderNtNtB6_7session18FileSystemProvider6exists
FN:609,_RNCNvMs4_NtNtCs5BmVzKVgC1k_10empack_lib11application13session_mocksNtB7_19MockProcessProvider11verify_call0Bb_
FN:460,_RNCNvXs1_NtNtCs5BmVzKVgC1k_10empack_lib11application13session_mocksNtB7_19MockNetworkProviderNtNtB9_7session15NetworkProvider11http_client0Bb_
FN:522,_RNCNvXs3_NtNtCs5BmVzKVgC1k_10empack_lib11application13session_mocksNtB7_19MockProjectResolverNtNtNtBb_6empack6search20ProjectResolverTrait15resolve_project0Bb_
FN:627,_RNCNvXs5_NtNtCs5BmVzKVgC1k_10empack_lib11application13session_mocksNtB7_19MockProcessProviderNtNtB9_7session15ProcessProvider7execute0Bb_
FN:635,_RNCNvXs5_NtNtCs5BmVzKVgC1k_10empack_lib11application13session_mocksNtB7_19MockProcessProviderNtNtB9_7session15ProcessProvider7executes_0Bb_
FN:318,_RNCNvXs_NtNtCs5BmVzKVgC1k_10empack_lib11application13session_mocksNtB6_22MockFileSystemProviderNtNtB8_7session18FileSystemProvider14remove_dir_all0Ba_
FN:361,_RNCNvXs_NtNtCs5BmVzKVgC1k_10empack_lib11application13session_mocksNtB6_22MockFileSystemProviderNtNtB8_7session18FileSystemProvider16run_packwiz_init0Ba_
FN:372,_RNCNvXs_NtNtCs5BmVzKVgC1k_10empack_lib11application13session_mocksNtB6_22MockFileSystemProviderNtNtB8_7session18FileSystemProvider16run_packwiz_inits_0Ba_
FN:46,_RNvMNtNtCs5BmVzKVgC1k_10empack_lib11application13session_mocksNtB2_22MockFileSystemProvider16with_current_dir
FN:52,_RNvMNtNtCs5BmVzKVgC1k_10empack_lib11application13session_mocksNtB2_22MockFileSystemProvider19with_installed_mods
FN:133,_RNvMNtNtCs5BmVzKVgC1k_10empack_lib11application13session_mocksNtB2_22MockFileSystemProvider23with_configured_project
FN:35,_RNvMNtNtCs5BmVzKVgC1k_10empack_lib11application13session_mocksNtB2_22MockFileSystemProvider3new
FN:57,_RNvMNtNtCs5BmVzKVgC1k_10empack_lib11application13session_mocksNtB2_22MockFileSystemProvider9with_file
FN:435,_RNvMs0_NtNtCs5BmVzKVgC1k_10empack_lib11application13session_mocksNtB5_19MockNetworkProvider21with_project_response
FN:427,_RNvMs0_NtNtCs5BmVzKVgC1k_10empack_lib11application13session_mocksNtB5_19MockNetworkProvider3new
FN:483,_RNvMs2_NtNtCs5BmVzKVgC1k_10empack_lib11application13session_mocksNtB5_19MockProjectResolver3new
FN:606,_RNvMs4_NtNtCs5BmVzKVgC1k_10empack_lib11application13session_mocksNtB5_19MockProcessProvider11verify_call
FN:571,_RNvMs4_NtNtCs5BmVzKVgC1k_10empack_lib11application13session_mocksNtB5_19MockProcessProvider11with_result
FN:581,_RNvMs4_NtNtCs5BmVzKVgC1k_10empack_lib11application13session_mocksNtB5_19MockProcessProvider19with_packwiz_result
FN:566,_RNvMs4_NtNtCs5BmVzKVgC1k_10empack_lib11application13session_mocksNtB5_19MockProcessProvider20with_packwiz_version
FN:561,_RNvMs4_NtNtCs5BmVzKVgC1k_10empack_lib11application13session_mocksNtB5_19MockProcessProvider24with_packwiz_unavailable
FN:552,_RNvMs4_NtNtCs5BmVzKVgC1k_10empack_lib11application13session_mocksNtB5_19MockProcessProvider3new
FN:591,_RNvMs4_NtNtCs5BmVzKVgC1k_10empack_lib11application13session_mocksNtB5_19MockProcessProvider9get_calls
FN:671,_RNvMs6_NtNtCs5BmVzKVgC1k_10empack_lib11application13session_mocksNtB5_18MockConfigProvider3new
FN:740,_RNvMs8_NtNtCs5BmVzKVgC1k_10empack_lib11application13session_mocksNtB5_18MockCommandSession10filesystem
FN:719,_RNvMs8_NtNtCs5BmVzKVgC1k_10empack_lib11application13session_mocksNtB5_18MockCommandSession12with_network
FN:724,_RNvMs8_NtNtCs5BmVzKVgC1k_10empack_lib11application13session_mocksNtB5_18MockCommandSession12with_process
FN:714,_RNvMs8_NtNtCs5BmVzKVgC1k_10empack_lib11application13session_mocksNtB5_18MockCommandSession15with_filesystem
FN:693,_RNvMs8_NtNtCs5BmVzKVgC1k_10empack_lib11application13session_mocksNtB5_18MockCommandSession3new
FN:750,_RNvMs8_NtNtCs5BmVzKVgC1k_10empack_lib11application13session_mocksNtB5_18MockCommandSession7process
FN:455,_RNvXs1_NtNtCs5BmVzKVgC1k_10empack_lib11application13session_mocksNtB5_19MockNetworkProviderNtNtB7_7session15NetworkProvider11http_client
FN:463,_RNvXs1_NtNtCs5BmVzKVgC1k_10empack_lib11application13session_mocksNtB5_19MockNetworkProviderNtNtB7_7session15NetworkProvider16project_resolver
FN:512,_RNvXs3_NtNtCs5BmVzKVgC1k_10empack_lib11application13session_mocksNtB5_19MockProjectResolverNtNtNtB9_6empack6search20ProjectResolverTrait15resolve_project
FN:652,_RNvXs5_NtNtCs5BmVzKVgC1k_10empack_lib11application13session_mocksNtB5_19MockProcessProviderNtNtB7_7session15ProcessProvider13check_packwiz
FN:656,_RNvXs5_NtNtCs5BmVzKVgC1k_10empack_lib11application13session_mocksNtB5_19MockProcessProviderNtNtB7_7session15ProcessProvider19get_packwiz_version
FN:618,_RNvXs5_NtNtCs5BmVzKVgC1k_10empack_lib11application13session_mocksNtB5_19MockProcessProviderNtNtB7_7session15ProcessProvider7execute
FN:677,_RNvXs7_NtNtCs5BmVzKVgC1k_10empack_lib11application13session_mocksNtB5_18MockConfigProviderNtNtB7_7session14ConfigProvider10app_config
FN:765,_RNvXs9_NtNtCs5BmVzKVgC1k_10empack_lib11application13session_mocksNtB5_18MockCommandSessionNtNtB7_7session7Session10filesystem
FN:781,_RNvXs9_NtNtCs5BmVzKVgC1k_10empack_lib11application13session_mocksNtB5_18MockCommandSessionNtNtB7_7session7Session5state
FN:777,_RNvXs9_NtNtCs5BmVzKVgC1k_10empack_lib11application13session_mocksNtB5_18MockCommandSessionNtNtB7_7session7Session6config
FN:761,_RNvXs9_NtNtCs5BmVzKVgC1k_10empack_lib11application13session_mocksNtB5_18MockCommandSessionNtNtB7_7session7Session7display
FN:769,_RNvXs9_NtNtCs5BmVzKVgC1k_10empack_lib11application13session_mocksNtB5_18MockCommandSessionNtNtB7_7session7Session7network
FN:773,_RNvXs9_NtNtCs5BmVzKVgC1k_10empack_lib11application13session_mocksNtB5_18MockCommandSessionNtNtB7_7session7Session7process
FN:224,_RNvXs_NtNtCs5BmVzKVgC1k_10empack_lib11application13session_mocksNtB4_22MockFileSystemProviderNtNtB6_7session18FileSystemProvider10write_file
FN:197,_RNvXs_NtNtCs5BmVzKVgC1k_10empack_lib11application13session_mocksNtB4_22MockFileSystemProviderNtNtB6_7session18FileSystemProvider11current_dir
FN:309,_RNvXs_NtNtCs5BmVzKVgC1k_10empack_lib11application13session_mocksNtB4_22MockFileSystemProviderNtNtB6_7session18FileSystemProvider11remove_file
FN:239,_RNvXs_NtNtCs5BmVzKVgC1k_10empack_lib11application13session_mocksNtB4_22MockFileSystemProviderNtNtB6_7session18FileSystemProvider12is_directory
FN:270,_RNvXs_NtNtCs5BmVzKVgC1k_10empack_lib11application13session_mocksNtB4_22MockFileSystemProviderNtNtB6_7session18FileSystemProvider13get_file_list
FN:207,_RNvXs_NtNtCs5BmVzKVgC1k_10empack_lib11application13session_mocksNtB4_22MockFileSystemProviderNtNtB6_7session18FileSystemProvider14config_manager
FN:255,_RNvXs_NtNtCs5BmVzKVgC1k_10empack_lib11application13session_mocksNtB4_22MockFileSystemProviderNtNtB6_7session18FileSystemProvider14create_dir_all
FN:215,_RNvXs_NtNtCs5BmVzKVgC1k_10empack_lib11application13session_mocksNtB4_22MockFileSystemProviderNtNtB6_7session18FileSystemProvider14read_to_string
FN:314,_RNvXs_NtNtCs5BmVzKVgC1k_10empack_lib11application13session_mocksNtB4_22MockFileSystemProviderNtNtB6_7session18FileSystemProvider14remove_dir_all
FN:329,_RNvXs_NtNtCs5BmVzKVgC1k_10empack_lib11application13session_mocksNtB4_22MockFileSystemProviderNtNtB6_7session18FileSystemProvider16run_packwiz_init
FN:203,_RNvXs_NtNtCs5BmVzKVgC1k_10empack_lib11application13session_mocksNtB4_22MockFileSystemProviderNtNtB6_7session18FileSystemProvider18get_installed_mods
FN:292,_RNvXs_NtNtCs5BmVzKVgC1k_10empack_lib11application13session_mocksNtB4_22MockFileSystemProviderNtNtB6_7session18FileSystemProvider19has_build_artifacts
FN:381,_RNvXs_NtNtCs5BmVzKVgC1k_10empack_lib11application13session_mocksNtB4_22MockFileSystemProviderNtNtB6_7session18FileSystemProvider19run_packwiz_refresh
FN:395,_RNvXs_NtNtCs5BmVzKVgC1k_10empack_lib11application13session_mocksNtB4_22MockFileSystemProviderNtNtB6_7session18FileSystemProvider28get_bootstrap_jar_cache_path
FN:232,_RNvXs_NtNtCs5BmVzKVgC1k_10empack_lib11application13session_mocksNtB4_22MockFileSystemProviderNtNtB6_7session18FileSystemProvider6exists
FN:600,_RNCNvMs4_NtNtCs5BmVzKVgC1k_10empack_lib11application13session_mocksNtB7_19MockProcessProvider21get_calls_for_command0Bb_
FN:69,_RNvMNtNtCs5BmVzKVgC1k_10empack_lib11application13session_mocksNtB2_22MockFileSystemProvider10with_files
FN:179,_RNvMNtNtCs5BmVzKVgC1k_10empack_lib11application13session_mocksNtB2_22MockFileSystemProvider18with_built_project
FN:75,_RNvMNtNtCs5BmVzKVgC1k_10empack_lib11application13session_mocksNtB2_22MockFileSystemProvider19with_empack_project
FN:444,_RNvMs0_NtNtCs5BmVzKVgC1k_10empack_lib11application13session_mocksNtB5_19MockNetworkProvider19with_error_response
FN:489,_RNvMs2_NtNtCs5BmVzKVgC1k_10empack_lib11application13session_mocksNtB5_19MockProjectResolver13with_response
FN:502,_RNvMs2_NtNtCs5BmVzKVgC1k_10empack_lib11application13session_mocksNtB5_19MockProjectResolver19with_error_response
FN:494,_RNvMs2_NtNtCs5BmVzKVgC1k_10empack_lib11application13session_mocksNtB5_19MockProjectResolver21with_project_response
FN:596,_RNvMs4_NtNtCs5BmVzKVgC1k_10empack_lib11application13session_mocksNtB5_19MockProcessProvider21get_calls_for_command
FN:729,_RNvMs8_NtNtCs5BmVzKVgC1k_10empack_lib11application13session_mocksNtB5_18MockCommandSession11with_config
FN:755,_RNvMs8_NtNtCs5BmVzKVgC1k_10empack_lib11application13session_mocksNtB5_18MockCommandSession6config
FN:735,_RNvMs8_NtNtCs5BmVzKVgC1k_10empack_lib11application13session_mocksNtB5_18MockCommandSession7display
FN:745,_RNvMs8_NtNtCs5BmVzKVgC1k_10empack_lib11application13session_mocksNtB5_18MockCommandSession7network
FN:852,_RNvNtNtNtCs5BmVzKVgC1k_10empack_lib11application13session_mocks5testss_25test_mock_command_session
FN:812,_RNvNtNtNtCs5BmVzKVgC1k_10empack_lib11application13session_mocks5testss_26test_mock_process_provider
FN:796,_RNvNtNtNtCs5BmVzKVgC1k_10empack_lib11application13session_mocks5testss_29test_mock_filesystem_provider
FNDA:0,_RNCNvMs4_NtNtCshmQA5Mrgi1L_10empack_lib11application13session_mocksNtB7_19MockProcessProvider11verify_call0Bb_
FNDA:0,_RNCNvMs4_NtNtCshmQA5Mrgi1L_10empack_lib11application13session_mocksNtB7_19MockProcessProvider21get_calls_for_command0Bb_
FNDA:0,_RNCNvXs1_NtNtCshmQA5Mrgi1L_10empack_lib11application13session_mocksNtB7_19MockNetworkProviderNtNtB9_7session15NetworkProvider11http_client0Bb_
FNDA:0,_RNCNvXs3_NtNtCshmQA5Mrgi1L_10empack_lib11application13session_mocksNtB7_19MockProjectResolverNtNtNtBb_6empack6search20ProjectResolverTrait15resolve_project0Bb_
FNDA:3,_RNCNvXs5_NtNtCshmQA5Mrgi1L_10empack_lib11application13session_mocksNtB7_19MockProcessProviderNtNtB9_7session15ProcessProvider7execute0Bb_
FNDA:3,_RNCNvXs5_NtNtCshmQA5Mrgi1L_10empack_lib11application13session_mocksNtB7_19MockProcessProviderNtNtB9_7session15ProcessProvider7executes_0Bb_
FNDA:0,_RNCNvXs_NtNtCshmQA5Mrgi1L_10empack_lib11application13session_mocksNtB6_22MockFileSystemProviderNtNtB8_7session18FileSystemProvider14remove_dir_all0Ba_
FNDA:0,_RNCNvXs_NtNtCshmQA5Mrgi1L_10empack_lib11application13session_mocksNtB6_22MockFileSystemProviderNtNtB8_7session18FileSystemProvider16run_packwiz_init0Ba_
FNDA:0,_RNCNvXs_NtNtCshmQA5Mrgi1L_10empack_lib11application13session_mocksNtB6_22MockFileSystemProviderNtNtB8_7session18FileSystemProvider16run_packwiz_inits_0Ba_
FNDA:0,_RNvMNtNtCshmQA5Mrgi1L_10empack_lib11application13session_mocksNtB2_22MockFileSystemProvider10with_files
FNDA:0,_RNvMNtNtCshmQA5Mrgi1L_10empack_lib11application13session_mocksNtB2_22MockFileSystemProvider16with_current_dir
FNDA:0,_RNvMNtNtCshmQA5Mrgi1L_10empack_lib11application13session_mocksNtB2_22MockFileSystemProvider18with_built_project
FNDA:0,_RNvMNtNtCshmQA5Mrgi1L_10empack_lib11application13session_mocksNtB2_22MockFileSystemProvider19with_empack_project
FNDA:0,_RNvMNtNtCshmQA5Mrgi1L_10empack_lib11application13session_mocksNtB2_22MockFileSystemProvider19with_installed_mods
FNDA:0,_RNvMNtNtCshmQA5Mrgi1L_10empack_lib11application13session_mocksNtB2_22MockFileSystemProvider23with_configured_project
FNDA:0,_RNvMNtNtCshmQA5Mrgi1L_10empack_lib11application13session_mocksNtB2_22MockFileSystemProvider3new
FNDA:0,_RNvMNtNtCshmQA5Mrgi1L_10empack_lib11application13session_mocksNtB2_22MockFileSystemProvider9with_file
FNDA:0,_RNvMs0_NtNtCshmQA5Mrgi1L_10empack_lib11application13session_mocksNtB5_19MockNetworkProvider19with_error_response
FNDA:0,_RNvMs0_NtNtCshmQA5Mrgi1L_10empack_lib11application13session_mocksNtB5_19MockNetworkProvider21with_project_response
FNDA:0,_RNvMs0_NtNtCshmQA5Mrgi1L_10empack_lib11application13session_mocksNtB5_19MockNetworkProvider3new
FNDA:0,_RNvMs2_NtNtCshmQA5Mrgi1L_10empack_lib11application13session_mocksNtB5_19MockProjectResolver13with_response
FNDA:0,_RNvMs2_NtNtCshmQA5Mrgi1L_10empack_lib11application13session_mocksNtB5_19MockProjectResolver19with_error_response
FNDA:0,_RNvMs2_NtNtCshmQA5Mrgi1L_10empack_lib11application13session_mocksNtB5_19MockProjectResolver21with_project_response
FNDA:0,_RNvMs2_NtNtCshmQA5Mrgi1L_10empack_lib11application13session_mocksNtB5_19MockProjectResolver3new
FNDA:0,_RNvMs4_NtNtCshmQA5Mrgi1L_10empack_lib11application13session_mocksNtB5_19MockProcessProvider11verify_call
FNDA:0,_RNvMs4_NtNtCshmQA5Mrgi1L_10empack_lib11application13session_mocksNtB5_19MockProcessProvider11with_result
FNDA:1,_RNvMs4_NtNtCshmQA5Mrgi1L_10empack_lib11application13session_mocksNtB5_19MockProcessProvider19with_packwiz_result
FNDA:0,_RNvMs4_NtNtCshmQA5Mrgi1L_10empack_lib11application13session_mocksNtB5_19MockProcessProvider20with_packwiz_version
FNDA:0,_RNvMs4_NtNtCshmQA5Mrgi1L_10empack_lib11application13session_mocksNtB5_19MockProcessProvider21get_calls_for_command
FNDA:0,_RNvMs4_NtNtCshmQA5Mrgi1L_10empack_lib11application13session_mocksNtB5_19MockProcessProvider24with_packwiz_unavailable
FNDA:1,_RNvMs4_NtNtCshmQA5Mrgi1L_10empack_lib11application13session_mocksNtB5_19MockProcessProvider3new
FNDA:0,_RNvMs4_NtNtCshmQA5Mrgi1L_10empack_lib11application13session_mocksNtB5_19MockProcessProvider9get_calls
FNDA:0,_RNvMs6_NtNtCshmQA5Mrgi1L_10empack_lib11application13session_mocksNtB5_18MockConfigProvider3new
FNDA:0,_RNvMs8_NtNtCshmQA5Mrgi1L_10empack_lib11application13session_mocksNtB5_18MockCommandSession10filesystem
FNDA:0,_RNvMs8_NtNtCshmQA5Mrgi1L_10empack_lib11application13session_mocksNtB5_18MockCommandSession11with_config
FNDA:0,_RNvMs8_NtNtCshmQA5Mrgi1L_10empack_lib11application13session_mocksNtB5_18MockCommandSession12with_network
FNDA:0,_RNvMs8_NtNtCshmQA5Mrgi1L_10empack_lib11application13session_mocksNtB5_18MockCommandSession12with_process
FNDA:0,_RNvMs8_NtNtCshmQA5Mrgi1L_10empack_lib11application13session_mocksNtB5_18MockCommandSession15with_filesystem
FNDA:0,_RNvMs8_NtNtCshmQA5Mrgi1L_10empack_lib11application13session_mocksNtB5_18MockCommandSession3new
FNDA:0,_RNvMs8_NtNtCshmQA5Mrgi1L_10empack_lib11application13session_mocksNtB5_18MockCommandSession6config
FNDA:0,_RNvMs8_NtNtCshmQA5Mrgi1L_10empack_lib11application13session_mocksNtB5_18MockCommandSession7display
FNDA:0,_RNvMs8_NtNtCshmQA5Mrgi1L_10empack_lib11application13session_mocksNtB5_18MockCommandSession7network
FNDA:0,_RNvMs8_NtNtCshmQA5Mrgi1L_10empack_lib11application13session_mocksNtB5_18MockCommandSession7process
FNDA:0,_RNvXs1_NtNtCshmQA5Mrgi1L_10empack_lib11application13session_mocksNtB5_19MockNetworkProviderNtNtB7_7session15NetworkProvider11http_client
FNDA:0,_RNvXs1_NtNtCshmQA5Mrgi1L_10empack_lib11application13session_mocksNtB5_19MockNetworkProviderNtNtB7_7session15NetworkProvider16project_resolver
FNDA:0,_RNvXs3_NtNtCshmQA5Mrgi1L_10empack_lib11application13session_mocksNtB5_19MockProjectResolverNtNtNtB9_6empack6search20ProjectResolverTrait15resolve_project
FNDA:0,_RNvXs5_NtNtCshmQA5Mrgi1L_10empack_lib11application13session_mocksNtB5_19MockProcessProviderNtNtB7_7session15ProcessProvider13check_packwiz
FNDA:0,_RNvXs5_NtNtCshmQA5Mrgi1L_10empack_lib11application13session_mocksNtB5_19MockProcessProviderNtNtB7_7session15ProcessProvider19get_packwiz_version
FNDA:1,_RNvXs5_NtNtCshmQA5Mrgi1L_10empack_lib11application13session_mocksNtB5_19MockProcessProviderNtNtB7_7session15ProcessProvider7execute
FNDA:0,_RNvXs7_NtNtCshmQA5Mrgi1L_10empack_lib11application13session_mocksNtB5_18MockConfigProviderNtNtB7_7session14ConfigProvider10app_config
FNDA:0,_RNvXs9_NtNtCshmQA5Mrgi1L_10empack_lib11application13session_mocksNtB5_18MockCommandSessionNtNtB7_7session7Session10filesystem
FNDA:0,_RNvXs9_NtNtCshmQA5Mrgi1L_10empack_lib11application13session_mocksNtB5_18MockCommandSessionNtNtB7_7session7Session5state
FNDA:0,_RNvXs9_NtNtCshmQA5Mrgi1L_10empack_lib11application13session_mocksNtB5_18MockCommandSessionNtNtB7_7session7Session6config
FNDA:0,_RNvXs9_NtNtCshmQA5Mrgi1L_10empack_lib11application13session_mocksNtB5_18MockCommandSessionNtNtB7_7session7Session7display
FNDA:0,_RNvXs9_NtNtCshmQA5Mrgi1L_10empack_lib11application13session_mocksNtB5_18MockCommandSessionNtNtB7_7session7Session7network
FNDA:0,_RNvXs9_NtNtCshmQA5Mrgi1L_10empack_lib11application13session_mocksNtB5_18MockCommandSessionNtNtB7_7session7Session7process
FNDA:0,_RNvXs_NtNtCshmQA5Mrgi1L_10empack_lib11application13session_mocksNtB4_22MockFileSystemProviderNtNtB6_7session18FileSystemProvider10write_file
FNDA:0,_RNvXs_NtNtCshmQA5Mrgi1L_10empack_lib11application13session_mocksNtB4_22MockFileSystemProviderNtNtB6_7session18FileSystemProvider11current_dir
FNDA:0,_RNvXs_NtNtCshmQA5Mrgi1L_10empack_lib11application13session_mocksNtB4_22MockFileSystemProviderNtNtB6_7session18FileSystemProvider11remove_file
FNDA:0,_RNvXs_NtNtCshmQA5Mrgi1L_10empack_lib11application13session_mocksNtB4_22MockFileSystemProviderNtNtB6_7session18FileSystemProvider12is_directory
FNDA:0,_RNvXs_NtNtCshmQA5Mrgi1L_10empack_lib11application13session_mocksNtB4_22MockFileSystemProviderNtNtB6_7session18FileSystemProvider13get_file_list
FNDA:0,_RNvXs_NtNtCshmQA5Mrgi1L_10empack_lib11application13session_mocksNtB4_22MockFileSystemProviderNtNtB6_7session18FileSystemProvider14config_manager
FNDA:0,_RNvXs_NtNtCshmQA5Mrgi1L_10empack_lib11application13session_mocksNtB4_22MockFileSystemProviderNtNtB6_7session18FileSystemProvider14create_dir_all
FNDA:0,_RNvXs_NtNtCshmQA5Mrgi1L_10empack_lib11application13session_mocksNtB4_22MockFileSystemProviderNtNtB6_7session18FileSystemProvider14read_to_string
FNDA:0,_RNvXs_NtNtCshmQA5Mrgi1L_10empack_lib11application13session_mocksNtB4_22MockFileSystemProviderNtNtB6_7session18FileSystemProvider14remove_dir_all
FNDA:0,_RNvXs_NtNtCshmQA5Mrgi1L_10empack_lib11application13session_mocksNtB4_22MockFileSystemProviderNtNtB6_7session18FileSystemProvider16run_packwiz_init
FNDA:0,_RNvXs_NtNtCshmQA5Mrgi1L_10empack_lib11application13session_mocksNtB4_22MockFileSystemProviderNtNtB6_7session18FileSystemProvider18get_installed_mods
FNDA:0,_RNvXs_NtNtCshmQA5Mrgi1L_10empack_lib11application13session_mocksNtB4_22MockFileSystemProviderNtNtB6_7session18FileSystemProvider19has_build_artifacts
FNDA:0,_RNvXs_NtNtCshmQA5Mrgi1L_10empack_lib11application13session_mocksNtB4_22MockFileSystemProviderNtNtB6_7session18FileSystemProvider19run_packwiz_refresh
FNDA:0,_RNvXs_NtNtCshmQA5Mrgi1L_10empack_lib11application13session_mocksNtB4_22MockFileSystemProviderNtNtB6_7session18FileSystemProvider28get_bootstrap_jar_cache_path
FNDA:0,_RNvXs_NtNtCshmQA5Mrgi1L_10empack_lib11application13session_mocksNtB4_22MockFileSystemProviderNtNtB6_7session18FileSystemProvider6exists
FNDA:14,_RNCNvMs4_NtNtCs5BmVzKVgC1k_10empack_lib11application13session_mocksNtB7_19MockProcessProvider11verify_call0Bb_
FNDA:0,_RNCNvXs1_NtNtCs5BmVzKVgC1k_10empack_lib11application13session_mocksNtB7_19MockNetworkProviderNtNtB9_7session15NetworkProvider11http_client0Bb_
FNDA:4,_RNCNvXs3_NtNtCs5BmVzKVgC1k_10empack_lib11application13session_mocksNtB7_19MockProjectResolverNtNtNtBb_6empack6search20ProjectResolverTrait15resolve_project0Bb_
FNDA:107,_RNCNvXs5_NtNtCs5BmVzKVgC1k_10empack_lib11application13session_mocksNtB7_19MockProcessProviderNtNtB9_7session15ProcessProvider7execute0Bb_
FNDA:107,_RNCNvXs5_NtNtCs5BmVzKVgC1k_10empack_lib11application13session_mocksNtB7_19MockProcessProviderNtNtB9_7session15ProcessProvider7executes_0Bb_
FNDA:2,_RNCNvXs_NtNtCs5BmVzKVgC1k_10empack_lib11application13session_mocksNtB6_22MockFileSystemProviderNtNtB8_7session18FileSystemProvider14remove_dir_all0Ba_
FNDA:0,_RNCNvXs_NtNtCs5BmVzKVgC1k_10empack_lib11application13session_mocksNtB6_22MockFileSystemProviderNtNtB8_7session18FileSystemProvider16run_packwiz_init0Ba_
FNDA:0,_RNCNvXs_NtNtCs5BmVzKVgC1k_10empack_lib11application13session_mocksNtB6_22MockFileSystemProviderNtNtB8_7session18FileSystemProvider16run_packwiz_inits_0Ba_
FNDA:63,_RNvMNtNtCs5BmVzKVgC1k_10empack_lib11application13session_mocksNtB2_22MockFileSystemProvider16with_current_dir
FNDA:5,_RNvMNtNtCs5BmVzKVgC1k_10empack_lib11application13session_mocksNtB2_22MockFileSystemProvider19with_installed_mods
FNDA:18,_RNvMNtNtCs5BmVzKVgC1k_10empack_lib11application13session_mocksNtB2_22MockFileSystemProvider23with_configured_project
FNDA:109,_RNvMNtNtCs5BmVzKVgC1k_10empack_lib11application13session_mocksNtB2_22MockFileSystemProvider3new
FNDA:90,_RNvMNtNtCs5BmVzKVgC1k_10empack_lib11application13session_mocksNtB2_22MockFileSystemProvider9with_file
FNDA:1,_RNvMs0_NtNtCs5BmVzKVgC1k_10empack_lib11application13session_mocksNtB5_19MockNetworkProvider21with_project_response
FNDA:47,_RNvMs0_NtNtCs5BmVzKVgC1k_10empack_lib11application13session_mocksNtB5_19MockNetworkProvider3new
FNDA:47,_RNvMs2_NtNtCs5BmVzKVgC1k_10empack_lib11application13session_mocksNtB5_19MockProjectResolver3new
FNDA:7,_RNvMs4_NtNtCs5BmVzKVgC1k_10empack_lib11application13session_mocksNtB5_19MockProcessProvider11verify_call
FNDA:1,_RNvMs4_NtNtCs5BmVzKVgC1k_10empack_lib11application13session_mocksNtB5_19MockProcessProvider11with_result
FNDA:4,_RNvMs4_NtNtCs5BmVzKVgC1k_10empack_lib11application13session_mocksNtB5_19MockProcessProvider19with_packwiz_result
FNDA:2,_RNvMs4_NtNtCs5BmVzKVgC1k_10empack_lib11application13session_mocksNtB5_19MockProcessProvider20with_packwiz_version
FNDA:2,_RNvMs4_NtNtCs5BmVzKVgC1k_10empack_lib11application13session_mocksNtB5_19MockProcessProvider24with_packwiz_unavailable
FNDA:55,_RNvMs4_NtNtCs5BmVzKVgC1k_10empack_lib11application13session_mocksNtB5_19MockProcessProvider3new
FNDA:13,_RNvMs4_NtNtCs5BmVzKVgC1k_10empack_lib11application13session_mocksNtB5_19MockProcessProvider9get_calls
FNDA:45,_RNvMs6_NtNtCs5BmVzKVgC1k_10empack_lib11application13session_mocksNtB5_18MockConfigProvider3new
FNDA:92,_RNvMs8_NtNtCs5BmVzKVgC1k_10empack_lib11application13session_mocksNtB5_18MockCommandSession10filesystem
FNDA:1,_RNvMs8_NtNtCs5BmVzKVgC1k_10empack_lib11application13session_mocksNtB5_18MockCommandSession12with_network
FNDA:9,_RNvMs8_NtNtCs5BmVzKVgC1k_10empack_lib11application13session_mocksNtB5_18MockCommandSession12with_process
FNDA:33,_RNvMs8_NtNtCs5BmVzKVgC1k_10empack_lib11application13session_mocksNtB5_18MockCommandSession15with_filesystem
FNDA:45,_RNvMs8_NtNtCs5BmVzKVgC1k_10empack_lib11application13session_mocksNtB5_18MockCommandSession3new
FNDA:3,_RNvMs8_NtNtCs5BmVzKVgC1k_10empack_lib11application13session_mocksNtB5_18MockCommandSession7process
FNDA:3,_RNvXs1_NtNtCs5BmVzKVgC1k_10empack_lib11application13session_mocksNtB5_19MockNetworkProviderNtNtB7_7session15NetworkProvider11http_client
FNDA:3,_RNvXs1_NtNtCs5BmVzKVgC1k_10empack_lib11application13session_mocksNtB5_19MockNetworkProviderNtNtB7_7session15NetworkProvider16project_resolver
FNDA:4,_RNvXs3_NtNtCs5BmVzKVgC1k_10empack_lib11application13session_mocksNtB5_19MockProjectResolverNtNtNtB9_6empack6search20ProjectResolverTrait15resolve_project
FNDA:6,_RNvXs5_NtNtCs5BmVzKVgC1k_10empack_lib11application13session_mocksNtB5_19MockProcessProviderNtNtB7_7session15ProcessProvider13check_packwiz
FNDA:1,_RNvXs5_NtNtCs5BmVzKVgC1k_10empack_lib11application13session_mocksNtB5_19MockProcessProviderNtNtB7_7session15ProcessProvider19get_packwiz_version
FNDA:29,_RNvXs5_NtNtCs5BmVzKVgC1k_10empack_lib11application13session_mocksNtB5_19MockProcessProviderNtNtB7_7session15ProcessProvider7execute
FNDA:24,_RNvXs7_NtNtCs5BmVzKVgC1k_10empack_lib11application13session_mocksNtB5_18MockConfigProviderNtNtB7_7session14ConfigProvider10app_config
FNDA:238,_RNvXs9_NtNtCs5BmVzKVgC1k_10empack_lib11application13session_mocksNtB5_18MockCommandSessionNtNtB7_7session7Session10filesystem
FNDA:39,_RNvXs9_NtNtCs5BmVzKVgC1k_10empack_lib11application13session_mocksNtB5_18MockCommandSessionNtNtB7_7session7Session5state
FNDA:24,_RNvXs9_NtNtCs5BmVzKVgC1k_10empack_lib11application13session_mocksNtB5_18MockCommandSessionNtNtB7_7session7Session6config
FNDA:107,_RNvXs9_NtNtCs5BmVzKVgC1k_10empack_lib11application13session_mocksNtB5_18MockCommandSessionNtNtB7_7session7Session7display
FNDA:6,_RNvXs9_NtNtCs5BmVzKVgC1k_10empack_lib11application13session_mocksNtB5_18MockCommandSessionNtNtB7_7session7Session7network
FNDA:29,_RNvXs9_NtNtCs5BmVzKVgC1k_10empack_lib11application13session_mocksNtB5_18MockCommandSessionNtNtB7_7session7Session7process
FNDA:50,_RNvXs_NtNtCs5BmVzKVgC1k_10empack_lib11application13session_mocksNtB4_22MockFileSystemProviderNtNtB6_7session18FileSystemProvider10write_file
FNDA:61,_RNvXs_NtNtCs5BmVzKVgC1k_10empack_lib11application13session_mocksNtB4_22MockFileSystemProviderNtNtB6_7session18FileSystemProvider11current_dir
FNDA:3,_RNvXs_NtNtCs5BmVzKVgC1k_10empack_lib11application13session_mocksNtB4_22MockFileSystemProviderNtNtB6_7session18FileSystemProvider11remove_file
FNDA:186,_RNvXs_NtNtCs5BmVzKVgC1k_10empack_lib11application13session_mocksNtB4_22MockFileSystemProviderNtNtB6_7session18FileSystemProvider12is_directory
FNDA:48,_RNvXs_NtNtCs5BmVzKVgC1k_10empack_lib11application13session_mocksNtB4_22MockFileSystemProviderNtNtB6_7session18FileSystemProvider13get_file_list
FNDA:36,_RNvXs_NtNtCs5BmVzKVgC1k_10empack_lib11application13session_mocksNtB4_22MockFileSystemProviderNtNtB6_7session18FileSystemProvider14config_manager
FNDA:53,_RNvXs_NtNtCs5BmVzKVgC1k_10empack_lib11application13session_mocksNtB4_22MockFileSystemProviderNtNtB6_7session18FileSystemProvider14create_dir_all
FNDA:77,_RNvXs_NtNtCs5BmVzKVgC1k_10empack_lib11application13session_mocksNtB4_22MockFileSystemProviderNtNtB6_7session18FileSystemProvider14read_to_string
FNDA:1,_RNvXs_NtNtCs5BmVzKVgC1k_10empack_lib11application13session_mocksNtB4_22MockFileSystemProviderNtNtB6_7session18FileSystemProvider14remove_dir_all
FNDA:0,_RNvXs_NtNtCs5BmVzKVgC1k_10empack_lib11application13session_mocksNtB4_22MockFileSystemProviderNtNtB6_7session18FileSystemProvider16run_packwiz_init
FNDA:1,_RNvXs_NtNtCs5BmVzKVgC1k_10empack_lib11application13session_mocksNtB4_22MockFileSystemProviderNtNtB6_7session18FileSystemProvider18get_installed_mods
FNDA:0,_RNvXs_NtNtCs5BmVzKVgC1k_10empack_lib11application13session_mocksNtB4_22MockFileSystemProviderNtNtB6_7session18FileSystemProvider19has_build_artifacts
FNDA:0,_RNvXs_NtNtCs5BmVzKVgC1k_10empack_lib11application13session_mocksNtB4_22MockFileSystemProviderNtNtB6_7session18FileSystemProvider19run_packwiz_refresh
FNDA:7,_RNvXs_NtNtCs5BmVzKVgC1k_10empack_lib11application13session_mocksNtB4_22MockFileSystemProviderNtNtB6_7session18FileSystemProvider28get_bootstrap_jar_cache_path
FNDA:151,_RNvXs_NtNtCs5BmVzKVgC1k_10empack_lib11application13session_mocksNtB4_22MockFileSystemProviderNtNtB6_7session18FileSystemProvider6exists
FNDA:0,_RNCNvMs4_NtNtCs5BmVzKVgC1k_10empack_lib11application13session_mocksNtB7_19MockProcessProvider21get_calls_for_command0Bb_
FNDA:0,_RNvMNtNtCs5BmVzKVgC1k_10empack_lib11application13session_mocksNtB2_22MockFileSystemProvider10with_files
FNDA:0,_RNvMNtNtCs5BmVzKVgC1k_10empack_lib11application13session_mocksNtB2_22MockFileSystemProvider18with_built_project
FNDA:0,_RNvMNtNtCs5BmVzKVgC1k_10empack_lib11application13session_mocksNtB2_22MockFileSystemProvider19with_empack_project
FNDA:0,_RNvMs0_NtNtCs5BmVzKVgC1k_10empack_lib11application13session_mocksNtB5_19MockNetworkProvider19with_error_response
FNDA:0,_RNvMs2_NtNtCs5BmVzKVgC1k_10empack_lib11application13session_mocksNtB5_19MockProjectResolver13with_response
FNDA:0,_RNvMs2_NtNtCs5BmVzKVgC1k_10empack_lib11application13session_mocksNtB5_19MockProjectResolver19with_error_response
FNDA:0,_RNvMs2_NtNtCs5BmVzKVgC1k_10empack_lib11application13session_mocksNtB5_19MockProjectResolver21with_project_response
FNDA:0,_RNvMs4_NtNtCs5BmVzKVgC1k_10empack_lib11application13session_mocksNtB5_19MockProcessProvider21get_calls_for_command
FNDA:0,_RNvMs8_NtNtCs5BmVzKVgC1k_10empack_lib11application13session_mocksNtB5_18MockCommandSession11with_config
FNDA:0,_RNvMs8_NtNtCs5BmVzKVgC1k_10empack_lib11application13session_mocksNtB5_18MockCommandSession6config
FNDA:0,_RNvMs8_NtNtCs5BmVzKVgC1k_10empack_lib11application13session_mocksNtB5_18MockCommandSession7display
FNDA:0,_RNvMs8_NtNtCs5BmVzKVgC1k_10empack_lib11application13session_mocksNtB5_18MockCommandSession7network
FNDA:1,_RNvNtNtNtCs5BmVzKVgC1k_10empack_lib11application13session_mocks5testss_25test_mock_command_session
FNDA:1,_RNvNtNtNtCs5BmVzKVgC1k_10empack_lib11application13session_mocks5testss_26test_mock_process_provider
FNDA:1,_RNvNtNtNtCs5BmVzKVgC1k_10empack_lib11application13session_mocks5testss_29test_mock_filesystem_provider
FNF:74
FNH:55
DA:35,109
DA:36,109
DA:37,109
DA:38,109
DA:39,109
DA:40,109
DA:41,109
DA:42,109
DA:43,109
DA:44,109
DA:46,63
DA:47,63
DA:48,63
DA:49,63
DA:50,63
DA:52,5
DA:53,5
DA:54,5
DA:55,5
DA:57,90
DA:59,90
DA:60,90
DA:61,90
DA:62,90
DA:63,90
DA:64,90
DA:65,90
DA:66,90
DA:67,90
DA:69,0
DA:70,0
DA:71,0
DA:72,0
DA:75,0
DA:76,0
DA:77,0
DA:78,0
DA:79,0
DA:80,0
DA:81,0
DA:82,0
DA:83,0
DA:84,0
DA:85,0
DA:86,0
DA:87,0
DA:88,0
DA:89,0
DA:90,0
DA:91,0
DA:92,0
DA:96,0
DA:97,0
DA:98,0
DA:99,0
DA:100,0
DA:101,0
DA:102,0
DA:103,0
DA:104,0
DA:105,0
DA:106,0
DA:107,0
DA:108,0
DA:109,0
DA:110,0
DA:114,0
DA:115,0
DA:116,0
DA:117,0
DA:118,0
DA:119,0
DA:121,0
DA:122,0
DA:123,0
DA:124,0
DA:126,0
DA:127,0
DA:128,0
DA:130,0
DA:133,18
DA:134,18
DA:135,18
DA:136,18
DA:137,18
DA:138,18
DA:139,18
DA:140,18
DA:141,18
DA:142,18
DA:143,18
DA:145,18
DA:146,18
DA:147,18
DA:148,18
DA:149,18
DA:150,18
DA:151,18
DA:152,18
DA:153,18
DA:154,18
DA:155,18
DA:156,18
DA:157,18
DA:158,18
DA:160,18
DA:161,18
DA:162,18
DA:163,18
DA:164,18
DA:165,18
DA:167,18
DA:168,18
DA:169,18
DA:170,18
DA:172,18
DA:173,18
DA:174,18
DA:176,18
DA:179,0
DA:180,0
DA:183,0
DA:184,0
DA:185,0
DA:187,0
DA:188,0
DA:189,0
DA:190,0
DA:192,0
DA:193,0
DA:197,61
DA:198,61
DA:199,61
DA:203,1
DA:204,1
DA:205,1
DA:207,36
DA:208,36
DA:209,36
DA:210,36
DA:211,36
DA:212,36
DA:213,36
DA:215,77
DA:216,77
DA:217,77
DA:218,77
DA:220,0
DA:222,77
DA:224,50
DA:225,50
DA:226,50
DA:227,50
DA:228,50
DA:229,50
DA:230,50
DA:232,151
DA:234,151
DA:235,83
DA:236,77
DA:237,151
DA:239,186
DA:241,186
DA:242,186
DA:243,60
DA:244,126
DA:247,126
DA:248,0
DA:249,126
DA:252,126
DA:253,186
DA:255,53
DA:257,53
DA:259,53
DA:260,339
DA:261,286
DA:262,286
DA:263,286
DA:264,286
DA:265,286
DA:266,286
DA:267,53
DA:268,53
DA:270,48
DA:271,48
DA:272,48
DA:273,48
DA:276,211
DA:277,211
DA:278,44
DA:279,167
DA:283,279
DA:284,279
DA:285,35
DA:286,244
DA:289,48
DA:290,48
DA:292,0
DA:293,0
DA:295,0
DA:296,0
DA:297,0
DA:298,0
DA:299,0
DA:300,0
DA:302,0
DA:303,0
DA:306,0
DA:307,0
DA:309,3
DA:310,3
DA:311,3
DA:312,3
DA:314,1
DA:315,1
DA:316,1
DA:317,1
DA:318,2
DA:319,1
DA:320,1
DA:322,3
DA:323,2
DA:324,2
DA:326,1
DA:327,1
DA:329,0
DA:330,0
DA:331,0
DA:332,0
DA:333,0
DA:334,0
DA:335,0
DA:336,0
DA:337,0
DA:338,0
DA:340,0
DA:341,0
DA:342,0
DA:343,0
DA:344,0
DA:345,0
DA:346,0
DA:347,0
DA:348,0
DA:349,0
DA:350,0
DA:351,0
DA:352,0
DA:353,0
DA:354,0
DA:355,0
DA:356,0
DA:359,0
DA:360,0
DA:361,0
DA:362,0
DA:365,0
DA:366,0
DA:367,0
DA:368,0
DA:369,0
DA:370,0
DA:371,0
DA:372,0
DA:373,0
DA:374,0
DA:375,0
DA:376,0
DA:378,0
DA:379,0
DA:381,0
DA:382,0
DA:383,0
DA:384,0
DA:386,0
DA:387,0
DA:388,0
DA:389,0
DA:390,0
DA:391,0
DA:392,0
DA:393,0
DA:395,7
DA:397,7
DA:398,7
DA:399,7
DA:400,7
DA:403,7
DA:404,4
DA:405,4
DA:406,4
DA:407,4
DA:408,4
DA:409,4
DA:410,4
DA:411,4
DA:412,4
DA:413,4
DA:415,7
DA:416,7
DA:427,47
DA:428,47
DA:429,47
DA:430,47
DA:431,47
DA:432,47
DA:433,47
DA:435,1
DA:436,1
DA:437,1
DA:438,1
DA:439,1
DA:440,1
DA:441,1
DA:442,1
DA:444,0
DA:445,0
DA:446,0
DA:447,0
DA:448,0
DA:449,0
DA:450,0
DA:451,0
DA:455,3
DA:456,3
DA:457,3
DA:458,3
DA:459,3
DA:460,3
DA:461,3
DA:463,3
DA:464,3
DA:465,3
DA:466,3
DA:467,3
DA:468,3
DA:469,3
DA:470,3
DA:471,3
DA:472,3
DA:473,3
DA:483,47
DA:484,47
DA:485,47
DA:486,47
DA:487,47
DA:489,0
DA:490,0
DA:491,0
DA:492,0
DA:494,0
DA:495,0
DA:496,0
DA:497,0
DA:498,0
DA:499,0
DA:500,0
DA:502,0
DA:503,0
DA:504,0
DA:505,0
DA:506,0
DA:507,0
DA:508,0
DA:512,4
DA:513,4
DA:514,4
DA:515,4
DA:516,4
DA:517,4
DA:518,4
DA:519,4
DA:520,4
DA:522,4
DA:523,4
DA:524,4
DA:525,1
DA:526,0
DA:527,0
DA:528,0
DA:529,3
DA:531,4
DA:532,4
DA:552,56
DA:553,56
DA:554,56
DA:555,56
DA:556,56
DA:557,56
DA:558,56
DA:559,56
DA:561,2
DA:562,2
DA:563,2
DA:564,2
DA:566,2
DA:567,2
DA:568,2
DA:569,2
DA:571,1
DA:572,1
DA:573,1
DA:574,1
DA:575,1
DA:576,1
DA:577,1
DA:578,1
DA:579,1
DA:581,5
DA:582,5
DA:583,5
DA:584,5
DA:585,5
DA:586,5
DA:587,5
DA:588,5
DA:591,13
DA:592,13
DA:593,13
DA:596,0
DA:597,0
DA:598,0
DA:599,0
DA:600,0
DA:601,0
DA:602,0
DA:603,0
DA:606,7
DA:607,7
DA:608,7
DA:609,14
DA:610,7
DA:613,7
DA:614,7
DA:618,30
DA:619,30
DA:620,30
DA:621,30
DA:622,30
DA:623,30
DA:625,30
DA:626,30
DA:627,110
DA:628,30
DA:630,30
DA:633,30
DA:634,30
DA:635,110
DA:637,30
DA:638,5
DA:639,4
DA:640,1
DA:644,25
DA:645,25
DA:646,25
DA:647,25
DA:648,25
DA:650,30
DA:652,6
DA:653,6
DA:654,6
DA:656,1
DA:657,1
DA:658,1
DA:660,0
DA:662,1
DA:671,45
DA:672,45
DA:673,45
DA:677,24
DA:678,24
DA:679,24
DA:693,45
DA:697,45
DA:698,45
DA:699,45
DA:701,45
DA:702,45
DA:704,45
DA:705,45
DA:706,45
DA:707,45
DA:708,45
DA:709,45
DA:710,45
DA:711,45
DA:712,45
DA:714,33
DA:715,33
DA:716,33
DA:717,33
DA:719,1
DA:720,1
DA:721,1
DA:722,1
DA:724,9
DA:725,9
DA:726,9
DA:727,9
DA:729,0
DA:730,0
DA:731,0
DA:732,0
DA:735,0
DA:736,0
DA:737,0
DA:740,92
DA:741,92
DA:742,92
DA:745,0
DA:746,0
DA:747,0
DA:750,3
DA:751,3
DA:752,3
DA:755,0
DA:756,0
DA:757,0
DA:761,107
DA:762,107
DA:763,107
DA:765,238
DA:766,238
DA:767,238
DA:769,6
DA:770,6
DA:771,6
DA:773,29
DA:774,29
DA:775,29
DA:777,24
DA:778,24
DA:779,24
DA:781,39
DA:782,39
DA:783,39
DA:784,39
DA:785,39
DA:786,39
DA:787,39
DA:796,1
DA:797,1
DA:798,1
DA:800,1
DA:801,1
DA:802,1
DA:804,1
DA:805,1
DA:806,1
DA:808,1
DA:809,1
DA:812,1
DA:813,1
DA:814,1
DA:815,1
DA:816,1
DA:817,1
DA:818,1
DA:819,1
DA:822,1
DA:823,1
DA:824,1
DA:826,1
DA:829,1
DA:830,1
DA:831,1
DA:834,1
DA:835,1
DA:838,1
DA:839,1
DA:840,1
DA:841,1
DA:842,1
DA:843,1
DA:846,1
DA:847,1
DA:848,1
DA:849,1
DA:852,1
DA:853,1
DA:854,1
DA:856,1
DA:857,1
DA:858,1
DA:860,1
BRF:0
BRH:0
LF:595
LH:406
end_of_record
SF:/Users/zer0cell/production/empack/crates/empack-lib/src/display/interactive.rs
FN:125,_RNCNvMs0_NtNtCshmQA5Mrgi1L_10empack_lib7display11interactiveNtB7_12SelectPrompt7options0Bb_
FN:238,_RNCNvMs2_NtNtCshmQA5Mrgi1L_10empack_lib7display11interactiveNtB7_18InteractiveDisplay17select_or_default0Bb_
FN:23,_RNvMNtNtCshmQA5Mrgi1L_10empack_lib7display11interactiveNtB2_18InteractiveDisplay3new
FN:73,_RNvMNtNtCshmQA5Mrgi1L_10empack_lib7display11interactiveNtB2_18InteractiveDisplay5input
FN:60,_RNvMNtNtCshmQA5Mrgi1L_10empack_lib7display11interactiveNtB2_18InteractiveDisplay6select
FN:47,_RNvMNtNtCshmQA5Mrgi1L_10empack_lib7display11interactiveNtB2_18InteractiveDisplay7confirm
FN:150,_RNvMs0_NtNtCshmQA5Mrgi1L_10empack_lib7display11interactiveNtB5_12SelectPrompt12interact_opt
FN:144,_RNvMs0_NtNtCshmQA5Mrgi1L_10empack_lib7display11interactiveNtB5_12SelectPrompt14interact_value
FN:114,_RNvMs0_NtNtCshmQA5Mrgi1L_10empack_lib7display11interactiveNtB5_12SelectPrompt3new
FN:133,_RNvMs0_NtNtCshmQA5Mrgi1L_10empack_lib7display11interactiveNtB5_12SelectPrompt7default
FN:124,_RNvMs0_NtNtCshmQA5Mrgi1L_10empack_lib7display11interactiveNtB5_12SelectPrompt7options
FN:139,_RNvMs0_NtNtCshmQA5Mrgi1L_10empack_lib7display11interactiveNtB5_12SelectPrompt8interact
FN:174,_RNvMs1_NtNtCshmQA5Mrgi1L_10empack_lib7display11interactiveNtB5_11InputPrompt11allow_empty
FN:185,_RNvMs1_NtNtCshmQA5Mrgi1L_10empack_lib7display11interactiveNtB5_11InputPrompt13interact_text
FN:161,_RNvMs1_NtNtCshmQA5Mrgi1L_10empack_lib7display11interactiveNtB5_11InputPrompt3new
FN:168,_RNvMs1_NtNtCshmQA5Mrgi1L_10empack_lib7display11interactiveNtB5_11InputPrompt7default
FN:180,_RNvMs1_NtNtCshmQA5Mrgi1L_10empack_lib7display11interactiveNtB5_11InputPrompt8interact
FN:212,_RNvMs2_NtNtCshmQA5Mrgi1L_10empack_lib7display11interactiveNtB5_18InteractiveDisplay14is_interactive
FN:227,_RNvMs2_NtNtCshmQA5Mrgi1L_10empack_lib7display11interactiveNtB5_18InteractiveDisplay17select_or_default
FN:218,_RNvMs2_NtNtCshmQA5Mrgi1L_10empack_lib7display11interactiveNtB5_18InteractiveDisplay18confirm_or_default
FN:203,_RNvMs2_NtNtCshmQA5Mrgi1L_10empack_lib7display11interactiveNtB5_18InteractiveDisplay3ask
FN:198,_RNvMs2_NtNtCshmQA5Mrgi1L_10empack_lib7display11interactiveNtB5_18InteractiveDisplay6choose
FN:193,_RNvMs2_NtNtCshmQA5Mrgi1L_10empack_lib7display11interactiveNtB5_18InteractiveDisplay6yes_no
FN:102,_RNvMs_NtNtCshmQA5Mrgi1L_10empack_lib7display11interactiveNtB4_13ConfirmPrompt12interact_opt
FN:84,_RNvMs_NtNtCshmQA5Mrgi1L_10empack_lib7display11interactiveNtB4_13ConfirmPrompt3new
FN:91,_RNvMs_NtNtCshmQA5Mrgi1L_10empack_lib7display11interactiveNtB4_13ConfirmPrompt7default
FN:97,_RNvMs_NtNtCshmQA5Mrgi1L_10empack_lib7display11interactiveNtB4_13ConfirmPrompt8interact
FN:23,_RNvMNtNtCs5BmVzKVgC1k_10empack_lib7display11interactiveNtB2_18InteractiveDisplay3new
FN:73,_RNvMNtNtCs5BmVzKVgC1k_10empack_lib7display11interactiveNtB2_18InteractiveDisplay5input
FN:60,_RNvMNtNtCs5BmVzKVgC1k_10empack_lib7display11interactiveNtB2_18InteractiveDisplay6select
FN:47,_RNvMNtNtCs5BmVzKVgC1k_10empack_lib7display11interactiveNtB2_18InteractiveDisplay7confirm
FN:114,_RNvMs0_NtNtCs5BmVzKVgC1k_10empack_lib7display11interactiveNtB5_12SelectPrompt3new
FN:124,_RNvMs0_NtNtCs5BmVzKVgC1k_10empack_lib7display11interactiveNtB5_12SelectPrompt7options
FN:139,_RNvMs0_NtNtCs5BmVzKVgC1k_10empack_lib7display11interactiveNtB5_12SelectPrompt8interact
FN:161,_RNvMs1_NtNtCs5BmVzKVgC1k_10empack_lib7display11interactiveNtB5_11InputPrompt3new
FN:180,_RNvMs1_NtNtCs5BmVzKVgC1k_10empack_lib7display11interactiveNtB5_11InputPrompt8interact
FN:84,_RNvMs_NtNtCs5BmVzKVgC1k_10empack_lib7display11interactiveNtB4_13ConfirmPrompt3new
FN:91,_RNvMs_NtNtCs5BmVzKVgC1k_10empack_lib7display11interactiveNtB4_13ConfirmPrompt7default
FN:97,_RNvMs_NtNtCs5BmVzKVgC1k_10empack_lib7display11interactiveNtB4_13ConfirmPrompt8interact
FN:238,_RNCNvMs2_NtNtCs5BmVzKVgC1k_10empack_lib7display11interactiveNtB7_18InteractiveDisplay17select_or_default0Bb_
FN:150,_RNvMs0_NtNtCs5BmVzKVgC1k_10empack_lib7display11interactiveNtB5_12SelectPrompt12interact_opt
FN:144,_RNvMs0_NtNtCs5BmVzKVgC1k_10empack_lib7display11interactiveNtB5_12SelectPrompt14interact_value
FN:133,_RNvMs0_NtNtCs5BmVzKVgC1k_10empack_lib7display11interactiveNtB5_12SelectPrompt7default
FN:174,_RNvMs1_NtNtCs5BmVzKVgC1k_10empack_lib7display11interactiveNtB5_11InputPrompt11allow_empty
FN:185,_RNvMs1_NtNtCs5BmVzKVgC1k_10empack_lib7display11interactiveNtB5_11InputPrompt13interact_text
FN:168,_RNvMs1_NtNtCs5BmVzKVgC1k_10empack_lib7display11interactiveNtB5_11InputPrompt7default
FN:212,_RNvMs2_NtNtCs5BmVzKVgC1k_10empack_lib7display11interactiveNtB5_18InteractiveDisplay14is_interactive
FN:227,_RNvMs2_NtNtCs5BmVzKVgC1k_10empack_lib7display11interactiveNtB5_18InteractiveDisplay17select_or_default
FN:218,_RNvMs2_NtNtCs5BmVzKVgC1k_10empack_lib7display11interactiveNtB5_18InteractiveDisplay18confirm_or_default
FN:203,_RNvMs2_NtNtCs5BmVzKVgC1k_10empack_lib7display11interactiveNtB5_18InteractiveDisplay3ask
FN:198,_RNvMs2_NtNtCs5BmVzKVgC1k_10empack_lib7display11interactiveNtB5_18InteractiveDisplay6choose
FN:193,_RNvMs2_NtNtCs5BmVzKVgC1k_10empack_lib7display11interactiveNtB5_18InteractiveDisplay6yes_no
FN:102,_RNvMs_NtNtCs5BmVzKVgC1k_10empack_lib7display11interactiveNtB4_13ConfirmPrompt12interact_opt
FN:125,_RNCNvMs0_NtNtCs5BmVzKVgC1k_10empack_lib7display11interactiveNtB7_12SelectPrompt7options0Bb_
FNDA:0,_RNCNvMs0_NtNtCshmQA5Mrgi1L_10empack_lib7display11interactiveNtB7_12SelectPrompt7options0Bb_
FNDA:0,_RNCNvMs2_NtNtCshmQA5Mrgi1L_10empack_lib7display11interactiveNtB7_18InteractiveDisplay17select_or_default0Bb_
FNDA:0,_RNvMNtNtCshmQA5Mrgi1L_10empack_lib7display11interactiveNtB2_18InteractiveDisplay3new
FNDA:0,_RNvMNtNtCshmQA5Mrgi1L_10empack_lib7display11interactiveNtB2_18InteractiveDisplay5input
FNDA:0,_RNvMNtNtCshmQA5Mrgi1L_10empack_lib7display11interactiveNtB2_18InteractiveDisplay6select
FNDA:0,_RNvMNtNtCshmQA5Mrgi1L_10empack_lib7display11interactiveNtB2_18InteractiveDisplay7confirm
FNDA:0,_RNvMs0_NtNtCshmQA5Mrgi1L_10empack_lib7display11interactiveNtB5_12SelectPrompt12interact_opt
FNDA:0,_RNvMs0_NtNtCshmQA5Mrgi1L_10empack_lib7display11interactiveNtB5_12SelectPrompt14interact_value
FNDA:0,_RNvMs0_NtNtCshmQA5Mrgi1L_10empack_lib7display11interactiveNtB5_12SelectPrompt3new
FNDA:0,_RNvMs0_NtNtCshmQA5Mrgi1L_10empack_lib7display11interactiveNtB5_12SelectPrompt7default
FNDA:0,_RNvMs0_NtNtCshmQA5Mrgi1L_10empack_lib7display11interactiveNtB5_12SelectPrompt7options
FNDA:0,_RNvMs0_NtNtCshmQA5Mrgi1L_10empack_lib7display11interactiveNtB5_12SelectPrompt8interact
FNDA:0,_RNvMs1_NtNtCshmQA5Mrgi1L_10empack_lib7display11interactiveNtB5_11InputPrompt11allow_empty
FNDA:0,_RNvMs1_NtNtCshmQA5Mrgi1L_10empack_lib7display11interactiveNtB5_11InputPrompt13interact_text
FNDA:0,_RNvMs1_NtNtCshmQA5Mrgi1L_10empack_lib7display11interactiveNtB5_11InputPrompt3new
FNDA:0,_RNvMs1_NtNtCshmQA5Mrgi1L_10empack_lib7display11interactiveNtB5_11InputPrompt7default
FNDA:0,_RNvMs1_NtNtCshmQA5Mrgi1L_10empack_lib7display11interactiveNtB5_11InputPrompt8interact
FNDA:0,_RNvMs2_NtNtCshmQA5Mrgi1L_10empack_lib7display11interactiveNtB5_18InteractiveDisplay14is_interactive
FNDA:0,_RNvMs2_NtNtCshmQA5Mrgi1L_10empack_lib7display11interactiveNtB5_18InteractiveDisplay17select_or_default
FNDA:0,_RNvMs2_NtNtCshmQA5Mrgi1L_10empack_lib7display11interactiveNtB5_18InteractiveDisplay18confirm_or_default
FNDA:0,_RNvMs2_NtNtCshmQA5Mrgi1L_10empack_lib7display11interactiveNtB5_18InteractiveDisplay3ask
FNDA:0,_RNvMs2_NtNtCshmQA5Mrgi1L_10empack_lib7display11interactiveNtB5_18InteractiveDisplay6choose
FNDA:0,_RNvMs2_NtNtCshmQA5Mrgi1L_10empack_lib7display11interactiveNtB5_18InteractiveDisplay6yes_no
FNDA:0,_RNvMs_NtNtCshmQA5Mrgi1L_10empack_lib7display11interactiveNtB4_13ConfirmPrompt12interact_opt
FNDA:0,_RNvMs_NtNtCshmQA5Mrgi1L_10empack_lib7display11interactiveNtB4_13ConfirmPrompt3new
FNDA:0,_RNvMs_NtNtCshmQA5Mrgi1L_10empack_lib7display11interactiveNtB4_13ConfirmPrompt7default
FNDA:0,_RNvMs_NtNtCshmQA5Mrgi1L_10empack_lib7display11interactiveNtB4_13ConfirmPrompt8interact
FNDA:0,_RNvMNtNtCs5BmVzKVgC1k_10empack_lib7display11interactiveNtB2_18InteractiveDisplay3new
FNDA:0,_RNvMNtNtCs5BmVzKVgC1k_10empack_lib7display11interactiveNtB2_18InteractiveDisplay5input
FNDA:0,_RNvMNtNtCs5BmVzKVgC1k_10empack_lib7display11interactiveNtB2_18InteractiveDisplay6select
FNDA:0,_RNvMNtNtCs5BmVzKVgC1k_10empack_lib7display11interactiveNtB2_18InteractiveDisplay7confirm
FNDA:0,_RNvMs0_NtNtCs5BmVzKVgC1k_10empack_lib7display11interactiveNtB5_12SelectPrompt3new
FNDA:0,_RNvMs0_NtNtCs5BmVzKVgC1k_10empack_lib7display11interactiveNtB5_12SelectPrompt7options
FNDA:0,_RNvMs0_NtNtCs5BmVzKVgC1k_10empack_lib7display11interactiveNtB5_12SelectPrompt8interact
FNDA:0,_RNvMs1_NtNtCs5BmVzKVgC1k_10empack_lib7display11interactiveNtB5_11InputPrompt3new
FNDA:0,_RNvMs1_NtNtCs5BmVzKVgC1k_10empack_lib7display11interactiveNtB5_11InputPrompt8interact
FNDA:0,_RNvMs_NtNtCs5BmVzKVgC1k_10empack_lib7display11interactiveNtB4_13ConfirmPrompt3new
FNDA:0,_RNvMs_NtNtCs5BmVzKVgC1k_10empack_lib7display11interactiveNtB4_13ConfirmPrompt7default
FNDA:0,_RNvMs_NtNtCs5BmVzKVgC1k_10empack_lib7display11interactiveNtB4_13ConfirmPrompt8interact
FNDA:0,_RNCNvMs2_NtNtCs5BmVzKVgC1k_10empack_lib7display11interactiveNtB7_18InteractiveDisplay17select_or_default0Bb_
FNDA:0,_RNvMs0_NtNtCs5BmVzKVgC1k_10empack_lib7display11interactiveNtB5_12SelectPrompt12interact_opt
FNDA:0,_RNvMs0_NtNtCs5BmVzKVgC1k_10empack_lib7display11interactiveNtB5_12SelectPrompt14interact_value
FNDA:0,_RNvMs0_NtNtCs5BmVzKVgC1k_10empack_lib7display11interactiveNtB5_12SelectPrompt7default
FNDA:0,_RNvMs1_NtNtCs5BmVzKVgC1k_10empack_lib7display11interactiveNtB5_11InputPrompt11allow_empty
FNDA:0,_RNvMs1_NtNtCs5BmVzKVgC1k_10empack_lib7display11interactiveNtB5_11InputPrompt13interact_text
FNDA:0,_RNvMs1_NtNtCs5BmVzKVgC1k_10empack_lib7display11interactiveNtB5_11InputPrompt7default
FNDA:0,_RNvMs2_NtNtCs5BmVzKVgC1k_10empack_lib7display11interactiveNtB5_18InteractiveDisplay14is_interactive
FNDA:0,_RNvMs2_NtNtCs5BmVzKVgC1k_10empack_lib7display11interactiveNtB5_18InteractiveDisplay17select_or_default
FNDA:0,_RNvMs2_NtNtCs5BmVzKVgC1k_10empack_lib7display11interactiveNtB5_18InteractiveDisplay18confirm_or_default
FNDA:0,_RNvMs2_NtNtCs5BmVzKVgC1k_10empack_lib7display11interactiveNtB5_18InteractiveDisplay3ask
FNDA:0,_RNvMs2_NtNtCs5BmVzKVgC1k_10empack_lib7display11interactiveNtB5_18InteractiveDisplay6choose
FNDA:0,_RNvMs2_NtNtCs5BmVzKVgC1k_10empack_lib7display11interactiveNtB5_18InteractiveDisplay6yes_no
FNDA:0,_RNvMs_NtNtCs5BmVzKVgC1k_10empack_lib7display11interactiveNtB4_13ConfirmPrompt12interact_opt
FNDA:0,_RNCNvMs0_NtNtCs5BmVzKVgC1k_10empack_lib7display11interactiveNtB7_12SelectPrompt7options0Bb_
FNF:27
FNH:0
DA:23,0
DA:24,0
DA:27,0
DA:31,0
DA:35,0
DA:36,0
DA:47,0
DA:48,0
DA:49,0
DA:60,0
DA:61,0
DA:62,0
DA:73,0
DA:74,0
DA:75,0
DA:84,0
DA:85,0
DA:87,0
DA:88,0
DA:91,0
DA:92,0
DA:93,0
DA:94,0
DA:97,0
DA:98,0
DA:99,0
DA:102,0
DA:103,0
DA:104,0
DA:114,0
DA:115,0
DA:117,0
DA:118,0
DA:119,0
DA:120,0
DA:121,0
DA:124,0
DA:125,0
DA:126,0
DA:127,0
DA:128,0
DA:129,0
DA:130,0
DA:133,0
DA:134,0
DA:135,0
DA:136,0
DA:139,0
DA:140,0
DA:141,0
DA:144,0
DA:145,0
DA:146,0
DA:147,0
DA:150,0
DA:151,0
DA:152,0
DA:161,0
DA:162,0
DA:164,0
DA:165,0
DA:168,0
DA:169,0
DA:170,0
DA:171,0
DA:174,0
DA:175,0
DA:176,0
DA:177,0
DA:180,0
DA:181,0
DA:182,0
DA:185,0
DA:186,0
DA:187,0
DA:193,0
DA:194,0
DA:195,0
DA:198,0
DA:199,0
DA:200,0
DA:203,0
DA:204,0
DA:205,0
DA:206,0
DA:207,0
DA:208,0
DA:209,0
DA:212,0
DA:214,0
DA:215,0
DA:218,0
DA:219,0
DA:220,0
DA:222,0
DA:224,0
DA:227,0
DA:228,0
DA:229,0
DA:230,0
DA:231,0
DA:232,0
DA:233,0
DA:234,0
DA:235,0
DA:236,0
DA:237,0
DA:238,0
DA:240,0
DA:242,0
BRF:0
BRH:0
LF:112
LH:0
end_of_record
SF:/Users/zer0cell/production/empack/crates/empack-lib/src/display/live.rs
FN:37,_RNvMNtNtCshmQA5Mrgi1L_10empack_lib7display4liveNtB2_19LiveDisplayProvider19get_next_tracker_id
FN:162,_RNvMs2_NtNtCshmQA5Mrgi1L_10empack_lib7display4liveNtB5_20OwnedProgressTracker3new
FN:29,_RNvMNtNtCshmQA5Mrgi1L_10empack_lib7display4liveNtB2_19LiveDisplayProvider23new_with_multi_progress
FN:21,_RNvMNtNtCshmQA5Mrgi1L_10empack_lib7display4liveNtB2_19LiveDisplayProvider3new
FN:292,_RNvMs7_NtNtCshmQA5Mrgi1L_10empack_lib7display4liveNtB5_21SimpleProgressTracker3new
FN:111,_RNvXs0_NtNtCshmQA5Mrgi1L_10empack_lib7display4liveNtB5_18LiveStatusProviderNtNtB7_9providers14StatusProvider10tool_check
FN:87,_RNvXs0_NtNtCshmQA5Mrgi1L_10empack_lib7display4liveNtB5_18LiveStatusProviderNtNtB7_9providers14StatusProvider4info
FN:103,_RNvXs0_NtNtCshmQA5Mrgi1L_10empack_lib7display4liveNtB5_18LiveStatusProviderNtNtB7_9providers14StatusProvider4list
FN:119,_RNvXs0_NtNtCshmQA5Mrgi1L_10empack_lib7display4liveNtB5_18LiveStatusProviderNtNtB7_9providers14StatusProvider4step
FN:79,_RNvXs0_NtNtCshmQA5Mrgi1L_10empack_lib7display4liveNtB5_18LiveStatusProviderNtNtB7_9providers14StatusProvider5error
FN:99,_RNvXs0_NtNtCshmQA5Mrgi1L_10empack_lib7display4liveNtB5_18LiveStatusProviderNtNtB7_9providers14StatusProvider6subtle
FN:91,_RNvXs0_NtNtCshmQA5Mrgi1L_10empack_lib7display4liveNtB5_18LiveStatusProviderNtNtB7_9providers14StatusProvider7message
FN:115,_RNvXs0_NtNtCshmQA5Mrgi1L_10empack_lib7display4liveNtB5_18LiveStatusProviderNtNtB7_9providers14StatusProvider7section
FN:75,_RNvXs0_NtNtCshmQA5Mrgi1L_10empack_lib7display4liveNtB5_18LiveStatusProviderNtNtB7_9providers14StatusProvider7success
FN:83,_RNvXs0_NtNtCshmQA5Mrgi1L_10empack_lib7display4liveNtB5_18LiveStatusProviderNtNtB7_9providers14StatusProvider7warning
FN:71,_RNvXs0_NtNtCshmQA5Mrgi1L_10empack_lib7display4liveNtB5_18LiveStatusProviderNtNtB7_9providers14StatusProvider8checking
FN:107,_RNvXs0_NtNtCshmQA5Mrgi1L_10empack_lib7display4liveNtB5_18LiveStatusProviderNtNtB7_9providers14StatusProvider8complete
FN:95,_RNvXs0_NtNtCshmQA5Mrgi1L_10empack_lib7display4liveNtB5_18LiveStatusProviderNtNtB7_9providers14StatusProvider8emphasis
FN:132,_RNvXs1_NtNtCshmQA5Mrgi1L_10empack_lib7display4liveNtB5_20LiveProgressProviderNtNtB7_9providers16ProgressProvider3bar
FN:147,_RNvXs1_NtNtCshmQA5Mrgi1L_10empack_lib7display4liveNtB5_20LiveProgressProviderNtNtB7_9providers16ProgressProvider5multi
FN:139,_RNvXs1_NtNtCshmQA5Mrgi1L_10empack_lib7display4liveNtB5_20LiveProgressProviderNtNtB7_9providers16ProgressProvider7spinner
FN:180,_RNvXs3_NtNtCshmQA5Mrgi1L_10empack_lib7display4liveNtB5_20OwnedProgressTrackerNtNtB7_9providers15ProgressTracker11set_message
FN:196,_RNvXs3_NtNtCshmQA5Mrgi1L_10empack_lib7display4liveNtB5_20OwnedProgressTrackerNtNtB7_9providers15ProgressTracker12finish_clear
FN:168,_RNvXs3_NtNtCshmQA5Mrgi1L_10empack_lib7display4liveNtB5_20OwnedProgressTrackerNtNtB7_9providers15ProgressTracker12set_position
FN:172,_RNvXs3_NtNtCshmQA5Mrgi1L_10empack_lib7display4liveNtB5_20OwnedProgressTrackerNtNtB7_9providers15ProgressTracker3inc
FN:184,_RNvXs3_NtNtCshmQA5Mrgi1L_10empack_lib7display4liveNtB5_20OwnedProgressTrackerNtNtB7_9providers15ProgressTracker4tick
FN:188,_RNvXs3_NtNtCshmQA5Mrgi1L_10empack_lib7display4liveNtB5_20OwnedProgressTrackerNtNtB7_9providers15ProgressTracker6finish
FN:176,_RNvXs3_NtNtCshmQA5Mrgi1L_10empack_lib7display4liveNtB5_20OwnedProgressTrackerNtNtB7_9providers15ProgressTracker6inc_by
FN:192,_RNvXs3_NtNtCshmQA5Mrgi1L_10empack_lib7display4liveNtB5_20OwnedProgressTrackerNtNtB7_9providers15ProgressTracker7abandon
FN:216,_RNvXs4_NtNtCshmQA5Mrgi1L_10empack_lib7display4liveNtB5_25LiveMultiProgressProviderNtNtB7_9providers21MultiProgressProvider11add_spinner
FN:224,_RNvXs4_NtNtCshmQA5Mrgi1L_10empack_lib7display4liveNtB5_25LiveMultiProgressProviderNtNtB7_9providers21MultiProgressProvider5clear
FN:209,_RNvXs4_NtNtCshmQA5Mrgi1L_10empack_lib7display4liveNtB5_25LiveMultiProgressProviderNtNtB7_9providers21MultiProgressProvider7add_bar
FN:254,_RNvXs5_NtNtCshmQA5Mrgi1L_10empack_lib7display4liveNtB5_18LivePromptProviderNtNtB7_9providers14PromptProvider12multi_select
FN:242,_RNvXs5_NtNtCshmQA5Mrgi1L_10empack_lib7display4liveNtB5_18LivePromptProviderNtNtB7_9providers14PromptProvider5input
FN:246,_RNvXs5_NtNtCshmQA5Mrgi1L_10empack_lib7display4liveNtB5_18LivePromptProviderNtNtB7_9providers14PromptProvider6select
FN:234,_RNvXs5_NtNtCshmQA5Mrgi1L_10empack_lib7display4liveNtB5_18LivePromptProviderNtNtB7_9providers14PromptProvider7confirm
FN:281,_RNvXs6_NtNtCshmQA5Mrgi1L_10empack_lib7display4liveNtB5_22LiveStructuredProviderNtNtB7_9providers18StructuredProvider10properties
FN:277,_RNvXs6_NtNtCshmQA5Mrgi1L_10empack_lib7display4liveNtB5_22LiveStructuredProviderNtNtB7_9providers18StructuredProvider4list
FN:268,_RNvXs6_NtNtCshmQA5Mrgi1L_10empack_lib7display4liveNtB5_22LiveStructuredProviderNtNtB7_9providers18StructuredProvider5table
FN:310,_RNvXs8_NtNtCshmQA5Mrgi1L_10empack_lib7display4liveNtB5_21SimpleProgressTrackerNtNtB7_9providers15ProgressTracker11set_message
FN:327,_RNvXs8_NtNtCshmQA5Mrgi1L_10empack_lib7display4liveNtB5_21SimpleProgressTrackerNtNtB7_9providers15ProgressTracker12finish_clear
FN:298,_RNvXs8_NtNtCshmQA5Mrgi1L_10empack_lib7display4liveNtB5_21SimpleProgressTrackerNtNtB7_9providers15ProgressTracker12set_position
FN:302,_RNvXs8_NtNtCshmQA5Mrgi1L_10empack_lib7display4liveNtB5_21SimpleProgressTrackerNtNtB7_9providers15ProgressTracker3inc
FN:314,_RNvXs8_NtNtCshmQA5Mrgi1L_10empack_lib7display4liveNtB5_21SimpleProgressTrackerNtNtB7_9providers15ProgressTracker4tick
FN:319,_RNvXs8_NtNtCshmQA5Mrgi1L_10empack_lib7display4liveNtB5_21SimpleProgressTrackerNtNtB7_9providers15ProgressTracker6finish
FN:306,_RNvXs8_NtNtCshmQA5Mrgi1L_10empack_lib7display4liveNtB5_21SimpleProgressTrackerNtNtB7_9providers15ProgressTracker6inc_by
FN:323,_RNvXs8_NtNtCshmQA5Mrgi1L_10empack_lib7display4liveNtB5_21SimpleProgressTrackerNtNtB7_9providers15ProgressTracker7abandon
FN:62,_RNvXs_NtNtCshmQA5Mrgi1L_10empack_lib7display4liveNtB4_19LiveDisplayProviderNtNtB6_9providers15DisplayProvider5table
FN:58,_RNvXs_NtNtCshmQA5Mrgi1L_10empack_lib7display4liveNtB4_19LiveDisplayProviderNtNtB6_9providers15DisplayProvider6prompt
FN:46,_RNvXs_NtNtCshmQA5Mrgi1L_10empack_lib7display4liveNtB4_19LiveDisplayProviderNtNtB6_9providers15DisplayProvider6status
FN:50,_RNvXs_NtNtCshmQA5Mrgi1L_10empack_lib7display4liveNtB4_19LiveDisplayProviderNtNtB6_9providers15DisplayProvider8progress
FN:29,_RNvMNtNtCs5BmVzKVgC1k_10empack_lib7display4liveNtB2_19LiveDisplayProvider23new_with_multi_progress
FN:292,_RNvMs7_NtNtCs5BmVzKVgC1k_10empack_lib7display4liveNtB5_21SimpleProgressTracker3new
FN:111,_RNvXs0_NtNtCs5BmVzKVgC1k_10empack_lib7display4liveNtB5_18LiveStatusProviderNtNtB7_9providers14StatusProvider10tool_check
FN:87,_RNvXs0_NtNtCs5BmVzKVgC1k_10empack_lib7display4liveNtB5_18LiveStatusProviderNtNtB7_9providers14StatusProvider4info
FN:103,_RNvXs0_NtNtCs5BmVzKVgC1k_10empack_lib7display4liveNtB5_18LiveStatusProviderNtNtB7_9providers14StatusProvider4list
FN:119,_RNvXs0_NtNtCs5BmVzKVgC1k_10empack_lib7display4liveNtB5_18LiveStatusProviderNtNtB7_9providers14StatusProvider4step
FN:79,_RNvXs0_NtNtCs5BmVzKVgC1k_10empack_lib7display4liveNtB5_18LiveStatusProviderNtNtB7_9providers14StatusProvider5error
FN:99,_RNvXs0_NtNtCs5BmVzKVgC1k_10empack_lib7display4liveNtB5_18LiveStatusProviderNtNtB7_9providers14StatusProvider6subtle
FN:91,_RNvXs0_NtNtCs5BmVzKVgC1k_10empack_lib7display4liveNtB5_18LiveStatusProviderNtNtB7_9providers14StatusProvider7message
FN:115,_RNvXs0_NtNtCs5BmVzKVgC1k_10empack_lib7display4liveNtB5_18LiveStatusProviderNtNtB7_9providers14StatusProvider7section
FN:75,_RNvXs0_NtNtCs5BmVzKVgC1k_10empack_lib7display4liveNtB5_18LiveStatusProviderNtNtB7_9providers14StatusProvider7success
FN:83,_RNvXs0_NtNtCs5BmVzKVgC1k_10empack_lib7display4liveNtB5_18LiveStatusProviderNtNtB7_9providers14StatusProvider7warning
FN:71,_RNvXs0_NtNtCs5BmVzKVgC1k_10empack_lib7display4liveNtB5_18LiveStatusProviderNtNtB7_9providers14StatusProvider8checking
FN:107,_RNvXs0_NtNtCs5BmVzKVgC1k_10empack_lib7display4liveNtB5_18LiveStatusProviderNtNtB7_9providers14StatusProvider8complete
FN:95,_RNvXs0_NtNtCs5BmVzKVgC1k_10empack_lib7display4liveNtB5_18LiveStatusProviderNtNtB7_9providers14StatusProvider8emphasis
FN:132,_RNvXs1_NtNtCs5BmVzKVgC1k_10empack_lib7display4liveNtB5_20LiveProgressProviderNtNtB7_9providers16ProgressProvider3bar
FN:147,_RNvXs1_NtNtCs5BmVzKVgC1k_10empack_lib7display4liveNtB5_20LiveProgressProviderNtNtB7_9providers16ProgressProvider5multi
FN:139,_RNvXs1_NtNtCs5BmVzKVgC1k_10empack_lib7display4liveNtB5_20LiveProgressProviderNtNtB7_9providers16ProgressProvider7spinner
FN:216,_RNvXs4_NtNtCs5BmVzKVgC1k_10empack_lib7display4liveNtB5_25LiveMultiProgressProviderNtNtB7_9providers21MultiProgressProvider11add_spinner
FN:224,_RNvXs4_NtNtCs5BmVzKVgC1k_10empack_lib7display4liveNtB5_25LiveMultiProgressProviderNtNtB7_9providers21MultiProgressProvider5clear
FN:209,_RNvXs4_NtNtCs5BmVzKVgC1k_10empack_lib7display4liveNtB5_25LiveMultiProgressProviderNtNtB7_9providers21MultiProgressProvider7add_bar
FN:254,_RNvXs5_NtNtCs5BmVzKVgC1k_10empack_lib7display4liveNtB5_18LivePromptProviderNtNtB7_9providers14PromptProvider12multi_select
FN:242,_RNvXs5_NtNtCs5BmVzKVgC1k_10empack_lib7display4liveNtB5_18LivePromptProviderNtNtB7_9providers14PromptProvider5input
FN:246,_RNvXs5_NtNtCs5BmVzKVgC1k_10empack_lib7display4liveNtB5_18LivePromptProviderNtNtB7_9providers14PromptProvider6select
FN:234,_RNvXs5_NtNtCs5BmVzKVgC1k_10empack_lib7display4liveNtB5_18LivePromptProviderNtNtB7_9providers14PromptProvider7confirm
FN:281,_RNvXs6_NtNtCs5BmVzKVgC1k_10empack_lib7display4liveNtB5_22LiveStructuredProviderNtNtB7_9providers18StructuredProvider10properties
FN:277,_RNvXs6_NtNtCs5BmVzKVgC1k_10empack_lib7display4liveNtB5_22LiveStructuredProviderNtNtB7_9providers18StructuredProvider4list
FN:268,_RNvXs6_NtNtCs5BmVzKVgC1k_10empack_lib7display4liveNtB5_22LiveStructuredProviderNtNtB7_9providers18StructuredProvider5table
FN:310,_RNvXs8_NtNtCs5BmVzKVgC1k_10empack_lib7display4liveNtB5_21SimpleProgressTrackerNtNtB7_9providers15ProgressTracker11set_message
FN:327,_RNvXs8_NtNtCs5BmVzKVgC1k_10empack_lib7display4liveNtB5_21SimpleProgressTrackerNtNtB7_9providers15ProgressTracker12finish_clear
FN:298,_RNvXs8_NtNtCs5BmVzKVgC1k_10empack_lib7display4liveNtB5_21SimpleProgressTrackerNtNtB7_9providers15ProgressTracker12set_position
FN:302,_RNvXs8_NtNtCs5BmVzKVgC1k_10empack_lib7display4liveNtB5_21SimpleProgressTrackerNtNtB7_9providers15ProgressTracker3inc
FN:314,_RNvXs8_NtNtCs5BmVzKVgC1k_10empack_lib7display4liveNtB5_21SimpleProgressTrackerNtNtB7_9providers15ProgressTracker4tick
FN:319,_RNvXs8_NtNtCs5BmVzKVgC1k_10empack_lib7display4liveNtB5_21SimpleProgressTrackerNtNtB7_9providers15ProgressTracker6finish
FN:306,_RNvXs8_NtNtCs5BmVzKVgC1k_10empack_lib7display4liveNtB5_21SimpleProgressTrackerNtNtB7_9providers15ProgressTracker6inc_by
FN:323,_RNvXs8_NtNtCs5BmVzKVgC1k_10empack_lib7display4liveNtB5_21SimpleProgressTrackerNtNtB7_9providers15ProgressTracker7abandon
FN:62,_RNvXs_NtNtCs5BmVzKVgC1k_10empack_lib7display4liveNtB4_19LiveDisplayProviderNtNtB6_9providers15DisplayProvider5table
FN:58,_RNvXs_NtNtCs5BmVzKVgC1k_10empack_lib7display4liveNtB4_19LiveDisplayProviderNtNtB6_9providers15DisplayProvider6prompt
FN:46,_RNvXs_NtNtCs5BmVzKVgC1k_10empack_lib7display4liveNtB4_19LiveDisplayProviderNtNtB6_9providers15DisplayProvider6status
FN:50,_RNvXs_NtNtCs5BmVzKVgC1k_10empack_lib7display4liveNtB4_19LiveDisplayProviderNtNtB6_9providers15DisplayProvider8progress
FN:37,_RNvMNtNtCs5BmVzKVgC1k_10empack_lib7display4liveNtB2_19LiveDisplayProvider19get_next_tracker_id
FN:21,_RNvMNtNtCs5BmVzKVgC1k_10empack_lib7display4liveNtB2_19LiveDisplayProvider3new
FN:162,_RNvMs2_NtNtCs5BmVzKVgC1k_10empack_lib7display4liveNtB5_20OwnedProgressTracker3new
FN:180,_RNvXs3_NtNtCs5BmVzKVgC1k_10empack_lib7display4liveNtB5_20OwnedProgressTrackerNtNtB7_9providers15ProgressTracker11set_message
FN:196,_RNvXs3_NtNtCs5BmVzKVgC1k_10empack_lib7display4liveNtB5_20OwnedProgressTrackerNtNtB7_9providers15ProgressTracker12finish_clear
FN:168,_RNvXs3_NtNtCs5BmVzKVgC1k_10empack_lib7display4liveNtB5_20OwnedProgressTrackerNtNtB7_9providers15ProgressTracker12set_position
FN:172,_RNvXs3_NtNtCs5BmVzKVgC1k_10empack_lib7display4liveNtB5_20OwnedProgressTrackerNtNtB7_9providers15ProgressTracker3inc
FN:184,_RNvXs3_NtNtCs5BmVzKVgC1k_10empack_lib7display4liveNtB5_20OwnedProgressTrackerNtNtB7_9providers15ProgressTracker4tick
FN:188,_RNvXs3_NtNtCs5BmVzKVgC1k_10empack_lib7display4liveNtB5_20OwnedProgressTrackerNtNtB7_9providers15ProgressTracker6finish
FN:176,_RNvXs3_NtNtCs5BmVzKVgC1k_10empack_lib7display4liveNtB5_20OwnedProgressTrackerNtNtB7_9providers15ProgressTracker6inc_by
FN:192,_RNvXs3_NtNtCs5BmVzKVgC1k_10empack_lib7display4liveNtB5_20OwnedProgressTrackerNtNtB7_9providers15ProgressTracker7abandon
FNDA:0,_RNvMNtNtCshmQA5Mrgi1L_10empack_lib7display4liveNtB2_19LiveDisplayProvider19get_next_tracker_id
FNDA:0,_RNvMs2_NtNtCshmQA5Mrgi1L_10empack_lib7display4liveNtB5_20OwnedProgressTracker3new
FNDA:14,_RNvMNtNtCshmQA5Mrgi1L_10empack_lib7display4liveNtB2_19LiveDisplayProvider23new_with_multi_progress
FNDA:0,_RNvMNtNtCshmQA5Mrgi1L_10empack_lib7display4liveNtB2_19LiveDisplayProvider3new
FNDA:0,_RNvMs7_NtNtCshmQA5Mrgi1L_10empack_lib7display4liveNtB5_21SimpleProgressTracker3new
FNDA:0,_RNvXs0_NtNtCshmQA5Mrgi1L_10empack_lib7display4liveNtB5_18LiveStatusProviderNtNtB7_9providers14StatusProvider10tool_check
FNDA:4,_RNvXs0_NtNtCshmQA5Mrgi1L_10empack_lib7display4liveNtB5_18LiveStatusProviderNtNtB7_9providers14StatusProvider4info
FNDA:0,_RNvXs0_NtNtCshmQA5Mrgi1L_10empack_lib7display4liveNtB5_18LiveStatusProviderNtNtB7_9providers14StatusProvider4list
FNDA:0,_RNvXs0_NtNtCshmQA5Mrgi1L_10empack_lib7display4liveNtB5_18LiveStatusProviderNtNtB7_9providers14StatusProvider4step
FNDA:0,_RNvXs0_NtNtCshmQA5Mrgi1L_10empack_lib7display4liveNtB5_18LiveStatusProviderNtNtB7_9providers14StatusProvider5error
FNDA:11,_RNvXs0_NtNtCshmQA5Mrgi1L_10empack_lib7display4liveNtB5_18LiveStatusProviderNtNtB7_9providers14StatusProvider6subtle
FNDA:0,_RNvXs0_NtNtCshmQA5Mrgi1L_10empack_lib7display4liveNtB5_18LiveStatusProviderNtNtB7_9providers14StatusProvider7message
FNDA:15,_RNvXs0_NtNtCshmQA5Mrgi1L_10empack_lib7display4liveNtB5_18LiveStatusProviderNtNtB7_9providers14StatusProvider7section
FNDA:9,_RNvXs0_NtNtCshmQA5Mrgi1L_10empack_lib7display4liveNtB5_18LiveStatusProviderNtNtB7_9providers14StatusProvider7success
FNDA:2,_RNvXs0_NtNtCshmQA5Mrgi1L_10empack_lib7display4liveNtB5_18LiveStatusProviderNtNtB7_9providers14StatusProvider7warning
FNDA:3,_RNvXs0_NtNtCshmQA5Mrgi1L_10empack_lib7display4liveNtB5_18LiveStatusProviderNtNtB7_9providers14StatusProvider8checking
FNDA:10,_RNvXs0_NtNtCshmQA5Mrgi1L_10empack_lib7display4liveNtB5_18LiveStatusProviderNtNtB7_9providers14StatusProvider8complete
FNDA:0,_RNvXs0_NtNtCshmQA5Mrgi1L_10empack_lib7display4liveNtB5_18LiveStatusProviderNtNtB7_9providers14StatusProvider8emphasis
FNDA:0,_RNvXs1_NtNtCshmQA5Mrgi1L_10empack_lib7display4liveNtB5_20LiveProgressProviderNtNtB7_9providers16ProgressProvider3bar
FNDA:0,_RNvXs1_NtNtCshmQA5Mrgi1L_10empack_lib7display4liveNtB5_20LiveProgressProviderNtNtB7_9providers16ProgressProvider5multi
FNDA:0,_RNvXs1_NtNtCshmQA5Mrgi1L_10empack_lib7display4liveNtB5_20LiveProgressProviderNtNtB7_9providers16ProgressProvider7spinner
FNDA:0,_RNvXs3_NtNtCshmQA5Mrgi1L_10empack_lib7display4liveNtB5_20OwnedProgressTrackerNtNtB7_9providers15ProgressTracker11set_message
FNDA:0,_RNvXs3_NtNtCshmQA5Mrgi1L_10empack_lib7display4liveNtB5_20OwnedProgressTrackerNtNtB7_9providers15ProgressTracker12finish_clear
FNDA:0,_RNvXs3_NtNtCshmQA5Mrgi1L_10empack_lib7display4liveNtB5_20OwnedProgressTrackerNtNtB7_9providers15ProgressTracker12set_position
FNDA:0,_RNvXs3_NtNtCshmQA5Mrgi1L_10empack_lib7display4liveNtB5_20OwnedProgressTrackerNtNtB7_9providers15ProgressTracker3inc
FNDA:0,_RNvXs3_NtNtCshmQA5Mrgi1L_10empack_lib7display4liveNtB5_20OwnedProgressTrackerNtNtB7_9providers15ProgressTracker4tick
FNDA:0,_RNvXs3_NtNtCshmQA5Mrgi1L_10empack_lib7display4liveNtB5_20OwnedProgressTrackerNtNtB7_9providers15ProgressTracker6finish
FNDA:0,_RNvXs3_NtNtCshmQA5Mrgi1L_10empack_lib7display4liveNtB5_20OwnedProgressTrackerNtNtB7_9providers15ProgressTracker6inc_by
FNDA:0,_RNvXs3_NtNtCshmQA5Mrgi1L_10empack_lib7display4liveNtB5_20OwnedProgressTrackerNtNtB7_9providers15ProgressTracker7abandon
FNDA:0,_RNvXs4_NtNtCshmQA5Mrgi1L_10empack_lib7display4liveNtB5_25LiveMultiProgressProviderNtNtB7_9providers21MultiProgressProvider11add_spinner
FNDA:0,_RNvXs4_NtNtCshmQA5Mrgi1L_10empack_lib7display4liveNtB5_25LiveMultiProgressProviderNtNtB7_9providers21MultiProgressProvider5clear
FNDA:0,_RNvXs4_NtNtCshmQA5Mrgi1L_10empack_lib7display4liveNtB5_25LiveMultiProgressProviderNtNtB7_9providers21MultiProgressProvider7add_bar
FNDA:0,_RNvXs5_NtNtCshmQA5Mrgi1L_10empack_lib7display4liveNtB5_18LivePromptProviderNtNtB7_9providers14PromptProvider12multi_select
FNDA:0,_RNvXs5_NtNtCshmQA5Mrgi1L_10empack_lib7display4liveNtB5_18LivePromptProviderNtNtB7_9providers14PromptProvider5input
FNDA:0,_RNvXs5_NtNtCshmQA5Mrgi1L_10empack_lib7display4liveNtB5_18LivePromptProviderNtNtB7_9providers14PromptProvider6select
FNDA:0,_RNvXs5_NtNtCshmQA5Mrgi1L_10empack_lib7display4liveNtB5_18LivePromptProviderNtNtB7_9providers14PromptProvider7confirm
FNDA:0,_RNvXs6_NtNtCshmQA5Mrgi1L_10empack_lib7display4liveNtB5_22LiveStructuredProviderNtNtB7_9providers18StructuredProvider10properties
FNDA:0,_RNvXs6_NtNtCshmQA5Mrgi1L_10empack_lib7display4liveNtB5_22LiveStructuredProviderNtNtB7_9providers18StructuredProvider4list
FNDA:0,_RNvXs6_NtNtCshmQA5Mrgi1L_10empack_lib7display4liveNtB5_22LiveStructuredProviderNtNtB7_9providers18StructuredProvider5table
FNDA:0,_RNvXs8_NtNtCshmQA5Mrgi1L_10empack_lib7display4liveNtB5_21SimpleProgressTrackerNtNtB7_9providers15ProgressTracker11set_message
FNDA:0,_RNvXs8_NtNtCshmQA5Mrgi1L_10empack_lib7display4liveNtB5_21SimpleProgressTrackerNtNtB7_9providers15ProgressTracker12finish_clear
FNDA:0,_RNvXs8_NtNtCshmQA5Mrgi1L_10empack_lib7display4liveNtB5_21SimpleProgressTrackerNtNtB7_9providers15ProgressTracker12set_position
FNDA:0,_RNvXs8_NtNtCshmQA5Mrgi1L_10empack_lib7display4liveNtB5_21SimpleProgressTrackerNtNtB7_9providers15ProgressTracker3inc
FNDA:0,_RNvXs8_NtNtCshmQA5Mrgi1L_10empack_lib7display4liveNtB5_21SimpleProgressTrackerNtNtB7_9providers15ProgressTracker4tick
FNDA:0,_RNvXs8_NtNtCshmQA5Mrgi1L_10empack_lib7display4liveNtB5_21SimpleProgressTrackerNtNtB7_9providers15ProgressTracker6finish
FNDA:0,_RNvXs8_NtNtCshmQA5Mrgi1L_10empack_lib7display4liveNtB5_21SimpleProgressTrackerNtNtB7_9providers15ProgressTracker6inc_by
FNDA:0,_RNvXs8_NtNtCshmQA5Mrgi1L_10empack_lib7display4liveNtB5_21SimpleProgressTrackerNtNtB7_9providers15ProgressTracker7abandon
FNDA:0,_RNvXs_NtNtCshmQA5Mrgi1L_10empack_lib7display4liveNtB4_19LiveDisplayProviderNtNtB6_9providers15DisplayProvider5table
FNDA:0,_RNvXs_NtNtCshmQA5Mrgi1L_10empack_lib7display4liveNtB4_19LiveDisplayProviderNtNtB6_9providers15DisplayProvider6prompt
FNDA:54,_RNvXs_NtNtCshmQA5Mrgi1L_10empack_lib7display4liveNtB4_19LiveDisplayProviderNtNtB6_9providers15DisplayProvider6status
FNDA:0,_RNvXs_NtNtCshmQA5Mrgi1L_10empack_lib7display4liveNtB4_19LiveDisplayProviderNtNtB6_9providers15DisplayProvider8progress
FNDA:45,_RNvMNtNtCs5BmVzKVgC1k_10empack_lib7display4liveNtB2_19LiveDisplayProvider23new_with_multi_progress
FNDA:0,_RNvMs7_NtNtCs5BmVzKVgC1k_10empack_lib7display4liveNtB5_21SimpleProgressTracker3new
FNDA:0,_RNvXs0_NtNtCs5BmVzKVgC1k_10empack_lib7display4liveNtB5_18LiveStatusProviderNtNtB7_9providers14StatusProvider10tool_check
FNDA:13,_RNvXs0_NtNtCs5BmVzKVgC1k_10empack_lib7display4liveNtB5_18LiveStatusProviderNtNtB7_9providers14StatusProvider4info
FNDA:0,_RNvXs0_NtNtCs5BmVzKVgC1k_10empack_lib7display4liveNtB5_18LiveStatusProviderNtNtB7_9providers14StatusProvider4list
FNDA:0,_RNvXs0_NtNtCs5BmVzKVgC1k_10empack_lib7display4liveNtB5_18LiveStatusProviderNtNtB7_9providers14StatusProvider4step
FNDA:13,_RNvXs0_NtNtCs5BmVzKVgC1k_10empack_lib7display4liveNtB5_18LiveStatusProviderNtNtB7_9providers14StatusProvider5error
FNDA:17,_RNvXs0_NtNtCs5BmVzKVgC1k_10empack_lib7display4liveNtB5_18LiveStatusProviderNtNtB7_9providers14StatusProvider6subtle
FNDA:2,_RNvXs0_NtNtCs5BmVzKVgC1k_10empack_lib7display4liveNtB5_18LiveStatusProviderNtNtB7_9providers14StatusProvider7message
FNDA:23,_RNvXs0_NtNtCs5BmVzKVgC1k_10empack_lib7display4liveNtB5_18LiveStatusProviderNtNtB7_9providers14StatusProvider7section
FNDA:17,_RNvXs0_NtNtCs5BmVzKVgC1k_10empack_lib7display4liveNtB5_18LiveStatusProviderNtNtB7_9providers14StatusProvider7success
FNDA:3,_RNvXs0_NtNtCs5BmVzKVgC1k_10empack_lib7display4liveNtB5_18LiveStatusProviderNtNtB7_9providers14StatusProvider7warning
FNDA:14,_RNvXs0_NtNtCs5BmVzKVgC1k_10empack_lib7display4liveNtB5_18LiveStatusProviderNtNtB7_9providers14StatusProvider8checking
FNDA:3,_RNvXs0_NtNtCs5BmVzKVgC1k_10empack_lib7display4liveNtB5_18LiveStatusProviderNtNtB7_9providers14StatusProvider8complete
FNDA:1,_RNvXs0_NtNtCs5BmVzKVgC1k_10empack_lib7display4liveNtB5_18LiveStatusProviderNtNtB7_9providers14StatusProvider8emphasis
FNDA:0,_RNvXs1_NtNtCs5BmVzKVgC1k_10empack_lib7display4liveNtB5_20LiveProgressProviderNtNtB7_9providers16ProgressProvider3bar
FNDA:0,_RNvXs1_NtNtCs5BmVzKVgC1k_10empack_lib7display4liveNtB5_20LiveProgressProviderNtNtB7_9providers16ProgressProvider5multi
FNDA:0,_RNvXs1_NtNtCs5BmVzKVgC1k_10empack_lib7display4liveNtB5_20LiveProgressProviderNtNtB7_9providers16ProgressProvider7spinner
FNDA:0,_RNvXs4_NtNtCs5BmVzKVgC1k_10empack_lib7display4liveNtB5_25LiveMultiProgressProviderNtNtB7_9providers21MultiProgressProvider11add_spinner
FNDA:0,_RNvXs4_NtNtCs5BmVzKVgC1k_10empack_lib7display4liveNtB5_25LiveMultiProgressProviderNtNtB7_9providers21MultiProgressProvider5clear
FNDA:0,_RNvXs4_NtNtCs5BmVzKVgC1k_10empack_lib7display4liveNtB5_25LiveMultiProgressProviderNtNtB7_9providers21MultiProgressProvider7add_bar
FNDA:0,_RNvXs5_NtNtCs5BmVzKVgC1k_10empack_lib7display4liveNtB5_18LivePromptProviderNtNtB7_9providers14PromptProvider12multi_select
FNDA:0,_RNvXs5_NtNtCs5BmVzKVgC1k_10empack_lib7display4liveNtB5_18LivePromptProviderNtNtB7_9providers14PromptProvider5input
FNDA:0,_RNvXs5_NtNtCs5BmVzKVgC1k_10empack_lib7display4liveNtB5_18LivePromptProviderNtNtB7_9providers14PromptProvider6select
FNDA:0,_RNvXs5_NtNtCs5BmVzKVgC1k_10empack_lib7display4liveNtB5_18LivePromptProviderNtNtB7_9providers14PromptProvider7confirm
FNDA:1,_RNvXs6_NtNtCs5BmVzKVgC1k_10empack_lib7display4liveNtB5_22LiveStructuredProviderNtNtB7_9providers18StructuredProvider10properties
FNDA:0,_RNvXs6_NtNtCs5BmVzKVgC1k_10empack_lib7display4liveNtB5_22LiveStructuredProviderNtNtB7_9providers18StructuredProvider4list
FNDA:0,_RNvXs6_NtNtCs5BmVzKVgC1k_10empack_lib7display4liveNtB5_22LiveStructuredProviderNtNtB7_9providers18StructuredProvider5table
FNDA:0,_RNvXs8_NtNtCs5BmVzKVgC1k_10empack_lib7display4liveNtB5_21SimpleProgressTrackerNtNtB7_9providers15ProgressTracker11set_message
FNDA:0,_RNvXs8_NtNtCs5BmVzKVgC1k_10empack_lib7display4liveNtB5_21SimpleProgressTrackerNtNtB7_9providers15ProgressTracker12finish_clear
FNDA:0,_RNvXs8_NtNtCs5BmVzKVgC1k_10empack_lib7display4liveNtB5_21SimpleProgressTrackerNtNtB7_9providers15ProgressTracker12set_position
FNDA:0,_RNvXs8_NtNtCs5BmVzKVgC1k_10empack_lib7display4liveNtB5_21SimpleProgressTrackerNtNtB7_9providers15ProgressTracker3inc
FNDA:0,_RNvXs8_NtNtCs5BmVzKVgC1k_10empack_lib7display4liveNtB5_21SimpleProgressTrackerNtNtB7_9providers15ProgressTracker4tick
FNDA:0,_RNvXs8_NtNtCs5BmVzKVgC1k_10empack_lib7display4liveNtB5_21SimpleProgressTrackerNtNtB7_9providers15ProgressTracker6finish
FNDA:0,_RNvXs8_NtNtCs5BmVzKVgC1k_10empack_lib7display4liveNtB5_21SimpleProgressTrackerNtNtB7_9providers15ProgressTracker6inc_by
FNDA:0,_RNvXs8_NtNtCs5BmVzKVgC1k_10empack_lib7display4liveNtB5_21SimpleProgressTrackerNtNtB7_9providers15ProgressTracker7abandon
FNDA:1,_RNvXs_NtNtCs5BmVzKVgC1k_10empack_lib7display4liveNtB4_19LiveDisplayProviderNtNtB6_9providers15DisplayProvider5table
FNDA:0,_RNvXs_NtNtCs5BmVzKVgC1k_10empack_lib7display4liveNtB4_19LiveDisplayProviderNtNtB6_9providers15DisplayProvider6prompt
FNDA:106,_RNvXs_NtNtCs5BmVzKVgC1k_10empack_lib7display4liveNtB4_19LiveDisplayProviderNtNtB6_9providers15DisplayProvider6status
FNDA:0,_RNvXs_NtNtCs5BmVzKVgC1k_10empack_lib7display4liveNtB4_19LiveDisplayProviderNtNtB6_9providers15DisplayProvider8progress
FNDA:0,_RNvMNtNtCs5BmVzKVgC1k_10empack_lib7display4liveNtB2_19LiveDisplayProvider19get_next_tracker_id
FNDA:0,_RNvMNtNtCs5BmVzKVgC1k_10empack_lib7display4liveNtB2_19LiveDisplayProvider3new
FNDA:0,_RNvMs2_NtNtCs5BmVzKVgC1k_10empack_lib7display4liveNtB5_20OwnedProgressTracker3new
FNDA:0,_RNvXs3_NtNtCs5BmVzKVgC1k_10empack_lib7display4liveNtB5_20OwnedProgressTrackerNtNtB7_9providers15ProgressTracker11set_message
FNDA:0,_RNvXs3_NtNtCs5BmVzKVgC1k_10empack_lib7display4liveNtB5_20OwnedProgressTrackerNtNtB7_9providers15ProgressTracker12finish_clear
FNDA:0,_RNvXs3_NtNtCs5BmVzKVgC1k_10empack_lib7display4liveNtB5_20OwnedProgressTrackerNtNtB7_9providers15ProgressTracker12set_position
FNDA:0,_RNvXs3_NtNtCs5BmVzKVgC1k_10empack_lib7display4liveNtB5_20OwnedProgressTrackerNtNtB7_9providers15ProgressTracker3inc
FNDA:0,_RNvXs3_NtNtCs5BmVzKVgC1k_10empack_lib7display4liveNtB5_20OwnedProgressTrackerNtNtB7_9providers15ProgressTracker4tick
FNDA:0,_RNvXs3_NtNtCs5BmVzKVgC1k_10empack_lib7display4liveNtB5_20OwnedProgressTrackerNtNtB7_9providers15ProgressTracker6finish
FNDA:0,_RNvXs3_NtNtCs5BmVzKVgC1k_10empack_lib7display4liveNtB5_20OwnedProgressTrackerNtNtB7_9providers15ProgressTracker6inc_by
FNDA:0,_RNvXs3_NtNtCs5BmVzKVgC1k_10empack_lib7display4liveNtB5_20OwnedProgressTrackerNtNtB7_9providers15ProgressTracker7abandon
FNF:51
FNH:14
DA:21,0
DA:22,0
DA:23,0
DA:24,0
DA:25,0
DA:26,0
DA:27,0
DA:29,59
DA:30,59
DA:31,59
DA:32,59
DA:33,59
DA:34,59
DA:35,59
DA:37,0
DA:38,0
DA:39,0
DA:40,0
DA:41,0
DA:42,0
DA:46,160
DA:47,160
DA:48,160
DA:50,0
DA:51,0
DA:52,0
DA:53,0
DA:54,0
DA:55,0
DA:56,0
DA:58,0
DA:59,0
DA:60,0
DA:62,1
DA:63,1
DA:64,1
DA:71,17
DA:72,17
DA:73,17
DA:75,26
DA:76,26
DA:77,26
DA:79,13
DA:80,13
DA:81,13
DA:83,5
DA:84,5
DA:85,5
DA:87,17
DA:88,17
DA:89,17
DA:91,2
DA:92,2
DA:93,2
DA:95,1
DA:96,1
DA:97,1
DA:99,28
DA:100,28
DA:101,28
DA:103,0
DA:104,0
DA:105,0
DA:107,13
DA:108,13
DA:109,13
DA:111,0
DA:112,0
DA:113,0
DA:115,38
DA:116,38
DA:117,38
DA:119,0
DA:120,0
DA:121,0
DA:132,0
DA:134,0
DA:135,0
DA:136,0
DA:137,0
DA:139,0
DA:141,0
DA:142,0
DA:143,0
DA:144,0
DA:145,0
DA:147,0
DA:148,0
DA:149,0
DA:150,0
DA:151,0
DA:152,0
DA:153,0
DA:162,0
DA:163,0
DA:164,0
DA:168,0
DA:169,0
DA:170,0
DA:172,0
DA:173,0
DA:174,0
DA:176,0
DA:177,0
DA:178,0
DA:180,0
DA:181,0
DA:182,0
DA:184,0
DA:185,0
DA:186,0
DA:188,0
DA:189,0
DA:190,0
DA:192,0
DA:193,0
DA:194,0
DA:196,0
DA:197,0
DA:198,0
DA:209,0
DA:211,0
DA:212,0
DA:213,0
DA:214,0
DA:216,0
DA:218,0
DA:219,0
DA:220,0
DA:221,0
DA:222,0
DA:224,0
DA:227,0
DA:234,0
DA:235,0
DA:236,0
DA:237,0
DA:238,0
DA:239,0
DA:240,0
DA:242,0
DA:243,0
DA:244,0
DA:246,0
DA:247,0
DA:248,0
DA:249,0
DA:250,0
DA:251,0
DA:252,0
DA:254,0
DA:257,0
DA:258,0
DA:259,0
DA:261,0
DA:268,0
DA:269,0
DA:270,0
DA:271,0
DA:272,0
DA:273,0
DA:274,0
DA:275,0
DA:277,0
DA:278,0
DA:279,0
DA:281,1
DA:282,1
DA:283,1
DA:292,0
DA:293,0
DA:294,0
DA:298,0
DA:299,0
DA:300,0
DA:302,0
DA:303,0
DA:304,0
DA:306,0
DA:307,0
DA:308,0
DA:310,0
DA:311,0
DA:312,0
DA:314,0
DA:315,0
DA:316,0
DA:317,0
DA:319,0
DA:320,0
DA:321,0
DA:323,0
DA:324,0
DA:325,0
DA:327,0
DA:328,0
DA:329,0
BRF:0
BRH:0
LF:197
LH:46
end_of_record
SF:/Users/zer0cell/production/empack/crates/empack-lib/src/display/mock.rs
FN:31,_RNvMNtNtCshmQA5Mrgi1L_10empack_lib7display4mockNtB2_19MockDisplayProvider11clear_calls
FN:49,_RNvMNtNtCshmQA5Mrgi1L_10empack_lib7display4mockNtB2_19MockDisplayProvider11count_calls
FN:36,_RNvMNtNtCshmQA5Mrgi1L_10empack_lib7display4mockNtB2_19MockDisplayProvider12set_response
FN:18,_RNvMNtNtCshmQA5Mrgi1L_10empack_lib7display4mockNtB2_19MockDisplayProvider3new
FN:44,_RNvMNtNtCshmQA5Mrgi1L_10empack_lib7display4mockNtB2_19MockDisplayProvider8has_call
FN:26,_RNvMNtNtCshmQA5Mrgi1L_10empack_lib7display4mockNtB2_19MockDisplayProvider9get_calls
FN:203,_RNvMs1_NtNtCshmQA5Mrgi1L_10empack_lib7display4mockNtB5_11DisplayCall9call_type
FN:257,_RNvMs2_NtNtCshmQA5Mrgi1L_10empack_lib7display4mockNtB5_18MockStatusProvider11record_call
FN:253,_RNvMs2_NtNtCshmQA5Mrgi1L_10empack_lib7display4mockNtB5_18MockStatusProvider3new
FN:362,_RNvMs4_NtNtCshmQA5Mrgi1L_10empack_lib7display4mockNtB5_20MockProgressProvider19get_next_tracker_id
FN:355,_RNvMs4_NtNtCshmQA5Mrgi1L_10empack_lib7display4mockNtB5_20MockProgressProvider3new
FN:403,_RNvMs6_NtNtCshmQA5Mrgi1L_10empack_lib7display4mockNtB5_19MockProgressTracker3new
FN:495,_RNvMs8_NtNtCshmQA5Mrgi1L_10empack_lib7display4mockNtB5_25MockMultiProgressProvider19get_next_tracker_id
FN:488,_RNvMs8_NtNtCshmQA5Mrgi1L_10empack_lib7display4mockNtB5_25MockMultiProgressProvider3new
FN:543,_RNvMsa_NtNtCshmQA5Mrgi1L_10empack_lib7display4mockNtB5_18MockPromptProvider12get_response
FN:536,_RNvMsa_NtNtCshmQA5Mrgi1L_10empack_lib7display4mockNtB5_18MockPromptProvider3new
FN:617,_RNvMsc_NtNtCshmQA5Mrgi1L_10empack_lib7display4mockNtB5_22MockStructuredProvider3new
FN:79,_RNvXs0_NtNtCshmQA5Mrgi1L_10empack_lib7display4mockNtB5_19MockDisplayProviderNtNtB7_9providers15DisplayProvider5table
FN:72,_RNvXs0_NtNtCshmQA5Mrgi1L_10empack_lib7display4mockNtB5_19MockDisplayProviderNtNtB7_9providers15DisplayProvider6prompt
FN:64,_RNvXs0_NtNtCshmQA5Mrgi1L_10empack_lib7display4mockNtB5_19MockDisplayProviderNtNtB7_9providers15DisplayProvider6status
FN:68,_RNvXs0_NtNtCshmQA5Mrgi1L_10empack_lib7display4mockNtB5_19MockDisplayProviderNtNtB7_9providers15DisplayProvider8progress
FN:325,_RNvXs3_NtNtCshmQA5Mrgi1L_10empack_lib7display4mockNtB5_18MockStatusProviderNtNtB7_9providers14StatusProvider10tool_check
FN:289,_RNvXs3_NtNtCshmQA5Mrgi1L_10empack_lib7display4mockNtB5_18MockStatusProviderNtNtB7_9providers14StatusProvider4info
FN:313,_RNvXs3_NtNtCshmQA5Mrgi1L_10empack_lib7display4mockNtB5_18MockStatusProviderNtNtB7_9providers14StatusProvider4list
FN:339,_RNvXs3_NtNtCshmQA5Mrgi1L_10empack_lib7display4mockNtB5_18MockStatusProviderNtNtB7_9providers14StatusProvider4step
FN:276,_RNvXs3_NtNtCshmQA5Mrgi1L_10empack_lib7display4mockNtB5_18MockStatusProviderNtNtB7_9providers14StatusProvider5error
FN:307,_RNvXs3_NtNtCshmQA5Mrgi1L_10empack_lib7display4mockNtB5_18MockStatusProviderNtNtB7_9providers14StatusProvider6subtle
FN:295,_RNvXs3_NtNtCshmQA5Mrgi1L_10empack_lib7display4mockNtB5_18MockStatusProviderNtNtB7_9providers14StatusProvider7message
FN:333,_RNvXs3_NtNtCshmQA5Mrgi1L_10empack_lib7display4mockNtB5_18MockStatusProviderNtNtB7_9providers14StatusProvider7section
FN:269,_RNvXs3_NtNtCshmQA5Mrgi1L_10empack_lib7display4mockNtB5_18MockStatusProviderNtNtB7_9providers14StatusProvider7success
FN:283,_RNvXs3_NtNtCshmQA5Mrgi1L_10empack_lib7display4mockNtB5_18MockStatusProviderNtNtB7_9providers14StatusProvider7warning
FN:263,_RNvXs3_NtNtCshmQA5Mrgi1L_10empack_lib7display4mockNtB5_18MockStatusProviderNtNtB7_9providers14StatusProvider8checking
FN:319,_RNvXs3_NtNtCshmQA5Mrgi1L_10empack_lib7display4mockNtB5_18MockStatusProviderNtNtB7_9providers14StatusProvider8complete
FN:301,_RNvXs3_NtNtCshmQA5Mrgi1L_10empack_lib7display4mockNtB5_18MockStatusProviderNtNtB7_9providers14StatusProvider8emphasis
FN:371,_RNvXs5_NtNtCshmQA5Mrgi1L_10empack_lib7display4mockNtB5_20MockProgressProviderNtNtB7_9providers16ProgressProvider3bar
FN:391,_RNvXs5_NtNtCshmQA5Mrgi1L_10empack_lib7display4mockNtB5_20MockProgressProviderNtNtB7_9providers16ProgressProvider5multi
FN:380,_RNvXs5_NtNtCshmQA5Mrgi1L_10empack_lib7display4mockNtB5_20MockProgressProviderNtNtB7_9providers16ProgressProvider7spinner
FN:432,_RNvXs7_NtNtCshmQA5Mrgi1L_10empack_lib7display4mockNtB5_19MockProgressTrackerNtNtB7_9providers15ProgressTracker11set_message
FN:469,_RNvXs7_NtNtCshmQA5Mrgi1L_10empack_lib7display4mockNtB5_19MockProgressTrackerNtNtB7_9providers15ProgressTracker12finish_clear
FN:409,_RNvXs7_NtNtCshmQA5Mrgi1L_10empack_lib7display4mockNtB5_19MockProgressTrackerNtNtB7_9providers15ProgressTracker12set_position
FN:419,_RNvXs7_NtNtCshmQA5Mrgi1L_10empack_lib7display4mockNtB5_19MockProgressTrackerNtNtB7_9providers15ProgressTracker3inc
FN:442,_RNvXs7_NtNtCshmQA5Mrgi1L_10empack_lib7display4mockNtB5_19MockProgressTrackerNtNtB7_9providers15ProgressTracker4tick
FN:449,_RNvXs7_NtNtCshmQA5Mrgi1L_10empack_lib7display4mockNtB5_19MockProgressTrackerNtNtB7_9providers15ProgressTracker6finish
FN:425,_RNvXs7_NtNtCshmQA5Mrgi1L_10empack_lib7display4mockNtB5_19MockProgressTrackerNtNtB7_9providers15ProgressTracker6inc_by
FN:459,_RNvXs7_NtNtCshmQA5Mrgi1L_10empack_lib7display4mockNtB5_19MockProgressTrackerNtNtB7_9providers15ProgressTracker7abandon
FN:513,_RNvXs9_NtNtCshmQA5Mrgi1L_10empack_lib7display4mockNtB5_25MockMultiProgressProviderNtNtB7_9providers21MultiProgressProvider11add_spinner
FN:524,_RNvXs9_NtNtCshmQA5Mrgi1L_10empack_lib7display4mockNtB5_25MockMultiProgressProviderNtNtB7_9providers21MultiProgressProvider5clear
FN:504,_RNvXs9_NtNtCshmQA5Mrgi1L_10empack_lib7display4mockNtB5_25MockMultiProgressProviderNtNtB7_9providers21MultiProgressProvider7add_bar
FN:58,_RNvXs_NtNtCshmQA5Mrgi1L_10empack_lib7display4mockNtB4_19MockDisplayProviderNtNtCsj3QBrvpYeJs_4core7default7Default7default
FN:592,_RNvXsb_NtNtCshmQA5Mrgi1L_10empack_lib7display4mockNtB5_18MockPromptProviderNtNtB7_9providers14PromptProvider12multi_select
FN:563,_RNvXsb_NtNtCshmQA5Mrgi1L_10empack_lib7display4mockNtB5_18MockPromptProviderNtNtB7_9providers14PromptProvider5input
FN:577,_RNvXsb_NtNtCshmQA5Mrgi1L_10empack_lib7display4mockNtB5_18MockPromptProviderNtNtB7_9providers14PromptProvider6select
FN:549,_RNvXsb_NtNtCshmQA5Mrgi1L_10empack_lib7display4mockNtB5_18MockPromptProviderNtNtB7_9providers14PromptProvider7confirm
FN:645,_RNvXsd_NtNtCshmQA5Mrgi1L_10empack_lib7display4mockNtB5_22MockStructuredProviderNtNtB7_9providers18StructuredProvider10properties
FN:636,_RNvXsd_NtNtCshmQA5Mrgi1L_10empack_lib7display4mockNtB5_22MockStructuredProviderNtNtB7_9providers18StructuredProvider4list
FN:623,_RNvXsd_NtNtCshmQA5Mrgi1L_10empack_lib7display4mockNtB5_22MockStructuredProviderNtNtB7_9providers18StructuredProvider5table
FN:631,_RNCNCNvXsd_NtNtCshmQA5Mrgi1L_10empack_lib7display4mockNtB9_22MockStructuredProviderNtNtBb_9providers18StructuredProvider5tables_00Bd_
FN:52,_RNCNvMNtNtCshmQA5Mrgi1L_10empack_lib7display4mockNtB4_19MockDisplayProvider11count_calls0B8_
FN:315,_RNCNvXs3_NtNtCshmQA5Mrgi1L_10empack_lib7display4mockNtB7_18MockStatusProviderNtNtB9_9providers14StatusProvider4list0Bb_
FN:603,_RNCNvXsb_NtNtCshmQA5Mrgi1L_10empack_lib7display4mockNtB7_18MockPromptProviderNtNtB9_9providers14PromptProvider12multi_select0Bb_
FN:585,_RNCNvXsb_NtNtCshmQA5Mrgi1L_10empack_lib7display4mockNtB7_18MockPromptProviderNtNtB9_9providers14PromptProvider6select0Bb_
FN:652,_RNCNvXsd_NtNtCshmQA5Mrgi1L_10empack_lib7display4mockNtB7_22MockStructuredProviderNtNtB9_9providers18StructuredProvider10properties0Bb_
FN:641,_RNCNvXsd_NtNtCshmQA5Mrgi1L_10empack_lib7display4mockNtB7_22MockStructuredProviderNtNtB9_9providers18StructuredProvider4list0Bb_
FN:628,_RNCNvXsd_NtNtCshmQA5Mrgi1L_10empack_lib7display4mockNtB7_22MockStructuredProviderNtNtB9_9providers18StructuredProvider5table0Bb_
FN:631,_RNCNvXsd_NtNtCshmQA5Mrgi1L_10empack_lib7display4mockNtB7_22MockStructuredProviderNtNtB9_9providers18StructuredProvider5tables_0Bb_
FN:631,_RNCNCNvXsd_NtNtCs5BmVzKVgC1k_10empack_lib7display4mockNtB9_22MockStructuredProviderNtNtBb_9providers18StructuredProvider5tables_00Bd_
FN:52,_RNCNvMNtNtCs5BmVzKVgC1k_10empack_lib7display4mockNtB4_19MockDisplayProvider11count_calls0B8_
FN:315,_RNCNvXs3_NtNtCs5BmVzKVgC1k_10empack_lib7display4mockNtB7_18MockStatusProviderNtNtB9_9providers14StatusProvider4list0Bb_
FN:603,_RNCNvXsb_NtNtCs5BmVzKVgC1k_10empack_lib7display4mockNtB7_18MockPromptProviderNtNtB9_9providers14PromptProvider12multi_select0Bb_
FN:585,_RNCNvXsb_NtNtCs5BmVzKVgC1k_10empack_lib7display4mockNtB7_18MockPromptProviderNtNtB9_9providers14PromptProvider6select0Bb_
FN:652,_RNCNvXsd_NtNtCs5BmVzKVgC1k_10empack_lib7display4mockNtB7_22MockStructuredProviderNtNtB9_9providers18StructuredProvider10properties0Bb_
FN:641,_RNCNvXsd_NtNtCs5BmVzKVgC1k_10empack_lib7display4mockNtB7_22MockStructuredProviderNtNtB9_9providers18StructuredProvider4list0Bb_
FN:628,_RNCNvXsd_NtNtCs5BmVzKVgC1k_10empack_lib7display4mockNtB7_22MockStructuredProviderNtNtB9_9providers18StructuredProvider5table0Bb_
FN:631,_RNCNvXsd_NtNtCs5BmVzKVgC1k_10empack_lib7display4mockNtB7_22MockStructuredProviderNtNtB9_9providers18StructuredProvider5tables_0Bb_
FN:31,_RNvMNtNtCs5BmVzKVgC1k_10empack_lib7display4mockNtB2_19MockDisplayProvider11clear_calls
FN:49,_RNvMNtNtCs5BmVzKVgC1k_10empack_lib7display4mockNtB2_19MockDisplayProvider11count_calls
FN:36,_RNvMNtNtCs5BmVzKVgC1k_10empack_lib7display4mockNtB2_19MockDisplayProvider12set_response
FN:18,_RNvMNtNtCs5BmVzKVgC1k_10empack_lib7display4mockNtB2_19MockDisplayProvider3new
FN:44,_RNvMNtNtCs5BmVzKVgC1k_10empack_lib7display4mockNtB2_19MockDisplayProvider8has_call
FN:26,_RNvMNtNtCs5BmVzKVgC1k_10empack_lib7display4mockNtB2_19MockDisplayProvider9get_calls
FN:203,_RNvMs1_NtNtCs5BmVzKVgC1k_10empack_lib7display4mockNtB5_11DisplayCall9call_type
FN:257,_RNvMs2_NtNtCs5BmVzKVgC1k_10empack_lib7display4mockNtB5_18MockStatusProvider11record_call
FN:253,_RNvMs2_NtNtCs5BmVzKVgC1k_10empack_lib7display4mockNtB5_18MockStatusProvider3new
FN:362,_RNvMs4_NtNtCs5BmVzKVgC1k_10empack_lib7display4mockNtB5_20MockProgressProvider19get_next_tracker_id
FN:355,_RNvMs4_NtNtCs5BmVzKVgC1k_10empack_lib7display4mockNtB5_20MockProgressProvider3new
FN:403,_RNvMs6_NtNtCs5BmVzKVgC1k_10empack_lib7display4mockNtB5_19MockProgressTracker3new
FN:495,_RNvMs8_NtNtCs5BmVzKVgC1k_10empack_lib7display4mockNtB5_25MockMultiProgressProvider19get_next_tracker_id
FN:488,_RNvMs8_NtNtCs5BmVzKVgC1k_10empack_lib7display4mockNtB5_25MockMultiProgressProvider3new
FN:543,_RNvMsa_NtNtCs5BmVzKVgC1k_10empack_lib7display4mockNtB5_18MockPromptProvider12get_response
FN:536,_RNvMsa_NtNtCs5BmVzKVgC1k_10empack_lib7display4mockNtB5_18MockPromptProvider3new
FN:617,_RNvMsc_NtNtCs5BmVzKVgC1k_10empack_lib7display4mockNtB5_22MockStructuredProvider3new
FN:79,_RNvXs0_NtNtCs5BmVzKVgC1k_10empack_lib7display4mockNtB5_19MockDisplayProviderNtNtB7_9providers15DisplayProvider5table
FN:72,_RNvXs0_NtNtCs5BmVzKVgC1k_10empack_lib7display4mockNtB5_19MockDisplayProviderNtNtB7_9providers15DisplayProvider6prompt
FN:64,_RNvXs0_NtNtCs5BmVzKVgC1k_10empack_lib7display4mockNtB5_19MockDisplayProviderNtNtB7_9providers15DisplayProvider6status
FN:68,_RNvXs0_NtNtCs5BmVzKVgC1k_10empack_lib7display4mockNtB5_19MockDisplayProviderNtNtB7_9providers15DisplayProvider8progress
FN:325,_RNvXs3_NtNtCs5BmVzKVgC1k_10empack_lib7display4mockNtB5_18MockStatusProviderNtNtB7_9providers14StatusProvider10tool_check
FN:289,_RNvXs3_NtNtCs5BmVzKVgC1k_10empack_lib7display4mockNtB5_18MockStatusProviderNtNtB7_9providers14StatusProvider4info
FN:313,_RNvXs3_NtNtCs5BmVzKVgC1k_10empack_lib7display4mockNtB5_18MockStatusProviderNtNtB7_9providers14StatusProvider4list
FN:339,_RNvXs3_NtNtCs5BmVzKVgC1k_10empack_lib7display4mockNtB5_18MockStatusProviderNtNtB7_9providers14StatusProvider4step
FN:276,_RNvXs3_NtNtCs5BmVzKVgC1k_10empack_lib7display4mockNtB5_18MockStatusProviderNtNtB7_9providers14StatusProvider5error
FN:307,_RNvXs3_NtNtCs5BmVzKVgC1k_10empack_lib7display4mockNtB5_18MockStatusProviderNtNtB7_9providers14StatusProvider6subtle
FN:295,_RNvXs3_NtNtCs5BmVzKVgC1k_10empack_lib7display4mockNtB5_18MockStatusProviderNtNtB7_9providers14StatusProvider7message
FN:333,_RNvXs3_NtNtCs5BmVzKVgC1k_10empack_lib7display4mockNtB5_18MockStatusProviderNtNtB7_9providers14StatusProvider7section
FN:269,_RNvXs3_NtNtCs5BmVzKVgC1k_10empack_lib7display4mockNtB5_18MockStatusProviderNtNtB7_9providers14StatusProvider7success
FN:283,_RNvXs3_NtNtCs5BmVzKVgC1k_10empack_lib7display4mockNtB5_18MockStatusProviderNtNtB7_9providers14StatusProvider7warning
FN:263,_RNvXs3_NtNtCs5BmVzKVgC1k_10empack_lib7display4mockNtB5_18MockStatusProviderNtNtB7_9providers14StatusProvider8checking
FN:319,_RNvXs3_NtNtCs5BmVzKVgC1k_10empack_lib7display4mockNtB5_18MockStatusProviderNtNtB7_9providers14StatusProvider8complete
FN:301,_RNvXs3_NtNtCs5BmVzKVgC1k_10empack_lib7display4mockNtB5_18MockStatusProviderNtNtB7_9providers14StatusProvider8emphasis
FN:371,_RNvXs5_NtNtCs5BmVzKVgC1k_10empack_lib7display4mockNtB5_20MockProgressProviderNtNtB7_9providers16ProgressProvider3bar
FN:391,_RNvXs5_NtNtCs5BmVzKVgC1k_10empack_lib7display4mockNtB5_20MockProgressProviderNtNtB7_9providers16ProgressProvider5multi
FN:380,_RNvXs5_NtNtCs5BmVzKVgC1k_10empack_lib7display4mockNtB5_20MockProgressProviderNtNtB7_9providers16ProgressProvider7spinner
FN:432,_RNvXs7_NtNtCs5BmVzKVgC1k_10empack_lib7display4mockNtB5_19MockProgressTrackerNtNtB7_9providers15ProgressTracker11set_message
FN:469,_RNvXs7_NtNtCs5BmVzKVgC1k_10empack_lib7display4mockNtB5_19MockProgressTrackerNtNtB7_9providers15ProgressTracker12finish_clear
FN:409,_RNvXs7_NtNtCs5BmVzKVgC1k_10empack_lib7display4mockNtB5_19MockProgressTrackerNtNtB7_9providers15ProgressTracker12set_position
FN:419,_RNvXs7_NtNtCs5BmVzKVgC1k_10empack_lib7display4mockNtB5_19MockProgressTrackerNtNtB7_9providers15ProgressTracker3inc
FN:442,_RNvXs7_NtNtCs5BmVzKVgC1k_10empack_lib7display4mockNtB5_19MockProgressTrackerNtNtB7_9providers15ProgressTracker4tick
FN:449,_RNvXs7_NtNtCs5BmVzKVgC1k_10empack_lib7display4mockNtB5_19MockProgressTrackerNtNtB7_9providers15ProgressTracker6finish
FN:425,_RNvXs7_NtNtCs5BmVzKVgC1k_10empack_lib7display4mockNtB5_19MockProgressTrackerNtNtB7_9providers15ProgressTracker6inc_by
FN:459,_RNvXs7_NtNtCs5BmVzKVgC1k_10empack_lib7display4mockNtB5_19MockProgressTrackerNtNtB7_9providers15ProgressTracker7abandon
FN:513,_RNvXs9_NtNtCs5BmVzKVgC1k_10empack_lib7display4mockNtB5_25MockMultiProgressProviderNtNtB7_9providers21MultiProgressProvider11add_spinner
FN:524,_RNvXs9_NtNtCs5BmVzKVgC1k_10empack_lib7display4mockNtB5_25MockMultiProgressProviderNtNtB7_9providers21MultiProgressProvider5clear
FN:504,_RNvXs9_NtNtCs5BmVzKVgC1k_10empack_lib7display4mockNtB5_25MockMultiProgressProviderNtNtB7_9providers21MultiProgressProvider7add_bar
FN:58,_RNvXs_NtNtCs5BmVzKVgC1k_10empack_lib7display4mockNtB4_19MockDisplayProviderNtNtCsj3QBrvpYeJs_4core7default7Default7default
FN:592,_RNvXsb_NtNtCs5BmVzKVgC1k_10empack_lib7display4mockNtB5_18MockPromptProviderNtNtB7_9providers14PromptProvider12multi_select
FN:563,_RNvXsb_NtNtCs5BmVzKVgC1k_10empack_lib7display4mockNtB5_18MockPromptProviderNtNtB7_9providers14PromptProvider5input
FN:577,_RNvXsb_NtNtCs5BmVzKVgC1k_10empack_lib7display4mockNtB5_18MockPromptProviderNtNtB7_9providers14PromptProvider6select
FN:549,_RNvXsb_NtNtCs5BmVzKVgC1k_10empack_lib7display4mockNtB5_18MockPromptProviderNtNtB7_9providers14PromptProvider7confirm
FN:645,_RNvXsd_NtNtCs5BmVzKVgC1k_10empack_lib7display4mockNtB5_22MockStructuredProviderNtNtB7_9providers18StructuredProvider10properties
FN:636,_RNvXsd_NtNtCs5BmVzKVgC1k_10empack_lib7display4mockNtB5_22MockStructuredProviderNtNtB7_9providers18StructuredProvider4list
FN:623,_RNvXsd_NtNtCs5BmVzKVgC1k_10empack_lib7display4mockNtB5_22MockStructuredProviderNtNtB7_9providers18StructuredProvider5table
FNDA:0,_RNvMNtNtCshmQA5Mrgi1L_10empack_lib7display4mockNtB2_19MockDisplayProvider11clear_calls
FNDA:0,_RNvMNtNtCshmQA5Mrgi1L_10empack_lib7display4mockNtB2_19MockDisplayProvider11count_calls
FNDA:0,_RNvMNtNtCshmQA5Mrgi1L_10empack_lib7display4mockNtB2_19MockDisplayProvider12set_response
FNDA:0,_RNvMNtNtCshmQA5Mrgi1L_10empack_lib7display4mockNtB2_19MockDisplayProvider3new
FNDA:0,_RNvMNtNtCshmQA5Mrgi1L_10empack_lib7display4mockNtB2_19MockDisplayProvider8has_call
FNDA:0,_RNvMNtNtCshmQA5Mrgi1L_10empack_lib7display4mockNtB2_19MockDisplayProvider9get_calls
FNDA:0,_RNvMs1_NtNtCshmQA5Mrgi1L_10empack_lib7display4mockNtB5_11DisplayCall9call_type
FNDA:0,_RNvMs2_NtNtCshmQA5Mrgi1L_10empack_lib7display4mockNtB5_18MockStatusProvider11record_call
FNDA:0,_RNvMs2_NtNtCshmQA5Mrgi1L_10empack_lib7display4mockNtB5_18MockStatusProvider3new
FNDA:0,_RNvMs4_NtNtCshmQA5Mrgi1L_10empack_lib7display4mockNtB5_20MockProgressProvider19get_next_tracker_id
FNDA:0,_RNvMs4_NtNtCshmQA5Mrgi1L_10empack_lib7display4mockNtB5_20MockProgressProvider3new
FNDA:0,_RNvMs6_NtNtCshmQA5Mrgi1L_10empack_lib7display4mockNtB5_19MockProgressTracker3new
FNDA:0,_RNvMs8_NtNtCshmQA5Mrgi1L_10empack_lib7display4mockNtB5_25MockMultiProgressProvider19get_next_tracker_id
FNDA:0,_RNvMs8_NtNtCshmQA5Mrgi1L_10empack_lib7display4mockNtB5_25MockMultiProgressProvider3new
FNDA:0,_RNvMsa_NtNtCshmQA5Mrgi1L_10empack_lib7display4mockNtB5_18MockPromptProvider12get_response
FNDA:0,_RNvMsa_NtNtCshmQA5Mrgi1L_10empack_lib7display4mockNtB5_18MockPromptProvider3new
FNDA:0,_RNvMsc_NtNtCshmQA5Mrgi1L_10empack_lib7display4mockNtB5_22MockStructuredProvider3new
FNDA:0,_RNvXs0_NtNtCshmQA5Mrgi1L_10empack_lib7display4mockNtB5_19MockDisplayProviderNtNtB7_9providers15DisplayProvider5table
FNDA:0,_RNvXs0_NtNtCshmQA5Mrgi1L_10empack_lib7display4mockNtB5_19MockDisplayProviderNtNtB7_9providers15DisplayProvider6prompt
FNDA:0,_RNvXs0_NtNtCshmQA5Mrgi1L_10empack_lib7display4mockNtB5_19MockDisplayProviderNtNtB7_9providers15DisplayProvider6status
FNDA:0,_RNvXs0_NtNtCshmQA5Mrgi1L_10empack_lib7display4mockNtB5_19MockDisplayProviderNtNtB7_9providers15DisplayProvider8progress
FNDA:0,_RNvXs3_NtNtCshmQA5Mrgi1L_10empack_lib7display4mockNtB5_18MockStatusProviderNtNtB7_9providers14StatusProvider10tool_check
FNDA:0,_RNvXs3_NtNtCshmQA5Mrgi1L_10empack_lib7display4mockNtB5_18MockStatusProviderNtNtB7_9providers14StatusProvider4info
FNDA:0,_RNvXs3_NtNtCshmQA5Mrgi1L_10empack_lib7display4mockNtB5_18MockStatusProviderNtNtB7_9providers14StatusProvider4list
FNDA:0,_RNvXs3_NtNtCshmQA5Mrgi1L_10empack_lib7display4mockNtB5_18MockStatusProviderNtNtB7_9providers14StatusProvider4step
FNDA:0,_RNvXs3_NtNtCshmQA5Mrgi1L_10empack_lib7display4mockNtB5_18MockStatusProviderNtNtB7_9providers14StatusProvider5error
FNDA:0,_RNvXs3_NtNtCshmQA5Mrgi1L_10empack_lib7display4mockNtB5_18MockStatusProviderNtNtB7_9providers14StatusProvider6subtle
FNDA:0,_RNvXs3_NtNtCshmQA5Mrgi1L_10empack_lib7display4mockNtB5_18MockStatusProviderNtNtB7_9providers14StatusProvider7message
FNDA:0,_RNvXs3_NtNtCshmQA5Mrgi1L_10empack_lib7display4mockNtB5_18MockStatusProviderNtNtB7_9providers14StatusProvider7section
FNDA:0,_RNvXs3_NtNtCshmQA5Mrgi1L_10empack_lib7display4mockNtB5_18MockStatusProviderNtNtB7_9providers14StatusProvider7success
FNDA:0,_RNvXs3_NtNtCshmQA5Mrgi1L_10empack_lib7display4mockNtB5_18MockStatusProviderNtNtB7_9providers14StatusProvider7warning
FNDA:0,_RNvXs3_NtNtCshmQA5Mrgi1L_10empack_lib7display4mockNtB5_18MockStatusProviderNtNtB7_9providers14StatusProvider8checking
FNDA:0,_RNvXs3_NtNtCshmQA5Mrgi1L_10empack_lib7display4mockNtB5_18MockStatusProviderNtNtB7_9providers14StatusProvider8complete
FNDA:0,_RNvXs3_NtNtCshmQA5Mrgi1L_10empack_lib7display4mockNtB5_18MockStatusProviderNtNtB7_9providers14StatusProvider8emphasis
FNDA:0,_RNvXs5_NtNtCshmQA5Mrgi1L_10empack_lib7display4mockNtB5_20MockProgressProviderNtNtB7_9providers16ProgressProvider3bar
FNDA:0,_RNvXs5_NtNtCshmQA5Mrgi1L_10empack_lib7display4mockNtB5_20MockProgressProviderNtNtB7_9providers16ProgressProvider5multi
FNDA:0,_RNvXs5_NtNtCshmQA5Mrgi1L_10empack_lib7display4mockNtB5_20MockProgressProviderNtNtB7_9providers16ProgressProvider7spinner
FNDA:0,_RNvXs7_NtNtCshmQA5Mrgi1L_10empack_lib7display4mockNtB5_19MockProgressTrackerNtNtB7_9providers15ProgressTracker11set_message
FNDA:0,_RNvXs7_NtNtCshmQA5Mrgi1L_10empack_lib7display4mockNtB5_19MockProgressTrackerNtNtB7_9providers15ProgressTracker12finish_clear
FNDA:0,_RNvXs7_NtNtCshmQA5Mrgi1L_10empack_lib7display4mockNtB5_19MockProgressTrackerNtNtB7_9providers15ProgressTracker12set_position
FNDA:0,_RNvXs7_NtNtCshmQA5Mrgi1L_10empack_lib7display4mockNtB5_19MockProgressTrackerNtNtB7_9providers15ProgressTracker3inc
FNDA:0,_RNvXs7_NtNtCshmQA5Mrgi1L_10empack_lib7display4mockNtB5_19MockProgressTrackerNtNtB7_9providers15ProgressTracker4tick
FNDA:0,_RNvXs7_NtNtCshmQA5Mrgi1L_10empack_lib7display4mockNtB5_19MockProgressTrackerNtNtB7_9providers15ProgressTracker6finish
FNDA:0,_RNvXs7_NtNtCshmQA5Mrgi1L_10empack_lib7display4mockNtB5_19MockProgressTrackerNtNtB7_9providers15ProgressTracker6inc_by
FNDA:0,_RNvXs7_NtNtCshmQA5Mrgi1L_10empack_lib7display4mockNtB5_19MockProgressTrackerNtNtB7_9providers15ProgressTracker7abandon
FNDA:0,_RNvXs9_NtNtCshmQA5Mrgi1L_10empack_lib7display4mockNtB5_25MockMultiProgressProviderNtNtB7_9providers21MultiProgressProvider11add_spinner
FNDA:0,_RNvXs9_NtNtCshmQA5Mrgi1L_10empack_lib7display4mockNtB5_25MockMultiProgressProviderNtNtB7_9providers21MultiProgressProvider5clear
FNDA:0,_RNvXs9_NtNtCshmQA5Mrgi1L_10empack_lib7display4mockNtB5_25MockMultiProgressProviderNtNtB7_9providers21MultiProgressProvider7add_bar
FNDA:0,_RNvXs_NtNtCshmQA5Mrgi1L_10empack_lib7display4mockNtB4_19MockDisplayProviderNtNtCsj3QBrvpYeJs_4core7default7Default7default
FNDA:0,_RNvXsb_NtNtCshmQA5Mrgi1L_10empack_lib7display4mockNtB5_18MockPromptProviderNtNtB7_9providers14PromptProvider12multi_select
FNDA:0,_RNvXsb_NtNtCshmQA5Mrgi1L_10empack_lib7display4mockNtB5_18MockPromptProviderNtNtB7_9providers14PromptProvider5input
FNDA:0,_RNvXsb_NtNtCshmQA5Mrgi1L_10empack_lib7display4mockNtB5_18MockPromptProviderNtNtB7_9providers14PromptProvider6select
FNDA:0,_RNvXsb_NtNtCshmQA5Mrgi1L_10empack_lib7display4mockNtB5_18MockPromptProviderNtNtB7_9providers14PromptProvider7confirm
FNDA:0,_RNvXsd_NtNtCshmQA5Mrgi1L_10empack_lib7display4mockNtB5_22MockStructuredProviderNtNtB7_9providers18StructuredProvider10properties
FNDA:0,_RNvXsd_NtNtCshmQA5Mrgi1L_10empack_lib7display4mockNtB5_22MockStructuredProviderNtNtB7_9providers18StructuredProvider4list
FNDA:0,_RNvXsd_NtNtCshmQA5Mrgi1L_10empack_lib7display4mockNtB5_22MockStructuredProviderNtNtB7_9providers18StructuredProvider5table
FNDA:0,_RNCNCNvXsd_NtNtCshmQA5Mrgi1L_10empack_lib7display4mockNtB9_22MockStructuredProviderNtNtBb_9providers18StructuredProvider5tables_00Bd_
FNDA:0,_RNCNvMNtNtCshmQA5Mrgi1L_10empack_lib7display4mockNtB4_19MockDisplayProvider11count_calls0B8_
FNDA:0,_RNCNvXs3_NtNtCshmQA5Mrgi1L_10empack_lib7display4mockNtB7_18MockStatusProviderNtNtB9_9providers14StatusProvider4list0Bb_
FNDA:0,_RNCNvXsb_NtNtCshmQA5Mrgi1L_10empack_lib7display4mockNtB7_18MockPromptProviderNtNtB9_9providers14PromptProvider12multi_select0Bb_
FNDA:0,_RNCNvXsb_NtNtCshmQA5Mrgi1L_10empack_lib7display4mockNtB7_18MockPromptProviderNtNtB9_9providers14PromptProvider6select0Bb_
FNDA:0,_RNCNvXsd_NtNtCshmQA5Mrgi1L_10empack_lib7display4mockNtB7_22MockStructuredProviderNtNtB9_9providers18StructuredProvider10properties0Bb_
FNDA:0,_RNCNvXsd_NtNtCshmQA5Mrgi1L_10empack_lib7display4mockNtB7_22MockStructuredProviderNtNtB9_9providers18StructuredProvider4list0Bb_
FNDA:0,_RNCNvXsd_NtNtCshmQA5Mrgi1L_10empack_lib7display4mockNtB7_22MockStructuredProviderNtNtB9_9providers18StructuredProvider5table0Bb_
FNDA:0,_RNCNvXsd_NtNtCshmQA5Mrgi1L_10empack_lib7display4mockNtB7_22MockStructuredProviderNtNtB9_9providers18StructuredProvider5tables_0Bb_
FNDA:0,_RNCNCNvXsd_NtNtCs5BmVzKVgC1k_10empack_lib7display4mockNtB9_22MockStructuredProviderNtNtBb_9providers18StructuredProvider5tables_00Bd_
FNDA:0,_RNCNvMNtNtCs5BmVzKVgC1k_10empack_lib7display4mockNtB4_19MockDisplayProvider11count_calls0B8_
FNDA:0,_RNCNvXs3_NtNtCs5BmVzKVgC1k_10empack_lib7display4mockNtB7_18MockStatusProviderNtNtB9_9providers14StatusProvider4list0Bb_
FNDA:0,_RNCNvXsb_NtNtCs5BmVzKVgC1k_10empack_lib7display4mockNtB7_18MockPromptProviderNtNtB9_9providers14PromptProvider12multi_select0Bb_
FNDA:0,_RNCNvXsb_NtNtCs5BmVzKVgC1k_10empack_lib7display4mockNtB7_18MockPromptProviderNtNtB9_9providers14PromptProvider6select0Bb_
FNDA:0,_RNCNvXsd_NtNtCs5BmVzKVgC1k_10empack_lib7display4mockNtB7_22MockStructuredProviderNtNtB9_9providers18StructuredProvider10properties0Bb_
FNDA:0,_RNCNvXsd_NtNtCs5BmVzKVgC1k_10empack_lib7display4mockNtB7_22MockStructuredProviderNtNtB9_9providers18StructuredProvider4list0Bb_
FNDA:0,_RNCNvXsd_NtNtCs5BmVzKVgC1k_10empack_lib7display4mockNtB7_22MockStructuredProviderNtNtB9_9providers18StructuredProvider5table0Bb_
FNDA:0,_RNCNvXsd_NtNtCs5BmVzKVgC1k_10empack_lib7display4mockNtB7_22MockStructuredProviderNtNtB9_9providers18StructuredProvider5tables_0Bb_
FNDA:0,_RNvMNtNtCs5BmVzKVgC1k_10empack_lib7display4mockNtB2_19MockDisplayProvider11clear_calls
FNDA:0,_RNvMNtNtCs5BmVzKVgC1k_10empack_lib7display4mockNtB2_19MockDisplayProvider11count_calls
FNDA:0,_RNvMNtNtCs5BmVzKVgC1k_10empack_lib7display4mockNtB2_19MockDisplayProvider12set_response
FNDA:0,_RNvMNtNtCs5BmVzKVgC1k_10empack_lib7display4mockNtB2_19MockDisplayProvider3new
FNDA:0,_RNvMNtNtCs5BmVzKVgC1k_10empack_lib7display4mockNtB2_19MockDisplayProvider8has_call
FNDA:0,_RNvMNtNtCs5BmVzKVgC1k_10empack_lib7display4mockNtB2_19MockDisplayProvider9get_calls
FNDA:0,_RNvMs1_NtNtCs5BmVzKVgC1k_10empack_lib7display4mockNtB5_11DisplayCall9call_type
FNDA:0,_RNvMs2_NtNtCs5BmVzKVgC1k_10empack_lib7display4mockNtB5_18MockStatusProvider11record_call
FNDA:0,_RNvMs2_NtNtCs5BmVzKVgC1k_10empack_lib7display4mockNtB5_18MockStatusProvider3new
FNDA:0,_RNvMs4_NtNtCs5BmVzKVgC1k_10empack_lib7display4mockNtB5_20MockProgressProvider19get_next_tracker_id
FNDA:0,_RNvMs4_NtNtCs5BmVzKVgC1k_10empack_lib7display4mockNtB5_20MockProgressProvider3new
FNDA:0,_RNvMs6_NtNtCs5BmVzKVgC1k_10empack_lib7display4mockNtB5_19MockProgressTracker3new
FNDA:0,_RNvMs8_NtNtCs5BmVzKVgC1k_10empack_lib7display4mockNtB5_25MockMultiProgressProvider19get_next_tracker_id
FNDA:0,_RNvMs8_NtNtCs5BmVzKVgC1k_10empack_lib7display4mockNtB5_25MockMultiProgressProvider3new
FNDA:0,_RNvMsa_NtNtCs5BmVzKVgC1k_10empack_lib7display4mockNtB5_18MockPromptProvider12get_response
FNDA:0,_RNvMsa_NtNtCs5BmVzKVgC1k_10empack_lib7display4mockNtB5_18MockPromptProvider3new
FNDA:0,_RNvMsc_NtNtCs5BmVzKVgC1k_10empack_lib7display4mockNtB5_22MockStructuredProvider3new
FNDA:0,_RNvXs0_NtNtCs5BmVzKVgC1k_10empack_lib7display4mockNtB5_19MockDisplayProviderNtNtB7_9providers15DisplayProvider5table
FNDA:0,_RNvXs0_NtNtCs5BmVzKVgC1k_10empack_lib7display4mockNtB5_19MockDisplayProviderNtNtB7_9providers15DisplayProvider6prompt
FNDA:0,_RNvXs0_NtNtCs5BmVzKVgC1k_10empack_lib7display4mockNtB5_19MockDisplayProviderNtNtB7_9providers15DisplayProvider6status
FNDA:0,_RNvXs0_NtNtCs5BmVzKVgC1k_10empack_lib7display4mockNtB5_19MockDisplayProviderNtNtB7_9providers15DisplayProvider8progress
FNDA:0,_RNvXs3_NtNtCs5BmVzKVgC1k_10empack_lib7display4mockNtB5_18MockStatusProviderNtNtB7_9providers14StatusProvider10tool_check
FNDA:0,_RNvXs3_NtNtCs5BmVzKVgC1k_10empack_lib7display4mockNtB5_18MockStatusProviderNtNtB7_9providers14StatusProvider4info
FNDA:0,_RNvXs3_NtNtCs5BmVzKVgC1k_10empack_lib7display4mockNtB5_18MockStatusProviderNtNtB7_9providers14StatusProvider4list
FNDA:0,_RNvXs3_NtNtCs5BmVzKVgC1k_10empack_lib7display4mockNtB5_18MockStatusProviderNtNtB7_9providers14StatusProvider4step
FNDA:0,_RNvXs3_NtNtCs5BmVzKVgC1k_10empack_lib7display4mockNtB5_18MockStatusProviderNtNtB7_9providers14StatusProvider5error
FNDA:0,_RNvXs3_NtNtCs5BmVzKVgC1k_10empack_lib7display4mockNtB5_18MockStatusProviderNtNtB7_9providers14StatusProvider6subtle
FNDA:0,_RNvXs3_NtNtCs5BmVzKVgC1k_10empack_lib7display4mockNtB5_18MockStatusProviderNtNtB7_9providers14StatusProvider7message
FNDA:0,_RNvXs3_NtNtCs5BmVzKVgC1k_10empack_lib7display4mockNtB5_18MockStatusProviderNtNtB7_9providers14StatusProvider7section
FNDA:0,_RNvXs3_NtNtCs5BmVzKVgC1k_10empack_lib7display4mockNtB5_18MockStatusProviderNtNtB7_9providers14StatusProvider7success
FNDA:0,_RNvXs3_NtNtCs5BmVzKVgC1k_10empack_lib7display4mockNtB5_18MockStatusProviderNtNtB7_9providers14StatusProvider7warning
FNDA:0,_RNvXs3_NtNtCs5BmVzKVgC1k_10empack_lib7display4mockNtB5_18MockStatusProviderNtNtB7_9providers14StatusProvider8checking
FNDA:0,_RNvXs3_NtNtCs5BmVzKVgC1k_10empack_lib7display4mockNtB5_18MockStatusProviderNtNtB7_9providers14StatusProvider8complete
FNDA:0,_RNvXs3_NtNtCs5BmVzKVgC1k_10empack_lib7display4mockNtB5_18MockStatusProviderNtNtB7_9providers14StatusProvider8emphasis
FNDA:0,_RNvXs5_NtNtCs5BmVzKVgC1k_10empack_lib7display4mockNtB5_20MockProgressProviderNtNtB7_9providers16ProgressProvider3bar
FNDA:0,_RNvXs5_NtNtCs5BmVzKVgC1k_10empack_lib7display4mockNtB5_20MockProgressProviderNtNtB7_9providers16ProgressProvider5multi
FNDA:0,_RNvXs5_NtNtCs5BmVzKVgC1k_10empack_lib7display4mockNtB5_20MockProgressProviderNtNtB7_9providers16ProgressProvider7spinner
FNDA:0,_RNvXs7_NtNtCs5BmVzKVgC1k_10empack_lib7display4mockNtB5_19MockProgressTrackerNtNtB7_9providers15ProgressTracker11set_message
FNDA:0,_RNvXs7_NtNtCs5BmVzKVgC1k_10empack_lib7display4mockNtB5_19MockProgressTrackerNtNtB7_9providers15ProgressTracker12finish_clear
FNDA:0,_RNvXs7_NtNtCs5BmVzKVgC1k_10empack_lib7display4mockNtB5_19MockProgressTrackerNtNtB7_9providers15ProgressTracker12set_position
FNDA:0,_RNvXs7_NtNtCs5BmVzKVgC1k_10empack_lib7display4mockNtB5_19MockProgressTrackerNtNtB7_9providers15ProgressTracker3inc
FNDA:0,_RNvXs7_NtNtCs5BmVzKVgC1k_10empack_lib7display4mockNtB5_19MockProgressTrackerNtNtB7_9providers15ProgressTracker4tick
FNDA:0,_RNvXs7_NtNtCs5BmVzKVgC1k_10empack_lib7display4mockNtB5_19MockProgressTrackerNtNtB7_9providers15ProgressTracker6finish
FNDA:0,_RNvXs7_NtNtCs5BmVzKVgC1k_10empack_lib7display4mockNtB5_19MockProgressTrackerNtNtB7_9providers15ProgressTracker6inc_by
FNDA:0,_RNvXs7_NtNtCs5BmVzKVgC1k_10empack_lib7display4mockNtB5_19MockProgressTrackerNtNtB7_9providers15ProgressTracker7abandon
FNDA:0,_RNvXs9_NtNtCs5BmVzKVgC1k_10empack_lib7display4mockNtB5_25MockMultiProgressProviderNtNtB7_9providers21MultiProgressProvider11add_spinner
FNDA:0,_RNvXs9_NtNtCs5BmVzKVgC1k_10empack_lib7display4mockNtB5_25MockMultiProgressProviderNtNtB7_9providers21MultiProgressProvider5clear
FNDA:0,_RNvXs9_NtNtCs5BmVzKVgC1k_10empack_lib7display4mockNtB5_25MockMultiProgressProviderNtNtB7_9providers21MultiProgressProvider7add_bar
FNDA:0,_RNvXs_NtNtCs5BmVzKVgC1k_10empack_lib7display4mockNtB4_19MockDisplayProviderNtNtCsj3QBrvpYeJs_4core7default7Default7default
FNDA:0,_RNvXsb_NtNtCs5BmVzKVgC1k_10empack_lib7display4mockNtB5_18MockPromptProviderNtNtB7_9providers14PromptProvider12multi_select
FNDA:0,_RNvXsb_NtNtCs5BmVzKVgC1k_10empack_lib7display4mockNtB5_18MockPromptProviderNtNtB7_9providers14PromptProvider5input
FNDA:0,_RNvXsb_NtNtCs5BmVzKVgC1k_10empack_lib7display4mockNtB5_18MockPromptProviderNtNtB7_9providers14PromptProvider6select
FNDA:0,_RNvXsb_NtNtCs5BmVzKVgC1k_10empack_lib7display4mockNtB5_18MockPromptProviderNtNtB7_9providers14PromptProvider7confirm
FNDA:0,_RNvXsd_NtNtCs5BmVzKVgC1k_10empack_lib7display4mockNtB5_22MockStructuredProviderNtNtB7_9providers18StructuredProvider10properties
FNDA:0,_RNvXsd_NtNtCs5BmVzKVgC1k_10empack_lib7display4mockNtB5_22MockStructuredProviderNtNtB7_9providers18StructuredProvider4list
FNDA:0,_RNvXsd_NtNtCs5BmVzKVgC1k_10empack_lib7display4mockNtB5_22MockStructuredProviderNtNtB7_9providers18StructuredProvider5table
FNF:65
FNH:0
DA:18,0
DA:19,0
DA:20,0
DA:21,0
DA:22,0
DA:23,0
DA:26,0
DA:27,0
DA:28,0
DA:31,0
DA:32,0
DA:33,0
DA:36,0
DA:37,0
DA:38,0
DA:39,0
DA:40,0
DA:41,0
DA:44,0
DA:45,0
DA:46,0
DA:49,0
DA:50,0
DA:51,0
DA:52,0
DA:53,0
DA:54,0
DA:58,0
DA:59,0
DA:60,0
DA:64,0
DA:65,0
DA:66,0
DA:68,0
DA:69,0
DA:70,0
DA:72,0
DA:73,0
DA:74,0
DA:75,0
DA:76,0
DA:77,0
DA:79,0
DA:80,0
DA:81,0
DA:203,0
DA:204,0
DA:205,0
DA:206,0
DA:207,0
DA:208,0
DA:209,0
DA:210,0
DA:211,0
DA:212,0
DA:213,0
DA:214,0
DA:215,0
DA:216,0
DA:217,0
DA:218,0
DA:219,0
DA:220,0
DA:221,0
DA:222,0
DA:223,0
DA:224,0
DA:225,0
DA:226,0
DA:227,0
DA:228,0
DA:229,0
DA:230,0
DA:231,0
DA:232,0
DA:233,0
DA:235,0
DA:253,0
DA:254,0
DA:255,0
DA:257,0
DA:258,0
DA:259,0
DA:263,0
DA:264,0
DA:265,0
DA:266,0
DA:267,0
DA:269,0
DA:270,0
DA:271,0
DA:272,0
DA:273,0
DA:274,0
DA:276,0
DA:277,0
DA:278,0
DA:279,0
DA:280,0
DA:281,0
DA:283,0
DA:284,0
DA:285,0
DA:286,0
DA:287,0
DA:289,0
DA:290,0
DA:291,0
DA:292,0
DA:293,0
DA:295,0
DA:296,0
DA:297,0
DA:298,0
DA:299,0
DA:301,0
DA:302,0
DA:303,0
DA:304,0
DA:305,0
DA:307,0
DA:308,0
DA:309,0
DA:310,0
DA:311,0
DA:313,0
DA:314,0
DA:315,0
DA:317,0
DA:319,0
DA:320,0
DA:321,0
DA:322,0
DA:323,0
DA:325,0
DA:326,0
DA:327,0
DA:328,0
DA:329,0
DA:330,0
DA:331,0
DA:333,0
DA:334,0
DA:335,0
DA:336,0
DA:337,0
DA:339,0
DA:340,0
DA:341,0
DA:342,0
DA:343,0
DA:344,0
DA:345,0
DA:355,0
DA:356,0
DA:357,0
DA:358,0
DA:359,0
DA:360,0
DA:362,0
DA:363,0
DA:364,0
DA:365,0
DA:366,0
DA:367,0
DA:371,0
DA:372,0
DA:373,0
DA:374,0
DA:375,0
DA:376,0
DA:377,0
DA:378,0
DA:380,0
DA:381,0
DA:382,0
DA:383,0
DA:384,0
DA:385,0
DA:386,0
DA:387,0
DA:388,0
DA:389,0
DA:391,0
DA:392,0
DA:393,0
DA:403,0
DA:404,0
DA:405,0
DA:409,0
DA:410,0
DA:411,0
DA:412,0
DA:413,0
DA:414,0
DA:415,0
DA:416,0
DA:417,0
DA:419,0
DA:420,0
DA:421,0
DA:422,0
DA:423,0
DA:425,0
DA:426,0
DA:427,0
DA:428,0
DA:429,0
DA:430,0
DA:432,0
DA:433,0
DA:434,0
DA:435,0
DA:436,0
DA:437,0
DA:438,0
DA:439,0
DA:440,0
DA:442,0
DA:443,0
DA:444,0
DA:445,0
DA:446,0
DA:447,0
DA:449,0
DA:450,0
DA:451,0
DA:452,0
DA:453,0
DA:454,0
DA:455,0
DA:456,0
DA:457,0
DA:459,0
DA:460,0
DA:461,0
DA:462,0
DA:463,0
DA:464,0
DA:465,0
DA:466,0
DA:467,0
DA:469,0
DA:471,0
DA:472,0
DA:473,0
DA:474,0
DA:475,0
DA:476,0
DA:477,0
DA:478,0
DA:488,0
DA:489,0
DA:490,0
DA:491,0
DA:492,0
DA:493,0
DA:495,0
DA:496,0
DA:497,0
DA:498,0
DA:499,0
DA:500,0
DA:504,0
DA:505,0
DA:506,0
DA:507,0
DA:508,0
DA:509,0
DA:510,0
DA:511,0
DA:513,0
DA:514,0
DA:515,0
DA:516,0
DA:517,0
DA:518,0
DA:519,0
DA:520,0
DA:521,0
DA:522,0
DA:524,0
DA:526,0
DA:536,0
DA:537,0
DA:538,0
DA:539,0
DA:540,0
DA:541,0
DA:543,0
DA:544,0
DA:545,0
DA:549,0
DA:550,0
DA:551,0
DA:552,0
DA:555,0
DA:556,0
DA:557,0
DA:558,0
DA:560,0
DA:561,0
DA:563,0
DA:564,0
DA:565,0
DA:566,0
DA:569,0
DA:570,0
DA:571,0
DA:572,0
DA:574,0
DA:575,0
DA:577,0
DA:578,0
DA:579,0
DA:580,0
DA:583,0
DA:584,0
DA:585,0
DA:586,0
DA:589,0
DA:590,0
DA:592,0
DA:593,0
DA:594,0
DA:595,0
DA:598,0
DA:599,0
DA:600,0
DA:601,0
DA:602,0
DA:603,0
DA:604,0
DA:607,0
DA:608,0
DA:617,0
DA:618,0
DA:619,0
DA:623,0
DA:624,0
DA:625,0
DA:626,0
DA:627,0
DA:628,0
DA:629,0
DA:630,0
DA:631,0
DA:632,0
DA:634,0
DA:636,0
DA:637,0
DA:638,0
DA:639,0
DA:640,0
DA:641,0
DA:643,0
DA:645,0
DA:646,0
DA:647,0
DA:648,0
DA:649,0
DA:650,0
DA:651,0
DA:652,0
DA:653,0
DA:655,0
BRF:0
BRH:0
LF:375
LH:0
end_of_record
SF:/Users/zer0cell/production/empack/crates/empack-lib/src/display/mod.rs
FN:89,_RNvMNtCshmQA5Mrgi1L_10empack_lib7displayNtB2_7Display12capabilities
FN:39,_RNvMNtCshmQA5Mrgi1L_10empack_lib7displayNtB2_7Display4init
FN:83,_RNvMNtCshmQA5Mrgi1L_10empack_lib7displayNtB2_7Display5table
FN:58,_RNvMNtCshmQA5Mrgi1L_10empack_lib7displayNtB2_7Display6global
FN:71,_RNvMNtCshmQA5Mrgi1L_10empack_lib7displayNtB2_7Display6prompt
FN:65,_RNvMNtCshmQA5Mrgi1L_10empack_lib7displayNtB2_7Display6status
FN:94,_RNvMNtCshmQA5Mrgi1L_10empack_lib7displayNtB2_7Display7styling
FN:77,_RNvMNtCshmQA5Mrgi1L_10empack_lib7displayNtB2_7Display8progress
FN:39,_RNvMNtCs5BmVzKVgC1k_10empack_lib7displayNtB2_7Display4init
FN:83,_RNvMNtCs5BmVzKVgC1k_10empack_lib7displayNtB2_7Display5table
FN:58,_RNvMNtCs5BmVzKVgC1k_10empack_lib7displayNtB2_7Display6global
FN:71,_RNvMNtCs5BmVzKVgC1k_10empack_lib7displayNtB2_7Display6prompt
FN:65,_RNvMNtCs5BmVzKVgC1k_10empack_lib7displayNtB2_7Display6status
FN:89,_RNvMNtCs5BmVzKVgC1k_10empack_lib7displayNtB2_7Display12capabilities
FN:94,_RNvMNtCs5BmVzKVgC1k_10empack_lib7displayNtB2_7Display7styling
FN:77,_RNvMNtCs5BmVzKVgC1k_10empack_lib7displayNtB2_7Display8progress
FNDA:0,_RNvMNtCshmQA5Mrgi1L_10empack_lib7displayNtB2_7Display12capabilities
FNDA:14,_RNvMNtCshmQA5Mrgi1L_10empack_lib7displayNtB2_7Display4init
FNDA:0,_RNvMNtCshmQA5Mrgi1L_10empack_lib7displayNtB2_7Display5table
FNDA:54,_RNvMNtCshmQA5Mrgi1L_10empack_lib7displayNtB2_7Display6global
FNDA:0,_RNvMNtCshmQA5Mrgi1L_10empack_lib7displayNtB2_7Display6prompt
FNDA:54,_RNvMNtCshmQA5Mrgi1L_10empack_lib7displayNtB2_7Display6status
FNDA:0,_RNvMNtCshmQA5Mrgi1L_10empack_lib7displayNtB2_7Display7styling
FNDA:0,_RNvMNtCshmQA5Mrgi1L_10empack_lib7displayNtB2_7Display8progress
FNDA:45,_RNvMNtCs5BmVzKVgC1k_10empack_lib7displayNtB2_7Display4init
FNDA:1,_RNvMNtCs5BmVzKVgC1k_10empack_lib7displayNtB2_7Display5table
FNDA:107,_RNvMNtCs5BmVzKVgC1k_10empack_lib7displayNtB2_7Display6global
FNDA:0,_RNvMNtCs5BmVzKVgC1k_10empack_lib7displayNtB2_7Display6prompt
FNDA:106,_RNvMNtCs5BmVzKVgC1k_10empack_lib7displayNtB2_7Display6status
FNDA:0,_RNvMNtCs5BmVzKVgC1k_10empack_lib7displayNtB2_7Display12capabilities
FNDA:0,_RNvMNtCs5BmVzKVgC1k_10empack_lib7displayNtB2_7Display7styling
FNDA:0,_RNvMNtCs5BmVzKVgC1k_10empack_lib7displayNtB2_7Display8progress
FNF:8
FNH:4
DA:39,59
DA:40,59
DA:41,0
DA:42,59
DA:44,59
DA:45,59
DA:46,59
DA:47,59
DA:48,59
DA:50,59
DA:51,59
DA:52,59
DA:54,59
DA:55,59
DA:58,161
DA:59,161
DA:60,161
DA:61,161
DA:62,161
DA:65,160
DA:66,160
DA:67,160
DA:68,160
DA:71,0
DA:72,0
DA:73,0
DA:74,0
DA:77,0
DA:78,0
DA:79,0
DA:80,0
DA:83,1
DA:84,1
DA:85,1
DA:86,1
DA:89,0
DA:90,0
DA:91,0
DA:94,0
DA:95,0
DA:96,0
BRF:0
BRH:0
LF:41
LH:26
end_of_record
SF:/Users/zer0cell/production/empack/crates/empack-lib/src/display/progress.rs
FN:35,_RNvMNtNtCshmQA5Mrgi1L_10empack_lib7display8progressNtB2_15ProgressDisplay3bar
FN:16,_RNvMNtNtCshmQA5Mrgi1L_10empack_lib7display8progressNtB2_15ProgressDisplay3new
FN:95,_RNvMNtNtCshmQA5Mrgi1L_10empack_lib7display8progressNtB2_15ProgressDisplay5multi
FN:72,_RNvMNtNtCshmQA5Mrgi1L_10empack_lib7display8progressNtB2_15ProgressDisplay7spinner
FN:206,_RNvMs0_NtNtCshmQA5Mrgi1L_10empack_lib7display8progressNtB5_20MultiProgressTracker11add_spinner
FN:167,_RNvMs0_NtNtCshmQA5Mrgi1L_10empack_lib7display8progressNtB5_20MultiProgressTracker3new
FN:231,_RNvMs0_NtNtCshmQA5Mrgi1L_10empack_lib7display8progressNtB5_20MultiProgressTracker5clear
FN:176,_RNvMs0_NtNtCshmQA5Mrgi1L_10empack_lib7display8progressNtB5_20MultiProgressTracker7add_bar
FN:127,_RNvMs_NtNtCshmQA5Mrgi1L_10empack_lib7display8progressNtB4_15ProgressTracker11set_message
FN:150,_RNvMs_NtNtCshmQA5Mrgi1L_10empack_lib7display8progressNtB4_15ProgressTracker12finish_clear
FN:112,_RNvMs_NtNtCshmQA5Mrgi1L_10empack_lib7display8progressNtB4_15ProgressTracker12set_position
FN:155,_RNvMs_NtNtCshmQA5Mrgi1L_10empack_lib7display8progressNtB4_15ProgressTracker3bar
FN:117,_RNvMs_NtNtCshmQA5Mrgi1L_10empack_lib7display8progressNtB4_15ProgressTracker3inc
FN:107,_RNvMs_NtNtCshmQA5Mrgi1L_10empack_lib7display8progressNtB4_15ProgressTracker3new
FN:132,_RNvMs_NtNtCshmQA5Mrgi1L_10empack_lib7display8progressNtB4_15ProgressTracker4tick
FN:138,_RNvMs_NtNtCshmQA5Mrgi1L_10empack_lib7display8progressNtB4_15ProgressTracker6finish
FN:122,_RNvMs_NtNtCshmQA5Mrgi1L_10empack_lib7display8progressNtB4_15ProgressTracker6inc_by
FN:144,_RNvMs_NtNtCshmQA5Mrgi1L_10empack_lib7display8progressNtB4_15ProgressTracker7abandon
FN:35,_RNvMNtNtCs5BmVzKVgC1k_10empack_lib7display8progressNtB2_15ProgressDisplay3bar
FN:16,_RNvMNtNtCs5BmVzKVgC1k_10empack_lib7display8progressNtB2_15ProgressDisplay3new
FN:95,_RNvMNtNtCs5BmVzKVgC1k_10empack_lib7display8progressNtB2_15ProgressDisplay5multi
FN:72,_RNvMNtNtCs5BmVzKVgC1k_10empack_lib7display8progressNtB2_15ProgressDisplay7spinner
FN:206,_RNvMs0_NtNtCs5BmVzKVgC1k_10empack_lib7display8progressNtB5_20MultiProgressTracker11add_spinner
FN:167,_RNvMs0_NtNtCs5BmVzKVgC1k_10empack_lib7display8progressNtB5_20MultiProgressTracker3new
FN:231,_RNvMs0_NtNtCs5BmVzKVgC1k_10empack_lib7display8progressNtB5_20MultiProgressTracker5clear
FN:176,_RNvMs0_NtNtCs5BmVzKVgC1k_10empack_lib7display8progressNtB5_20MultiProgressTracker7add_bar
FN:127,_RNvMs_NtNtCs5BmVzKVgC1k_10empack_lib7display8progressNtB4_15ProgressTracker11set_message
FN:150,_RNvMs_NtNtCs5BmVzKVgC1k_10empack_lib7display8progressNtB4_15ProgressTracker12finish_clear
FN:112,_RNvMs_NtNtCs5BmVzKVgC1k_10empack_lib7display8progressNtB4_15ProgressTracker12set_position
FN:155,_RNvMs_NtNtCs5BmVzKVgC1k_10empack_lib7display8progressNtB4_15ProgressTracker3bar
FN:117,_RNvMs_NtNtCs5BmVzKVgC1k_10empack_lib7display8progressNtB4_15ProgressTracker3inc
FN:107,_RNvMs_NtNtCs5BmVzKVgC1k_10empack_lib7display8progressNtB4_15ProgressTracker3new
FN:132,_RNvMs_NtNtCs5BmVzKVgC1k_10empack_lib7display8progressNtB4_15ProgressTracker4tick
FN:138,_RNvMs_NtNtCs5BmVzKVgC1k_10empack_lib7display8progressNtB4_15ProgressTracker6finish
FN:122,_RNvMs_NtNtCs5BmVzKVgC1k_10empack_lib7display8progressNtB4_15ProgressTracker6inc_by
FN:144,_RNvMs_NtNtCs5BmVzKVgC1k_10empack_lib7display8progressNtB4_15ProgressTracker7abandon
FNDA:0,_RNvMNtNtCshmQA5Mrgi1L_10empack_lib7display8progressNtB2_15ProgressDisplay3bar
FNDA:0,_RNvMNtNtCshmQA5Mrgi1L_10empack_lib7display8progressNtB2_15ProgressDisplay3new
FNDA:0,_RNvMNtNtCshmQA5Mrgi1L_10empack_lib7display8progressNtB2_15ProgressDisplay5multi
FNDA:0,_RNvMNtNtCshmQA5Mrgi1L_10empack_lib7display8progressNtB2_15ProgressDisplay7spinner
FNDA:0,_RNvMs0_NtNtCshmQA5Mrgi1L_10empack_lib7display8progressNtB5_20MultiProgressTracker11add_spinner
FNDA:0,_RNvMs0_NtNtCshmQA5Mrgi1L_10empack_lib7display8progressNtB5_20MultiProgressTracker3new
FNDA:0,_RNvMs0_NtNtCshmQA5Mrgi1L_10empack_lib7display8progressNtB5_20MultiProgressTracker5clear
FNDA:0,_RNvMs0_NtNtCshmQA5Mrgi1L_10empack_lib7display8progressNtB5_20MultiProgressTracker7add_bar
FNDA:0,_RNvMs_NtNtCshmQA5Mrgi1L_10empack_lib7display8progressNtB4_15ProgressTracker11set_message
FNDA:0,_RNvMs_NtNtCshmQA5Mrgi1L_10empack_lib7display8progressNtB4_15ProgressTracker12finish_clear
FNDA:0,_RNvMs_NtNtCshmQA5Mrgi1L_10empack_lib7display8progressNtB4_15ProgressTracker12set_position
FNDA:0,_RNvMs_NtNtCshmQA5Mrgi1L_10empack_lib7display8progressNtB4_15ProgressTracker3bar
FNDA:0,_RNvMs_NtNtCshmQA5Mrgi1L_10empack_lib7display8progressNtB4_15ProgressTracker3inc
FNDA:0,_RNvMs_NtNtCshmQA5Mrgi1L_10empack_lib7display8progressNtB4_15ProgressTracker3new
FNDA:0,_RNvMs_NtNtCshmQA5Mrgi1L_10empack_lib7display8progressNtB4_15ProgressTracker4tick
FNDA:0,_RNvMs_NtNtCshmQA5Mrgi1L_10empack_lib7display8progressNtB4_15ProgressTracker6finish
FNDA:0,_RNvMs_NtNtCshmQA5Mrgi1L_10empack_lib7display8progressNtB4_15ProgressTracker6inc_by
FNDA:0,_RNvMs_NtNtCshmQA5Mrgi1L_10empack_lib7display8progressNtB4_15ProgressTracker7abandon
FNDA:0,_RNvMNtNtCs5BmVzKVgC1k_10empack_lib7display8progressNtB2_15ProgressDisplay3bar
FNDA:0,_RNvMNtNtCs5BmVzKVgC1k_10empack_lib7display8progressNtB2_15ProgressDisplay3new
FNDA:0,_RNvMNtNtCs5BmVzKVgC1k_10empack_lib7display8progressNtB2_15ProgressDisplay5multi
FNDA:0,_RNvMNtNtCs5BmVzKVgC1k_10empack_lib7display8progressNtB2_15ProgressDisplay7spinner
FNDA:0,_RNvMs0_NtNtCs5BmVzKVgC1k_10empack_lib7display8progressNtB5_20MultiProgressTracker11add_spinner
FNDA:0,_RNvMs0_NtNtCs5BmVzKVgC1k_10empack_lib7display8progressNtB5_20MultiProgressTracker3new
FNDA:0,_RNvMs0_NtNtCs5BmVzKVgC1k_10empack_lib7display8progressNtB5_20MultiProgressTracker5clear
FNDA:0,_RNvMs0_NtNtCs5BmVzKVgC1k_10empack_lib7display8progressNtB5_20MultiProgressTracker7add_bar
FNDA:0,_RNvMs_NtNtCs5BmVzKVgC1k_10empack_lib7display8progressNtB4_15ProgressTracker11set_message
FNDA:0,_RNvMs_NtNtCs5BmVzKVgC1k_10empack_lib7display8progressNtB4_15ProgressTracker12finish_clear
FNDA:0,_RNvMs_NtNtCs5BmVzKVgC1k_10empack_lib7display8progressNtB4_15ProgressTracker12set_position
FNDA:0,_RNvMs_NtNtCs5BmVzKVgC1k_10empack_lib7display8progressNtB4_15ProgressTracker3bar
FNDA:0,_RNvMs_NtNtCs5BmVzKVgC1k_10empack_lib7display8progressNtB4_15ProgressTracker3inc
FNDA:0,_RNvMs_NtNtCs5BmVzKVgC1k_10empack_lib7display8progressNtB4_15ProgressTracker3new
FNDA:0,_RNvMs_NtNtCs5BmVzKVgC1k_10empack_lib7display8progressNtB4_15ProgressTracker4tick
FNDA:0,_RNvMs_NtNtCs5BmVzKVgC1k_10empack_lib7display8progressNtB4_15ProgressTracker6finish
FNDA:0,_RNvMs_NtNtCs5BmVzKVgC1k_10empack_lib7display8progressNtB4_15ProgressTracker6inc_by
FNDA:0,_RNvMs_NtNtCs5BmVzKVgC1k_10empack_lib7display8progressNtB4_15ProgressTracker7abandon
FNF:18
FNH:0
DA:16,0
DA:17,0
DA:18,0
DA:35,0
DA:36,0
DA:39,0
DA:41,0
DA:42,0
DA:44,0
DA:45,0
DA:46,0
DA:49,0
DA:50,0
DA:51,0
DA:52,0
DA:55,0
DA:56,0
DA:58,0
DA:59,0
DA:72,0
DA:73,0
DA:75,0
DA:77,0
DA:78,0
DA:79,0
DA:82,0
DA:83,0
DA:84,0
DA:87,0
DA:88,0
DA:89,0
DA:91,0
DA:92,0
DA:95,0
DA:96,0
DA:97,0
DA:107,0
DA:108,0
DA:109,0
DA:112,0
DA:113,0
DA:114,0
DA:117,0
DA:118,0
DA:119,0
DA:122,0
DA:123,0
DA:124,0
DA:127,0
DA:128,0
DA:129,0
DA:132,0
DA:133,0
DA:134,0
DA:135,0
DA:138,0
DA:139,0
DA:140,0
DA:141,0
DA:144,0
DA:145,0
DA:146,0
DA:147,0
DA:150,0
DA:151,0
DA:152,0
DA:155,0
DA:156,0
DA:157,0
DA:167,0
DA:168,0
DA:170,0
DA:172,0
DA:173,0
DA:176,0
DA:178,0
DA:179,0
DA:180,0
DA:182,0
DA:184,0
DA:185,0
DA:186,0
DA:188,0
DA:189,0
DA:190,0
DA:192,0
DA:193,0
DA:194,0
DA:195,0
DA:198,0
DA:199,0
DA:200,0
DA:202,0
DA:203,0
DA:206,0
DA:207,0
DA:208,0
DA:209,0
DA:211,0
DA:213,0
DA:214,0
DA:215,0
DA:216,0
DA:218,0
DA:219,0
DA:220,0
DA:223,0
DA:224,0
DA:225,0
DA:227,0
DA:228,0
DA:231,0
DA:232,0
DA:233,0
BRF:0
BRH:0
LF:114
LH:0
end_of_record
SF:/Users/zer0cell/production/empack/crates/empack-lib/src/display/providers.rs
FN:222,_RNvYpNtNtNtCshmQA5Mrgi1L_10empack_lib7display9providers18DisplayProviderExt12display_stepB9_
FN:193,_RNvYpNtNtNtCshmQA5Mrgi1L_10empack_lib7display9providers18DisplayProviderExt15display_summaryB9_
FN:179,_RNvMNtNtCs5BmVzKVgC1k_10empack_lib7display9providersNtB2_16OperationSummary10is_failure
FN:171,_RNvMNtNtCs5BmVzKVgC1k_10empack_lib7display9providersNtB2_16OperationSummary10is_success
FN:163,_RNvMNtNtCs5BmVzKVgC1k_10empack_lib7display9providersNtB2_16OperationSummary12success_rate
FN:175,_RNvMNtNtCs5BmVzKVgC1k_10empack_lib7display9providersNtB2_16OperationSummary18is_partial_success
FN:155,_RNvMNtNtCs5BmVzKVgC1k_10empack_lib7display9providersNtB2_16OperationSummary3new
FN:185,_RNvXs_NtNtCs5BmVzKVgC1k_10empack_lib7display9providersNtB4_16OperationSummaryNtNtCsj3QBrvpYeJs_4core3fmt7Display3fmt
FN:222,_RNvYpNtNtNtCs5BmVzKVgC1k_10empack_lib7display9providers18DisplayProviderExt12display_stepB9_
FN:193,_RNvYpNtNtNtCs5BmVzKVgC1k_10empack_lib7display9providers18DisplayProviderExt15display_summaryB9_
FNDA:0,_RNvYpNtNtNtCshmQA5Mrgi1L_10empack_lib7display9providers18DisplayProviderExt12display_stepB9_
FNDA:0,_RNvYpNtNtNtCshmQA5Mrgi1L_10empack_lib7display9providers18DisplayProviderExt15display_summaryB9_
FNDA:0,_RNvMNtNtCs5BmVzKVgC1k_10empack_lib7display9providersNtB2_16OperationSummary10is_failure
FNDA:0,_RNvMNtNtCs5BmVzKVgC1k_10empack_lib7display9providersNtB2_16OperationSummary10is_success
FNDA:0,_RNvMNtNtCs5BmVzKVgC1k_10empack_lib7display9providersNtB2_16OperationSummary12success_rate
FNDA:0,_RNvMNtNtCs5BmVzKVgC1k_10empack_lib7display9providersNtB2_16OperationSummary18is_partial_success
FNDA:0,_RNvMNtNtCs5BmVzKVgC1k_10empack_lib7display9providersNtB2_16OperationSummary3new
FNDA:0,_RNvXs_NtNtCs5BmVzKVgC1k_10empack_lib7display9providersNtB4_16OperationSummaryNtNtCsj3QBrvpYeJs_4core3fmt7Display3fmt
FNDA:0,_RNvYpNtNtNtCs5BmVzKVgC1k_10empack_lib7display9providers18DisplayProviderExt12display_stepB9_
FNDA:0,_RNvYpNtNtNtCs5BmVzKVgC1k_10empack_lib7display9providers18DisplayProviderExt15display_summaryB9_
FNF:8
FNH:0
DA:155,0
DA:156,0
DA:157,0
DA:158,0
DA:159,0
DA:160,0
DA:161,0
DA:163,0
DA:164,0
DA:165,0
DA:167,0
DA:169,0
DA:171,0
DA:172,0
DA:173,0
DA:175,0
DA:176,0
DA:177,0
DA:179,0
DA:180,0
DA:181,0
DA:185,0
DA:186,0
DA:187,0
DA:193,0
DA:194,0
DA:196,0
DA:197,0
DA:198,0
DA:199,0
DA:201,0
DA:203,0
DA:204,0
DA:205,0
DA:206,0
DA:207,0
DA:208,0
DA:209,0
DA:210,0
DA:211,0
DA:212,0
DA:214,0
DA:216,0
DA:217,0
DA:218,0
DA:219,0
DA:222,0
DA:223,0
DA:224,0
DA:225,0
DA:226,0
DA:227,0
DA:228,0
BRF:0
BRH:0
LF:53
LH:0
end_of_record
SF:/Users/zer0cell/production/empack/crates/empack-lib/src/display/status.rs
FN:15,_RNvMNtNtCshmQA5Mrgi1L_10empack_lib7display6statusNtB2_13StatusDisplay3new
FN:67,_RNvMNtNtCshmQA5Mrgi1L_10empack_lib7display6statusNtB2_13StatusDisplay4info
FN:105,_RNvMNtNtCshmQA5Mrgi1L_10empack_lib7display6statusNtB2_13StatusDisplay4list
FN:46,_RNvMNtNtCshmQA5Mrgi1L_10empack_lib7display6statusNtB2_13StatusDisplay5error
FN:91,_RNvMNtNtCshmQA5Mrgi1L_10empack_lib7display6statusNtB2_13StatusDisplay6subtle
FN:75,_RNvMNtNtCshmQA5Mrgi1L_10empack_lib7display6statusNtB2_13StatusDisplay7message
FN:33,_RNvMNtNtCshmQA5Mrgi1L_10empack_lib7display6statusNtB2_13StatusDisplay7success
FN:59,_RNvMNtNtCshmQA5Mrgi1L_10empack_lib7display6statusNtB2_13StatusDisplay7warning
FN:23,_RNvMNtNtCshmQA5Mrgi1L_10empack_lib7display6statusNtB2_13StatusDisplay8checking
FN:115,_RNvMNtNtCshmQA5Mrgi1L_10empack_lib7display6statusNtB2_13StatusDisplay8complete
FN:83,_RNvMNtNtCshmQA5Mrgi1L_10empack_lib7display6statusNtB2_13StatusDisplay8emphasis
FN:125,_RNvMs_NtNtCshmQA5Mrgi1L_10empack_lib7display6statusNtB4_13StatusDisplay10tool_check
FN:145,_RNvMs_NtNtCshmQA5Mrgi1L_10empack_lib7display6statusNtB4_13StatusDisplay4step
FN:136,_RNvMs_NtNtCshmQA5Mrgi1L_10empack_lib7display6statusNtB4_13StatusDisplay7section
FN:15,_RNvMNtNtCs5BmVzKVgC1k_10empack_lib7display6statusNtB2_13StatusDisplay3new
FN:67,_RNvMNtNtCs5BmVzKVgC1k_10empack_lib7display6statusNtB2_13StatusDisplay4info
FN:105,_RNvMNtNtCs5BmVzKVgC1k_10empack_lib7display6statusNtB2_13StatusDisplay4list
FN:46,_RNvMNtNtCs5BmVzKVgC1k_10empack_lib7display6statusNtB2_13StatusDisplay5error
FN:91,_RNvMNtNtCs5BmVzKVgC1k_10empack_lib7display6statusNtB2_13StatusDisplay6subtle
FN:75,_RNvMNtNtCs5BmVzKVgC1k_10empack_lib7display6statusNtB2_13StatusDisplay7message
FN:33,_RNvMNtNtCs5BmVzKVgC1k_10empack_lib7display6statusNtB2_13StatusDisplay7success
FN:59,_RNvMNtNtCs5BmVzKVgC1k_10empack_lib7display6statusNtB2_13StatusDisplay7warning
FN:23,_RNvMNtNtCs5BmVzKVgC1k_10empack_lib7display6statusNtB2_13StatusDisplay8checking
FN:115,_RNvMNtNtCs5BmVzKVgC1k_10empack_lib7display6statusNtB2_13StatusDisplay8complete
FN:83,_RNvMNtNtCs5BmVzKVgC1k_10empack_lib7display6statusNtB2_13StatusDisplay8emphasis
FN:125,_RNvMs_NtNtCs5BmVzKVgC1k_10empack_lib7display6statusNtB4_13StatusDisplay10tool_check
FN:145,_RNvMs_NtNtCs5BmVzKVgC1k_10empack_lib7display6statusNtB4_13StatusDisplay4step
FN:136,_RNvMs_NtNtCs5BmVzKVgC1k_10empack_lib7display6statusNtB4_13StatusDisplay7section
FNDA:54,_RNvMNtNtCshmQA5Mrgi1L_10empack_lib7display6statusNtB2_13StatusDisplay3new
FNDA:4,_RNvMNtNtCshmQA5Mrgi1L_10empack_lib7display6statusNtB2_13StatusDisplay4info
FNDA:0,_RNvMNtNtCshmQA5Mrgi1L_10empack_lib7display6statusNtB2_13StatusDisplay4list
FNDA:0,_RNvMNtNtCshmQA5Mrgi1L_10empack_lib7display6statusNtB2_13StatusDisplay5error
FNDA:11,_RNvMNtNtCshmQA5Mrgi1L_10empack_lib7display6statusNtB2_13StatusDisplay6subtle
FNDA:0,_RNvMNtNtCshmQA5Mrgi1L_10empack_lib7display6statusNtB2_13StatusDisplay7message
FNDA:9,_RNvMNtNtCshmQA5Mrgi1L_10empack_lib7display6statusNtB2_13StatusDisplay7success
FNDA:2,_RNvMNtNtCshmQA5Mrgi1L_10empack_lib7display6statusNtB2_13StatusDisplay7warning
FNDA:3,_RNvMNtNtCshmQA5Mrgi1L_10empack_lib7display6statusNtB2_13StatusDisplay8checking
FNDA:10,_RNvMNtNtCshmQA5Mrgi1L_10empack_lib7display6statusNtB2_13StatusDisplay8complete
FNDA:0,_RNvMNtNtCshmQA5Mrgi1L_10empack_lib7display6statusNtB2_13StatusDisplay8emphasis
FNDA:0,_RNvMs_NtNtCshmQA5Mrgi1L_10empack_lib7display6statusNtB4_13StatusDisplay10tool_check
FNDA:0,_RNvMs_NtNtCshmQA5Mrgi1L_10empack_lib7display6statusNtB4_13StatusDisplay4step
FNDA:15,_RNvMs_NtNtCshmQA5Mrgi1L_10empack_lib7display6statusNtB4_13StatusDisplay7section
FNDA:106,_RNvMNtNtCs5BmVzKVgC1k_10empack_lib7display6statusNtB2_13StatusDisplay3new
FNDA:13,_RNvMNtNtCs5BmVzKVgC1k_10empack_lib7display6statusNtB2_13StatusDisplay4info
FNDA:0,_RNvMNtNtCs5BmVzKVgC1k_10empack_lib7display6statusNtB2_13StatusDisplay4list
FNDA:13,_RNvMNtNtCs5BmVzKVgC1k_10empack_lib7display6statusNtB2_13StatusDisplay5error
FNDA:17,_RNvMNtNtCs5BmVzKVgC1k_10empack_lib7display6statusNtB2_13StatusDisplay6subtle
FNDA:2,_RNvMNtNtCs5BmVzKVgC1k_10empack_lib7display6statusNtB2_13StatusDisplay7message
FNDA:17,_RNvMNtNtCs5BmVzKVgC1k_10empack_lib7display6statusNtB2_13StatusDisplay7success
FNDA:3,_RNvMNtNtCs5BmVzKVgC1k_10empack_lib7display6statusNtB2_13StatusDisplay7warning
FNDA:14,_RNvMNtNtCs5BmVzKVgC1k_10empack_lib7display6statusNtB2_13StatusDisplay8checking
FNDA:3,_RNvMNtNtCs5BmVzKVgC1k_10empack_lib7display6statusNtB2_13StatusDisplay8complete
FNDA:1,_RNvMNtNtCs5BmVzKVgC1k_10empack_lib7display6statusNtB2_13StatusDisplay8emphasis
FNDA:0,_RNvMs_NtNtCs5BmVzKVgC1k_10empack_lib7display6statusNtB4_13StatusDisplay10tool_check
FNDA:0,_RNvMs_NtNtCs5BmVzKVgC1k_10empack_lib7display6statusNtB4_13StatusDisplay4step
FNDA:23,_RNvMs_NtNtCs5BmVzKVgC1k_10empack_lib7display6statusNtB4_13StatusDisplay7section
FNF:14
FNH:11
DA:15,160
DA:16,160
DA:17,160
DA:23,17
DA:24,17
DA:25,17
DA:26,17
DA:27,17
DA:33,26
DA:34,26
DA:35,7
DA:37,19
DA:39,26
DA:40,26
DA:46,13
DA:47,13
DA:48,6
DA:50,7
DA:52,13
DA:53,13
DA:59,5
DA:60,5
DA:61,5
DA:67,17
DA:68,17
DA:69,17
DA:75,2
DA:76,2
DA:77,2
DA:83,1
DA:84,1
DA:85,1
DA:91,28
DA:92,28
DA:93,28
DA:105,0
DA:106,0
DA:107,0
DA:108,0
DA:109,0
DA:115,13
DA:116,13
DA:117,13
DA:125,0
DA:126,0
DA:127,0
DA:128,0
DA:129,0
DA:130,0
DA:131,0
DA:136,38
DA:137,38
DA:138,38
DA:139,38
DA:145,0
DA:146,0
DA:147,0
DA:148,0
BRF:0
BRH:0
LF:58
LH:42
end_of_record
SF:/Users/zer0cell/production/empack/crates/empack-lib/src/display/structured.rs
FN:49,_RNCNvMNtNtCshmQA5Mrgi1L_10empack_lib7display10structuredNtB4_17StructuredDisplay5pairs0B8_
FN:109,_RNCNvMs_NtNtCshmQA5Mrgi1L_10empack_lib7display10structuredNtB6_12TableDisplay3row0Ba_
FN:102,_RNCNvMs_NtNtCshmQA5Mrgi1L_10empack_lib7display10structuredNtB6_12TableDisplay6header0Ba_
FN:69,_RNvMNtNtCshmQA5Mrgi1L_10empack_lib7display10structuredNtB2_17StructuredDisplay13numbered_list
FN:16,_RNvMNtNtCshmQA5Mrgi1L_10empack_lib7display10structuredNtB2_17StructuredDisplay3new
FN:62,_RNvMNtNtCshmQA5Mrgi1L_10empack_lib7display10structuredNtB2_17StructuredDisplay4list
FN:48,_RNvMNtNtCshmQA5Mrgi1L_10empack_lib7display10structuredNtB2_17StructuredDisplay5pairs
FN:33,_RNvMNtNtCshmQA5Mrgi1L_10empack_lib7display10structuredNtB2_17StructuredDisplay5table
FN:177,_RNvMs_NtNtCshmQA5Mrgi1L_10empack_lib7display10structuredNtB4_12TableDisplay10render_row
FN:206,_RNvMs_NtNtCshmQA5Mrgi1L_10empack_lib7display10structuredNtB4_12TableDisplay16render_separator
FN:90,_RNvMs_NtNtCshmQA5Mrgi1L_10empack_lib7display10structuredNtB4_12TableDisplay3new
FN:107,_RNvMs_NtNtCshmQA5Mrgi1L_10empack_lib7display10structuredNtB4_12TableDisplay3row
FN:101,_RNvMs_NtNtCshmQA5Mrgi1L_10empack_lib7display10structuredNtB4_12TableDisplay6header
FN:120,_RNvMs_NtNtCshmQA5Mrgi1L_10empack_lib7display10structuredNtB4_12TableDisplay6render
FN:114,_RNvMs_NtNtCshmQA5Mrgi1L_10empack_lib7display10structuredNtB4_12TableDisplay9max_width
FN:16,_RNvMNtNtCs5BmVzKVgC1k_10empack_lib7display10structuredNtB2_17StructuredDisplay3new
FN:62,_RNvMNtNtCs5BmVzKVgC1k_10empack_lib7display10structuredNtB2_17StructuredDisplay4list
FN:48,_RNvMNtNtCs5BmVzKVgC1k_10empack_lib7display10structuredNtB2_17StructuredDisplay5pairs
FN:33,_RNvMNtNtCs5BmVzKVgC1k_10empack_lib7display10structuredNtB2_17StructuredDisplay5table
FN:177,_RNvMs_NtNtCs5BmVzKVgC1k_10empack_lib7display10structuredNtB4_12TableDisplay10render_row
FN:206,_RNvMs_NtNtCs5BmVzKVgC1k_10empack_lib7display10structuredNtB4_12TableDisplay16render_separator
FN:90,_RNvMs_NtNtCs5BmVzKVgC1k_10empack_lib7display10structuredNtB4_12TableDisplay3new
FN:107,_RNvMs_NtNtCs5BmVzKVgC1k_10empack_lib7display10structuredNtB4_12TableDisplay3row
FN:101,_RNvMs_NtNtCs5BmVzKVgC1k_10empack_lib7display10structuredNtB4_12TableDisplay6header
FN:120,_RNvMs_NtNtCs5BmVzKVgC1k_10empack_lib7display10structuredNtB4_12TableDisplay6render
FN:69,_RNvMNtNtCs5BmVzKVgC1k_10empack_lib7display10structuredNtB2_17StructuredDisplay13numbered_list
FN:114,_RNvMs_NtNtCs5BmVzKVgC1k_10empack_lib7display10structuredNtB4_12TableDisplay9max_width
FN:49,_RNCNvMNtNtCs5BmVzKVgC1k_10empack_lib7display10structuredNtB4_17StructuredDisplay5pairs0B8_
FN:109,_RNCNvMs_NtNtCs5BmVzKVgC1k_10empack_lib7display10structuredNtB6_12TableDisplay3row0Ba_
FN:102,_RNCNvMs_NtNtCs5BmVzKVgC1k_10empack_lib7display10structuredNtB6_12TableDisplay6header0Ba_
FNDA:0,_RNCNvMNtNtCshmQA5Mrgi1L_10empack_lib7display10structuredNtB4_17StructuredDisplay5pairs0B8_
FNDA:0,_RNCNvMs_NtNtCshmQA5Mrgi1L_10empack_lib7display10structuredNtB6_12TableDisplay3row0Ba_
FNDA:0,_RNCNvMs_NtNtCshmQA5Mrgi1L_10empack_lib7display10structuredNtB6_12TableDisplay6header0Ba_
FNDA:0,_RNvMNtNtCshmQA5Mrgi1L_10empack_lib7display10structuredNtB2_17StructuredDisplay13numbered_list
FNDA:0,_RNvMNtNtCshmQA5Mrgi1L_10empack_lib7display10structuredNtB2_17StructuredDisplay3new
FNDA:0,_RNvMNtNtCshmQA5Mrgi1L_10empack_lib7display10structuredNtB2_17StructuredDisplay4list
FNDA:0,_RNvMNtNtCshmQA5Mrgi1L_10empack_lib7display10structuredNtB2_17StructuredDisplay5pairs
FNDA:0,_RNvMNtNtCshmQA5Mrgi1L_10empack_lib7display10structuredNtB2_17StructuredDisplay5table
FNDA:0,_RNvMs_NtNtCshmQA5Mrgi1L_10empack_lib7display10structuredNtB4_12TableDisplay10render_row
FNDA:0,_RNvMs_NtNtCshmQA5Mrgi1L_10empack_lib7display10structuredNtB4_12TableDisplay16render_separator
FNDA:0,_RNvMs_NtNtCshmQA5Mrgi1L_10empack_lib7display10structuredNtB4_12TableDisplay3new
FNDA:0,_RNvMs_NtNtCshmQA5Mrgi1L_10empack_lib7display10structuredNtB4_12TableDisplay3row
FNDA:0,_RNvMs_NtNtCshmQA5Mrgi1L_10empack_lib7display10structuredNtB4_12TableDisplay6header
FNDA:0,_RNvMs_NtNtCshmQA5Mrgi1L_10empack_lib7display10structuredNtB4_12TableDisplay6render
FNDA:0,_RNvMs_NtNtCshmQA5Mrgi1L_10empack_lib7display10structuredNtB4_12TableDisplay9max_width
FNDA:1,_RNvMNtNtCs5BmVzKVgC1k_10empack_lib7display10structuredNtB2_17StructuredDisplay3new
FNDA:0,_RNvMNtNtCs5BmVzKVgC1k_10empack_lib7display10structuredNtB2_17StructuredDisplay4list
FNDA:1,_RNvMNtNtCs5BmVzKVgC1k_10empack_lib7display10structuredNtB2_17StructuredDisplay5pairs
FNDA:0,_RNvMNtNtCs5BmVzKVgC1k_10empack_lib7display10structuredNtB2_17StructuredDisplay5table
FNDA:0,_RNvMs_NtNtCs5BmVzKVgC1k_10empack_lib7display10structuredNtB4_12TableDisplay10render_row
FNDA:0,_RNvMs_NtNtCs5BmVzKVgC1k_10empack_lib7display10structuredNtB4_12TableDisplay16render_separator
FNDA:0,_RNvMs_NtNtCs5BmVzKVgC1k_10empack_lib7display10structuredNtB4_12TableDisplay3new
FNDA:0,_RNvMs_NtNtCs5BmVzKVgC1k_10empack_lib7display10structuredNtB4_12TableDisplay3row
FNDA:0,_RNvMs_NtNtCs5BmVzKVgC1k_10empack_lib7display10structuredNtB4_12TableDisplay6header
FNDA:0,_RNvMs_NtNtCs5BmVzKVgC1k_10empack_lib7display10structuredNtB4_12TableDisplay6render
FNDA:0,_RNvMNtNtCs5BmVzKVgC1k_10empack_lib7display10structuredNtB2_17StructuredDisplay13numbered_list
FNDA:0,_RNvMs_NtNtCs5BmVzKVgC1k_10empack_lib7display10structuredNtB4_12TableDisplay9max_width
FNDA:3,_RNCNvMNtNtCs5BmVzKVgC1k_10empack_lib7display10structuredNtB4_17StructuredDisplay5pairs0B8_
FNDA:0,_RNCNvMs_NtNtCs5BmVzKVgC1k_10empack_lib7display10structuredNtB6_12TableDisplay3row0Ba_
FNDA:0,_RNCNvMs_NtNtCs5BmVzKVgC1k_10empack_lib7display10structuredNtB6_12TableDisplay6header0Ba_
FNF:15
FNH:3
DA:16,1
DA:17,1
DA:18,1
DA:19,1
DA:20,1
DA:21,1
DA:33,0
DA:34,0
DA:35,0
DA:48,1
DA:49,3
DA:51,4
DA:52,3
DA:53,3
DA:54,3
DA:55,3
DA:56,3
DA:57,3
DA:58,3
DA:59,1
DA:62,0
DA:63,0
DA:64,0
DA:65,0
DA:66,0
DA:69,0
DA:70,0
DA:71,0
DA:72,0
DA:73,0
DA:74,0
DA:75,0
DA:76,0
DA:77,0
DA:90,0
DA:91,0
DA:92,0
DA:93,0
DA:94,0
DA:95,0
DA:96,0
DA:97,0
DA:98,0
DA:101,0
DA:102,0
DA:103,0
DA:104,0
DA:107,0
DA:108,0
DA:109,0
DA:110,0
DA:111,0
DA:114,0
DA:115,0
DA:116,0
DA:117,0
DA:120,0
DA:121,0
DA:122,0
DA:123,0
DA:125,0
DA:126,0
DA:127,0
DA:130,0
DA:131,0
DA:132,0
DA:133,0
DA:135,0
DA:138,0
DA:141,0
DA:142,0
DA:143,0
DA:144,0
DA:145,0
DA:147,0
DA:148,0
DA:149,0
DA:150,0
DA:151,0
DA:156,0
DA:157,0
DA:158,0
DA:159,0
DA:160,0
DA:161,0
DA:162,0
DA:163,0
DA:166,0
DA:167,0
DA:168,0
DA:169,0
DA:172,0
DA:173,0
DA:174,0
DA:175,0
DA:177,0
DA:178,0
DA:180,0
DA:181,0
DA:182,0
DA:183,0
DA:184,0
DA:186,0
DA:189,0
DA:190,0
DA:192,0
DA:195,0
DA:197,0
DA:198,0
DA:199,0
DA:200,0
DA:203,0
DA:204,0
DA:206,0
DA:207,0
DA:209,0
DA:210,0
DA:211,0
DA:212,0
DA:213,0
DA:216,0
DA:217,0
BRF:0
BRH:0
LF:125
LH:18
end_of_record
SF:/Users/zer0cell/production/empack/crates/empack-lib/src/display/styling.rs
FN:64,_RNvMNtNtCshmQA5Mrgi1L_10empack_lib7display7stylingNtB2_12StyleManager10primitives
FN:49,_RNvMNtNtCshmQA5Mrgi1L_10empack_lib7display7stylingNtB2_12StyleManager10style_info
FN:92,_RNvMNtNtCshmQA5Mrgi1L_10empack_lib7display7stylingNtB2_12StyleManager11format_info
FN:36,_RNvMNtNtCshmQA5Mrgi1L_10empack_lib7display7stylingNtB2_12StyleManager11style_error
FN:78,_RNvMNtNtCshmQA5Mrgi1L_10empack_lib7display7stylingNtB2_12StyleManager12format_error
FN:59,_RNvMNtNtCshmQA5Mrgi1L_10empack_lib7display7stylingNtB2_12StyleManager12style_subtle
FN:28,_RNvMNtNtCshmQA5Mrgi1L_10empack_lib7display7stylingNtB2_12StyleManager13style_success
FN:41,_RNvMNtNtCshmQA5Mrgi1L_10empack_lib7display7stylingNtB2_12StyleManager13style_warning
FN:69,_RNvMNtNtCshmQA5Mrgi1L_10empack_lib7display7stylingNtB2_12StyleManager14format_success
FN:83,_RNvMNtNtCshmQA5Mrgi1L_10empack_lib7display7stylingNtB2_12StyleManager14format_warning
FN:101,_RNvMNtNtCshmQA5Mrgi1L_10empack_lib7display7stylingNtB2_12StyleManager14format_working
FN:54,_RNvMNtNtCshmQA5Mrgi1L_10empack_lib7display7stylingNtB2_12StyleManager14style_emphasis
FN:17,_RNvMNtNtCshmQA5Mrgi1L_10empack_lib7display7stylingNtB2_12StyleManager3new
FN:124,_RNvMs_NtNtCshmQA5Mrgi1L_10empack_lib7display7stylingNtB4_12StyleManager11info_symbol
FN:114,_RNvMs_NtNtCshmQA5Mrgi1L_10empack_lib7display7stylingNtB4_12StyleManager12error_symbol
FN:109,_RNvMs_NtNtCshmQA5Mrgi1L_10empack_lib7display7stylingNtB4_12StyleManager14success_symbol
FN:119,_RNvMs_NtNtCshmQA5Mrgi1L_10empack_lib7display7stylingNtB4_12StyleManager14warning_symbol
FN:134,_RNvMs_NtNtCshmQA5Mrgi1L_10empack_lib7display7stylingNtB4_12StyleManager5arrow
FN:129,_RNvMs_NtNtCshmQA5Mrgi1L_10empack_lib7display7stylingNtB4_12StyleManager6bullet
FN:64,_RNvMNtNtCs5BmVzKVgC1k_10empack_lib7display7stylingNtB2_12StyleManager10primitives
FN:124,_RNvMs_NtNtCs5BmVzKVgC1k_10empack_lib7display7stylingNtB4_12StyleManager11info_symbol
FN:114,_RNvMs_NtNtCs5BmVzKVgC1k_10empack_lib7display7stylingNtB4_12StyleManager12error_symbol
FN:109,_RNvMs_NtNtCs5BmVzKVgC1k_10empack_lib7display7stylingNtB4_12StyleManager14success_symbol
FN:119,_RNvMs_NtNtCs5BmVzKVgC1k_10empack_lib7display7stylingNtB4_12StyleManager14warning_symbol
FN:134,_RNvMs_NtNtCs5BmVzKVgC1k_10empack_lib7display7stylingNtB4_12StyleManager5arrow
FN:49,_RNvMNtNtCs5BmVzKVgC1k_10empack_lib7display7stylingNtB2_12StyleManager10style_info
FN:92,_RNvMNtNtCs5BmVzKVgC1k_10empack_lib7display7stylingNtB2_12StyleManager11format_info
FN:36,_RNvMNtNtCs5BmVzKVgC1k_10empack_lib7display7stylingNtB2_12StyleManager11style_error
FN:78,_RNvMNtNtCs5BmVzKVgC1k_10empack_lib7display7stylingNtB2_12StyleManager12format_error
FN:59,_RNvMNtNtCs5BmVzKVgC1k_10empack_lib7display7stylingNtB2_12StyleManager12style_subtle
FN:28,_RNvMNtNtCs5BmVzKVgC1k_10empack_lib7display7stylingNtB2_12StyleManager13style_success
FN:41,_RNvMNtNtCs5BmVzKVgC1k_10empack_lib7display7stylingNtB2_12StyleManager13style_warning
FN:69,_RNvMNtNtCs5BmVzKVgC1k_10empack_lib7display7stylingNtB2_12StyleManager14format_success
FN:83,_RNvMNtNtCs5BmVzKVgC1k_10empack_lib7display7stylingNtB2_12StyleManager14format_warning
FN:101,_RNvMNtNtCs5BmVzKVgC1k_10empack_lib7display7stylingNtB2_12StyleManager14format_working
FN:54,_RNvMNtNtCs5BmVzKVgC1k_10empack_lib7display7stylingNtB2_12StyleManager14style_emphasis
FN:17,_RNvMNtNtCs5BmVzKVgC1k_10empack_lib7display7stylingNtB2_12StyleManager3new
FN:129,_RNvMs_NtNtCs5BmVzKVgC1k_10empack_lib7display7stylingNtB4_12StyleManager6bullet
FNDA:0,_RNvMNtNtCshmQA5Mrgi1L_10empack_lib7display7stylingNtB2_12StyleManager10primitives
FNDA:7,_RNvMNtNtCshmQA5Mrgi1L_10empack_lib7display7stylingNtB2_12StyleManager10style_info
FNDA:4,_RNvMNtNtCshmQA5Mrgi1L_10empack_lib7display7stylingNtB2_12StyleManager11format_info
FNDA:0,_RNvMNtNtCshmQA5Mrgi1L_10empack_lib7display7stylingNtB2_12StyleManager11style_error
FNDA:0,_RNvMNtNtCshmQA5Mrgi1L_10empack_lib7display7stylingNtB2_12StyleManager12format_error
FNDA:11,_RNvMNtNtCshmQA5Mrgi1L_10empack_lib7display7stylingNtB2_12StyleManager12style_subtle
FNDA:19,_RNvMNtNtCshmQA5Mrgi1L_10empack_lib7display7stylingNtB2_12StyleManager13style_success
FNDA:2,_RNvMNtNtCshmQA5Mrgi1L_10empack_lib7display7stylingNtB2_12StyleManager13style_warning
FNDA:19,_RNvMNtNtCshmQA5Mrgi1L_10empack_lib7display7stylingNtB2_12StyleManager14format_success
FNDA:2,_RNvMNtNtCshmQA5Mrgi1L_10empack_lib7display7stylingNtB2_12StyleManager14format_warning
FNDA:3,_RNvMNtNtCshmQA5Mrgi1L_10empack_lib7display7stylingNtB2_12StyleManager14format_working
FNDA:15,_RNvMNtNtCshmQA5Mrgi1L_10empack_lib7display7stylingNtB2_12StyleManager14style_emphasis
FNDA:14,_RNvMNtNtCshmQA5Mrgi1L_10empack_lib7display7stylingNtB2_12StyleManager3new
FNDA:0,_RNvMs_NtNtCshmQA5Mrgi1L_10empack_lib7display7stylingNtB4_12StyleManager11info_symbol
FNDA:0,_RNvMs_NtNtCshmQA5Mrgi1L_10empack_lib7display7stylingNtB4_12StyleManager12error_symbol
FNDA:0,_RNvMs_NtNtCshmQA5Mrgi1L_10empack_lib7display7stylingNtB4_12StyleManager14success_symbol
FNDA:0,_RNvMs_NtNtCshmQA5Mrgi1L_10empack_lib7display7stylingNtB4_12StyleManager14warning_symbol
FNDA:0,_RNvMs_NtNtCshmQA5Mrgi1L_10empack_lib7display7stylingNtB4_12StyleManager5arrow
FNDA:0,_RNvMs_NtNtCshmQA5Mrgi1L_10empack_lib7display7stylingNtB4_12StyleManager6bullet
FNDA:0,_RNvMNtNtCs5BmVzKVgC1k_10empack_lib7display7stylingNtB2_12StyleManager10primitives
FNDA:0,_RNvMs_NtNtCs5BmVzKVgC1k_10empack_lib7display7stylingNtB4_12StyleManager11info_symbol
FNDA:0,_RNvMs_NtNtCs5BmVzKVgC1k_10empack_lib7display7stylingNtB4_12StyleManager12error_symbol
FNDA:0,_RNvMs_NtNtCs5BmVzKVgC1k_10empack_lib7display7stylingNtB4_12StyleManager14success_symbol
FNDA:0,_RNvMs_NtNtCs5BmVzKVgC1k_10empack_lib7display7stylingNtB4_12StyleManager14warning_symbol
FNDA:0,_RNvMs_NtNtCs5BmVzKVgC1k_10empack_lib7display7stylingNtB4_12StyleManager5arrow
FNDA:27,_RNvMNtNtCs5BmVzKVgC1k_10empack_lib7display7stylingNtB2_12StyleManager10style_info
FNDA:13,_RNvMNtNtCs5BmVzKVgC1k_10empack_lib7display7stylingNtB2_12StyleManager11format_info
FNDA:13,_RNvMNtNtCs5BmVzKVgC1k_10empack_lib7display7stylingNtB2_12StyleManager11style_error
FNDA:13,_RNvMNtNtCs5BmVzKVgC1k_10empack_lib7display7stylingNtB2_12StyleManager12format_error
FNDA:20,_RNvMNtNtCs5BmVzKVgC1k_10empack_lib7display7stylingNtB2_12StyleManager12style_subtle
FNDA:20,_RNvMNtNtCs5BmVzKVgC1k_10empack_lib7display7stylingNtB2_12StyleManager13style_success
FNDA:3,_RNvMNtNtCs5BmVzKVgC1k_10empack_lib7display7stylingNtB2_12StyleManager13style_warning
FNDA:20,_RNvMNtNtCs5BmVzKVgC1k_10empack_lib7display7stylingNtB2_12StyleManager14format_success
FNDA:3,_RNvMNtNtCs5BmVzKVgC1k_10empack_lib7display7stylingNtB2_12StyleManager14format_warning
FNDA:14,_RNvMNtNtCs5BmVzKVgC1k_10empack_lib7display7stylingNtB2_12StyleManager14format_working
FNDA:24,_RNvMNtNtCs5BmVzKVgC1k_10empack_lib7display7stylingNtB2_12StyleManager14style_emphasis
FNDA:45,_RNvMNtNtCs5BmVzKVgC1k_10empack_lib7display7stylingNtB2_12StyleManager3new
FNDA:0,_RNvMs_NtNtCs5BmVzKVgC1k_10empack_lib7display7stylingNtB4_12StyleManager6bullet
FNF:19
FNH:12
DA:17,59
DA:19,59
DA:20,59
DA:22,59
DA:23,59
DA:24,59
DA:25,59
DA:28,39
DA:29,39
DA:30,39
DA:33,39
DA:36,13
DA:37,13
DA:38,13
DA:41,5
DA:42,5
DA:43,5
DA:46,5
DA:49,34
DA:50,34
DA:51,34
DA:54,39
DA:55,39
DA:56,39
DA:59,31
DA:60,31
DA:61,31
DA:64,0
DA:65,0
DA:66,0
DA:69,39
DA:70,39
DA:71,39
DA:72,39
DA:75,39
DA:78,13
DA:79,13
DA:80,13
DA:83,5
DA:84,5
DA:85,5
DA:86,5
DA:89,5
DA:92,17
DA:93,17
DA:94,17
DA:95,17
DA:98,17
DA:101,17
DA:102,17
DA:103,17
DA:109,0
DA:110,0
DA:111,0
DA:114,0
DA:115,0
DA:116,0
DA:119,0
DA:120,0
DA:121,0
DA:124,0
DA:125,0
DA:126,0
DA:129,0
DA:130,0
DA:131,0
DA:134,0
DA:135,0
DA:136,0
BRF:0
BRH:0
LF:69
LH:48
end_of_record
SF:/Users/zer0cell/production/empack/crates/empack-lib/src/empack/builds.rs
FN:858,_RNCNCNvMs_NtNtCshmQA5Mrgi1L_10empack_lib6empack6buildsNtB8_17BuildOrchestrator22execute_build_pipeline00Csbc2rGA5VZid_11add_command
FN:890,_RNCNCNvMs_NtNtCshmQA5Mrgi1L_10empack_lib6empack6buildsNtB8_17BuildOrchestrator22execute_build_pipeline0s0_0Csbc2rGA5VZid_11add_command
FN:869,_RNCNCNvMs_NtNtCshmQA5Mrgi1L_10empack_lib6empack6buildsNtB8_17BuildOrchestrator22execute_build_pipeline0s_0Csbc2rGA5VZid_11add_command
FN:852,_RNCNvMs_NtNtCshmQA5Mrgi1L_10empack_lib6empack6buildsNtB6_17BuildOrchestrator22execute_build_pipeline0Csbc2rGA5VZid_11add_command
FN:858,_RNCNCNvMs_NtNtCshmQA5Mrgi1L_10empack_lib6empack6buildsNtB8_17BuildOrchestrator22execute_build_pipeline00Bc_
FN:890,_RNCNCNvMs_NtNtCshmQA5Mrgi1L_10empack_lib6empack6buildsNtB8_17BuildOrchestrator22execute_build_pipeline0s0_0Bc_
FN:869,_RNCNCNvMs_NtNtCshmQA5Mrgi1L_10empack_lib6empack6buildsNtB8_17BuildOrchestrator22execute_build_pipeline0s_0Bc_
FN:906,_RNCNCNvMs_NtNtCshmQA5Mrgi1L_10empack_lib6empack6buildsNtB8_17BuildOrchestrator22execute_clean_pipeline00Bc_
FN:919,_RNCNCNvMs_NtNtCshmQA5Mrgi1L_10empack_lib6empack6buildsNtB8_17BuildOrchestrator22execute_clean_pipeline0s_0Bc_
FN:852,_RNCNvMs_NtNtCshmQA5Mrgi1L_10empack_lib6empack6buildsNtB6_17BuildOrchestrator22execute_build_pipeline0Ba_
FN:900,_RNCNvMs_NtNtCshmQA5Mrgi1L_10empack_lib6empack6buildsNtB6_17BuildOrchestrator22execute_clean_pipeline0Ba_
FN:198,_RNvMs_NtNtCshmQA5Mrgi1L_10empack_lib6empack6buildsNtB4_17BuildOrchestrator21create_build_registry
FN:961,_RNCNvMs_NtNtCshmQA5Mrgi1L_10empack_lib6empack6buildsNtB6_17BuildOrchestrator12clean_target0Ba_
FN:978,_RNCNvMs_NtNtCshmQA5Mrgi1L_10empack_lib6empack6buildsNtB6_17BuildOrchestrator12clean_targets0_0Ba_
FN:999,_RNCNvMs_NtNtCshmQA5Mrgi1L_10empack_lib6empack6buildsNtB6_17BuildOrchestrator12clean_targets1_0Ba_
FN:971,_RNCNvMs_NtNtCshmQA5Mrgi1L_10empack_lib6empack6buildsNtB6_17BuildOrchestrator12clean_targets_0Ba_
FN:281,_RNCNvMs_NtNtCshmQA5Mrgi1L_10empack_lib6empack6buildsNtB6_17BuildOrchestrator12refresh_pack0Ba_
FN:316,_RNCNvMs_NtNtCshmQA5Mrgi1L_10empack_lib6empack6buildsNtB6_17BuildOrchestrator14extract_mrpack0Ba_
FN:341,_RNCNvMs_NtNtCshmQA5Mrgi1L_10empack_lib6empack6buildsNtB6_17BuildOrchestrator14extract_mrpacks0_0Ba_
FN:323,_RNCNvMs_NtNtCshmQA5Mrgi1L_10empack_lib6empack6buildsNtB6_17BuildOrchestrator14extract_mrpacks_0Ba_
FN:147,_RNCNvMs_NtNtCshmQA5Mrgi1L_10empack_lib6empack6buildsNtB6_17BuildOrchestrator14load_pack_info0Ba_
FN:156,_RNCNvMs_NtNtCshmQA5Mrgi1L_10empack_lib6empack6buildsNtB6_17BuildOrchestrator14load_pack_infos0_0Ba_
FN:162,_RNCNvMs_NtNtCshmQA5Mrgi1L_10empack_lib6empack6buildsNtB6_17BuildOrchestrator14load_pack_infos1_0Ba_
FN:168,_RNCNvMs_NtNtCshmQA5Mrgi1L_10empack_lib6empack6buildsNtB6_17BuildOrchestrator14load_pack_infos2_0Ba_
FN:174,_RNCNvMs_NtNtCshmQA5Mrgi1L_10empack_lib6empack6buildsNtB6_17BuildOrchestrator14load_pack_infos3_0Ba_
FN:175,_RNCNvMs_NtNtCshmQA5Mrgi1L_10empack_lib6empack6buildsNtB6_17BuildOrchestrator14load_pack_infos4_0Ba_
FN:181,_RNCNvMs_NtNtCshmQA5Mrgi1L_10empack_lib6empack6buildsNtB6_17BuildOrchestrator14load_pack_infos5_0Ba_
FN:182,_RNCNvMs_NtNtCshmQA5Mrgi1L_10empack_lib6empack6buildsNtB6_17BuildOrchestrator14load_pack_infos6_0Ba_
FN:151,_RNCNvMs_NtNtCshmQA5Mrgi1L_10empack_lib6empack6buildsNtB6_17BuildOrchestrator14load_pack_infos_0Ba_
FN:1109,_RNCNvMs_NtNtCshmQA5Mrgi1L_10empack_lib6empack6buildsNtB6_17BuildOrchestrator15create_artifact0Ba_
FN:1118,_RNCNvMs_NtNtCshmQA5Mrgi1L_10empack_lib6empack6buildsNtB6_17BuildOrchestrator15create_artifacts_0Ba_
FN:360,_RNCNvMs_NtNtCshmQA5Mrgi1L_10empack_lib6empack6buildsNtB6_17BuildOrchestrator16zip_distribution0Ba_
FN:387,_RNCNvMs_NtNtCshmQA5Mrgi1L_10empack_lib6empack6buildsNtB6_17BuildOrchestrator16zip_distributions0_0Ba_
FN:402,_RNCNvMs_NtNtCshmQA5Mrgi1L_10empack_lib6empack6buildsNtB6_17BuildOrchestrator16zip_distributions1_0Ba_
FN:378,_RNCNvMs_NtNtCshmQA5Mrgi1L_10empack_lib6empack6buildsNtB6_17BuildOrchestrator16zip_distributions_0Ba_
FN:495,_RNCNvMs_NtNtCshmQA5Mrgi1L_10empack_lib6empack6buildsNtB6_17BuildOrchestrator17build_client_impl0Ba_
FN:516,_RNCNvMs_NtNtCshmQA5Mrgi1L_10empack_lib6empack6buildsNtB6_17BuildOrchestrator17build_client_impls0_0Ba_
FN:525,_RNCNvMs_NtNtCshmQA5Mrgi1L_10empack_lib6empack6buildsNtB6_17BuildOrchestrator17build_client_impls1_0Ba_
FN:507,_RNCNvMs_NtNtCshmQA5Mrgi1L_10empack_lib6empack6buildsNtB6_17BuildOrchestrator17build_client_impls_0Ba_
FN:429,_RNCNvMs_NtNtCshmQA5Mrgi1L_10empack_lib6empack6buildsNtB6_17BuildOrchestrator17build_mrpack_impl0Ba_
FN:459,_RNCNvMs_NtNtCshmQA5Mrgi1L_10empack_lib6empack6buildsNtB6_17BuildOrchestrator17build_mrpack_impls0_0Ba_
FN:438,_RNCNvMs_NtNtCshmQA5Mrgi1L_10empack_lib6empack6buildsNtB6_17BuildOrchestrator17build_mrpack_impls_0Ba_
FN:566,_RNCNvMs_NtNtCshmQA5Mrgi1L_10empack_lib6empack6buildsNtB6_17BuildOrchestrator17build_server_impl0Ba_
FN:591,_RNCNvMs_NtNtCshmQA5Mrgi1L_10empack_lib6empack6buildsNtB6_17BuildOrchestrator17build_server_impls0_0Ba_
FN:582,_RNCNvMs_NtNtCshmQA5Mrgi1L_10empack_lib6empack6buildsNtB6_17BuildOrchestrator17build_server_impls_0Ba_
FN:1069,_RNCNvMs_NtNtCshmQA5Mrgi1L_10empack_lib6empack6buildsNtB6_17BuildOrchestrator17copy_dir_contents0Ba_
FN:1091,_RNCNvMs_NtNtCshmQA5Mrgi1L_10empack_lib6empack6buildsNtB6_17BuildOrchestrator17copy_dir_contentss0_0Ba_
FN:1097,_RNCNvMs_NtNtCshmQA5Mrgi1L_10empack_lib6empack6buildsNtB6_17BuildOrchestrator17copy_dir_contentss1_0Ba_
FN:1077,_RNCNvMs_NtNtCshmQA5Mrgi1L_10empack_lib6empack6buildsNtB6_17BuildOrchestrator17copy_dir_contentss_0Ba_
FN:675,_RNCNvMs_NtNtCshmQA5Mrgi1L_10empack_lib6empack6buildsNtB6_17BuildOrchestrator22build_client_full_impl0Ba_
FN:702,_RNCNvMs_NtNtCshmQA5Mrgi1L_10empack_lib6empack6buildsNtB6_17BuildOrchestrator22build_client_full_impls_0Ba_
FN:747,_RNCNvMs_NtNtCshmQA5Mrgi1L_10empack_lib6empack6buildsNtB6_17BuildOrchestrator22build_server_full_impl0Ba_
FN:819,_RNCNvMs_NtNtCshmQA5Mrgi1L_10empack_lib6empack6buildsNtB6_17BuildOrchestrator22build_server_full_impls_0Ba_
FN:1025,_RNCNvMs_NtNtCshmQA5Mrgi1L_10empack_lib6empack6buildsNtB6_17BuildOrchestrator23process_build_templates0Ba_
FN:1055,_RNCNvMs_NtNtCshmQA5Mrgi1L_10empack_lib6empack6buildsNtB6_17BuildOrchestrator23process_build_templatess0_0Ba_
FN:1040,_RNCNvMs_NtNtCshmQA5Mrgi1L_10empack_lib6empack6buildsNtB6_17BuildOrchestrator23process_build_templatess_0Ba_
FN:940,_RNCNvMs_NtNtCshmQA5Mrgi1L_10empack_lib6empack6buildsNtB6_17BuildOrchestrator25prepare_build_environment0Ba_
FN:111,_RNCNvMs_NtNtCshmQA5Mrgi1L_10empack_lib6empack6buildsNtB6_17BuildOrchestrator3new0Ba_
FN:949,_RNvMs_NtNtCshmQA5Mrgi1L_10empack_lib6empack6buildsNtB4_17BuildOrchestrator12clean_target
FN:260,_RNvMs_NtNtCshmQA5Mrgi1L_10empack_lib6empack6buildsNtB4_17BuildOrchestrator12refresh_pack
FN:295,_RNvMs_NtNtCshmQA5Mrgi1L_10empack_lib6empack6buildsNtB4_17BuildOrchestrator14extract_mrpack
FN:130,_RNvMs_NtNtCshmQA5Mrgi1L_10empack_lib6empack6buildsNtB4_17BuildOrchestrator14load_pack_info
FN:1106,_RNvMs_NtNtCshmQA5Mrgi1L_10empack_lib6empack6buildsNtB4_17BuildOrchestrator15create_artifact
FN:355,_RNvMs_NtNtCshmQA5Mrgi1L_10empack_lib6empack6buildsNtB4_17BuildOrchestrator16zip_distribution
FN:484,_RNvMs_NtNtCshmQA5Mrgi1L_10empack_lib6empack6buildsNtB4_17BuildOrchestrator17build_client_impl
FN:415,_RNvMs_NtNtCshmQA5Mrgi1L_10empack_lib6empack6buildsNtB4_17BuildOrchestrator17build_mrpack_impl
FN:554,_RNvMs_NtNtCshmQA5Mrgi1L_10empack_lib6empack6buildsNtB4_17BuildOrchestrator17build_server_impl
FN:1064,_RNvMs_NtNtCshmQA5Mrgi1L_10empack_lib6empack6buildsNtB4_17BuildOrchestrator17copy_dir_contents
FN:660,_RNvMs_NtNtCshmQA5Mrgi1L_10empack_lib6empack6buildsNtB4_17BuildOrchestrator22build_client_full_impl
FN:732,_RNvMs_NtNtCshmQA5Mrgi1L_10empack_lib6empack6buildsNtB4_17BuildOrchestrator22build_server_full_impl
FN:849,_RNvMs_NtNtCshmQA5Mrgi1L_10empack_lib6empack6buildsNtB4_17BuildOrchestrator22execute_build_pipeline
FN:897,_RNvMs_NtNtCshmQA5Mrgi1L_10empack_lib6empack6buildsNtB4_17BuildOrchestrator22execute_clean_pipeline
FN:1008,_RNvMs_NtNtCshmQA5Mrgi1L_10empack_lib6empack6buildsNtB4_17BuildOrchestrator23process_build_templates
FN:926,_RNvMs_NtNtCshmQA5Mrgi1L_10empack_lib6empack6buildsNtB4_17BuildOrchestrator25prepare_build_environment
FN:104,_RNvMs_NtNtCshmQA5Mrgi1L_10empack_lib6empack6buildsNtB4_17BuildOrchestrator3new
FN:54,_RNvXNtNtCshmQA5Mrgi1L_10empack_lib6empack6buildsNtB2_17BuildOrchestratorNtNtCsj3QBrvpYeJs_4core3fmt5Debug3fmt
FN:858,_RNCNCNvMs_NtNtCshmQA5Mrgi1L_10empack_lib6empack6buildsNtB8_17BuildOrchestrator22execute_build_pipeline00Cs8uoVYB8rq8D_17build_client_full
FN:890,_RNCNCNvMs_NtNtCshmQA5Mrgi1L_10empack_lib6empack6buildsNtB8_17BuildOrchestrator22execute_build_pipeline0s0_0Cs8uoVYB8rq8D_17build_client_full
FN:869,_RNCNCNvMs_NtNtCshmQA5Mrgi1L_10empack_lib6empack6buildsNtB8_17BuildOrchestrator22execute_build_pipeline0s_0Cs8uoVYB8rq8D_17build_client_full
FN:852,_RNCNvMs_NtNtCshmQA5Mrgi1L_10empack_lib6empack6buildsNtB6_17BuildOrchestrator22execute_build_pipeline0Cs8uoVYB8rq8D_17build_client_full
FN:858,_RNCNCNvMs_NtNtCshmQA5Mrgi1L_10empack_lib6empack6buildsNtB8_17BuildOrchestrator22execute_build_pipeline00Csj8HZQhsijMc_12build_server
FN:890,_RNCNCNvMs_NtNtCshmQA5Mrgi1L_10empack_lib6empack6buildsNtB8_17BuildOrchestrator22execute_build_pipeline0s0_0Csj8HZQhsijMc_12build_server
FN:869,_RNCNCNvMs_NtNtCshmQA5Mrgi1L_10empack_lib6empack6buildsNtB8_17BuildOrchestrator22execute_build_pipeline0s_0Csj8HZQhsijMc_12build_server
FN:852,_RNCNvMs_NtNtCshmQA5Mrgi1L_10empack_lib6empack6buildsNtB6_17BuildOrchestrator22execute_build_pipeline0Csj8HZQhsijMc_12build_server
FN:858,_RNCNCNvMs_NtNtCshmQA5Mrgi1L_10empack_lib6empack6buildsNtB8_17BuildOrchestrator22execute_build_pipeline00CsdrRwdeEzguW_17build_server_full
FN:890,_RNCNCNvMs_NtNtCshmQA5Mrgi1L_10empack_lib6empack6buildsNtB8_17BuildOrchestrator22execute_build_pipeline0s0_0CsdrRwdeEzguW_17build_server_full
FN:869,_RNCNCNvMs_NtNtCshmQA5Mrgi1L_10empack_lib6empack6buildsNtB8_17BuildOrchestrator22execute_build_pipeline0s_0CsdrRwdeEzguW_17build_server_full
FN:852,_RNCNvMs_NtNtCshmQA5Mrgi1L_10empack_lib6empack6buildsNtB6_17BuildOrchestrator22execute_build_pipeline0CsdrRwdeEzguW_17build_server_full
FN:858,_RNCNCNvMs_NtNtCs5BmVzKVgC1k_10empack_lib6empack6buildsNtB8_17BuildOrchestrator22execute_build_pipeline00Bc_
FN:890,_RNCNCNvMs_NtNtCs5BmVzKVgC1k_10empack_lib6empack6buildsNtB8_17BuildOrchestrator22execute_build_pipeline0s0_0Bc_
FN:869,_RNCNCNvMs_NtNtCs5BmVzKVgC1k_10empack_lib6empack6buildsNtB8_17BuildOrchestrator22execute_build_pipeline0s_0Bc_
FN:961,_RNCNvMs_NtNtCs5BmVzKVgC1k_10empack_lib6empack6buildsNtB6_17BuildOrchestrator12clean_target0Ba_
FN:978,_RNCNvMs_NtNtCs5BmVzKVgC1k_10empack_lib6empack6buildsNtB6_17BuildOrchestrator12clean_targets0_0Ba_
FN:999,_RNCNvMs_NtNtCs5BmVzKVgC1k_10empack_lib6empack6buildsNtB6_17BuildOrchestrator12clean_targets1_0Ba_
FN:971,_RNCNvMs_NtNtCs5BmVzKVgC1k_10empack_lib6empack6buildsNtB6_17BuildOrchestrator12clean_targets_0Ba_
FN:281,_RNCNvMs_NtNtCs5BmVzKVgC1k_10empack_lib6empack6buildsNtB6_17BuildOrchestrator12refresh_pack0Ba_
FN:316,_RNCNvMs_NtNtCs5BmVzKVgC1k_10empack_lib6empack6buildsNtB6_17BuildOrchestrator14extract_mrpack0Ba_
FN:341,_RNCNvMs_NtNtCs5BmVzKVgC1k_10empack_lib6empack6buildsNtB6_17BuildOrchestrator14extract_mrpacks0_0Ba_
FN:323,_RNCNvMs_NtNtCs5BmVzKVgC1k_10empack_lib6empack6buildsNtB6_17BuildOrchestrator14extract_mrpacks_0Ba_
FN:147,_RNCNvMs_NtNtCs5BmVzKVgC1k_10empack_lib6empack6buildsNtB6_17BuildOrchestrator14load_pack_info0Ba_
FN:156,_RNCNvMs_NtNtCs5BmVzKVgC1k_10empack_lib6empack6buildsNtB6_17BuildOrchestrator14load_pack_infos0_0Ba_
FN:162,_RNCNvMs_NtNtCs5BmVzKVgC1k_10empack_lib6empack6buildsNtB6_17BuildOrchestrator14load_pack_infos1_0Ba_
FN:168,_RNCNvMs_NtNtCs5BmVzKVgC1k_10empack_lib6empack6buildsNtB6_17BuildOrchestrator14load_pack_infos2_0Ba_
FN:174,_RNCNvMs_NtNtCs5BmVzKVgC1k_10empack_lib6empack6buildsNtB6_17BuildOrchestrator14load_pack_infos3_0Ba_
FN:175,_RNCNvMs_NtNtCs5BmVzKVgC1k_10empack_lib6empack6buildsNtB6_17BuildOrchestrator14load_pack_infos4_0Ba_
FN:181,_RNCNvMs_NtNtCs5BmVzKVgC1k_10empack_lib6empack6buildsNtB6_17BuildOrchestrator14load_pack_infos5_0Ba_
FN:182,_RNCNvMs_NtNtCs5BmVzKVgC1k_10empack_lib6empack6buildsNtB6_17BuildOrchestrator14load_pack_infos6_0Ba_
FN:151,_RNCNvMs_NtNtCs5BmVzKVgC1k_10empack_lib6empack6buildsNtB6_17BuildOrchestrator14load_pack_infos_0Ba_
FN:1109,_RNCNvMs_NtNtCs5BmVzKVgC1k_10empack_lib6empack6buildsNtB6_17BuildOrchestrator15create_artifact0Ba_
FN:1118,_RNCNvMs_NtNtCs5BmVzKVgC1k_10empack_lib6empack6buildsNtB6_17BuildOrchestrator15create_artifacts_0Ba_
FN:360,_RNCNvMs_NtNtCs5BmVzKVgC1k_10empack_lib6empack6buildsNtB6_17BuildOrchestrator16zip_distribution0Ba_
FN:387,_RNCNvMs_NtNtCs5BmVzKVgC1k_10empack_lib6empack6buildsNtB6_17BuildOrchestrator16zip_distributions0_0Ba_
FN:402,_RNCNvMs_NtNtCs5BmVzKVgC1k_10empack_lib6empack6buildsNtB6_17BuildOrchestrator16zip_distributions1_0Ba_
FN:378,_RNCNvMs_NtNtCs5BmVzKVgC1k_10empack_lib6empack6buildsNtB6_17BuildOrchestrator16zip_distributions_0Ba_
FN:495,_RNCNvMs_NtNtCs5BmVzKVgC1k_10empack_lib6empack6buildsNtB6_17BuildOrchestrator17build_client_impl0Ba_
FN:516,_RNCNvMs_NtNtCs5BmVzKVgC1k_10empack_lib6empack6buildsNtB6_17BuildOrchestrator17build_client_impls0_0Ba_
FN:525,_RNCNvMs_NtNtCs5BmVzKVgC1k_10empack_lib6empack6buildsNtB6_17BuildOrchestrator17build_client_impls1_0Ba_
FN:507,_RNCNvMs_NtNtCs5BmVzKVgC1k_10empack_lib6empack6buildsNtB6_17BuildOrchestrator17build_client_impls_0Ba_
FN:429,_RNCNvMs_NtNtCs5BmVzKVgC1k_10empack_lib6empack6buildsNtB6_17BuildOrchestrator17build_mrpack_impl0Ba_
FN:459,_RNCNvMs_NtNtCs5BmVzKVgC1k_10empack_lib6empack6buildsNtB6_17BuildOrchestrator17build_mrpack_impls0_0Ba_
FN:438,_RNCNvMs_NtNtCs5BmVzKVgC1k_10empack_lib6empack6buildsNtB6_17BuildOrchestrator17build_mrpack_impls_0Ba_
FN:566,_RNCNvMs_NtNtCs5BmVzKVgC1k_10empack_lib6empack6buildsNtB6_17BuildOrchestrator17build_server_impl0Ba_
FN:591,_RNCNvMs_NtNtCs5BmVzKVgC1k_10empack_lib6empack6buildsNtB6_17BuildOrchestrator17build_server_impls0_0Ba_
FN:582,_RNCNvMs_NtNtCs5BmVzKVgC1k_10empack_lib6empack6buildsNtB6_17BuildOrchestrator17build_server_impls_0Ba_
FN:1069,_RNCNvMs_NtNtCs5BmVzKVgC1k_10empack_lib6empack6buildsNtB6_17BuildOrchestrator17copy_dir_contents0Ba_
FN:1091,_RNCNvMs_NtNtCs5BmVzKVgC1k_10empack_lib6empack6buildsNtB6_17BuildOrchestrator17copy_dir_contentss0_0Ba_
FN:1097,_RNCNvMs_NtNtCs5BmVzKVgC1k_10empack_lib6empack6buildsNtB6_17BuildOrchestrator17copy_dir_contentss1_0Ba_
FN:1077,_RNCNvMs_NtNtCs5BmVzKVgC1k_10empack_lib6empack6buildsNtB6_17BuildOrchestrator17copy_dir_contentss_0Ba_
FN:675,_RNCNvMs_NtNtCs5BmVzKVgC1k_10empack_lib6empack6buildsNtB6_17BuildOrchestrator22build_client_full_impl0Ba_
FN:702,_RNCNvMs_NtNtCs5BmVzKVgC1k_10empack_lib6empack6buildsNtB6_17BuildOrchestrator22build_client_full_impls_0Ba_
FN:747,_RNCNvMs_NtNtCs5BmVzKVgC1k_10empack_lib6empack6buildsNtB6_17BuildOrchestrator22build_server_full_impl0Ba_
FN:819,_RNCNvMs_NtNtCs5BmVzKVgC1k_10empack_lib6empack6buildsNtB6_17BuildOrchestrator22build_server_full_impls_0Ba_
FN:852,_RNCNvMs_NtNtCs5BmVzKVgC1k_10empack_lib6empack6buildsNtB6_17BuildOrchestrator22execute_build_pipeline0Ba_
FN:1025,_RNCNvMs_NtNtCs5BmVzKVgC1k_10empack_lib6empack6buildsNtB6_17BuildOrchestrator23process_build_templates0Ba_
FN:1055,_RNCNvMs_NtNtCs5BmVzKVgC1k_10empack_lib6empack6buildsNtB6_17BuildOrchestrator23process_build_templatess0_0Ba_
FN:1040,_RNCNvMs_NtNtCs5BmVzKVgC1k_10empack_lib6empack6buildsNtB6_17BuildOrchestrator23process_build_templatess_0Ba_
FN:940,_RNCNvMs_NtNtCs5BmVzKVgC1k_10empack_lib6empack6buildsNtB6_17BuildOrchestrator25prepare_build_environment0Ba_
FN:111,_RNCNvMs_NtNtCs5BmVzKVgC1k_10empack_lib6empack6buildsNtB6_17BuildOrchestrator3new0Ba_
FN:906,_RNCNCNvMs_NtNtCs5BmVzKVgC1k_10empack_lib6empack6buildsNtB8_17BuildOrchestrator22execute_clean_pipeline00Bc_
FN:919,_RNCNCNvMs_NtNtCs5BmVzKVgC1k_10empack_lib6empack6buildsNtB8_17BuildOrchestrator22execute_clean_pipeline0s_0Bc_
FN:900,_RNCNvMs_NtNtCs5BmVzKVgC1k_10empack_lib6empack6buildsNtB6_17BuildOrchestrator22execute_clean_pipeline0Ba_
FN:897,_RNvMs_NtNtCs5BmVzKVgC1k_10empack_lib6empack6buildsNtB4_17BuildOrchestrator22execute_clean_pipeline
FN:54,_RNvXNtNtCs5BmVzKVgC1k_10empack_lib6empack6buildsNtB2_17BuildOrchestratorNtNtCsj3QBrvpYeJs_4core3fmt5Debug3fmt
FN:949,_RNvMs_NtNtCs5BmVzKVgC1k_10empack_lib6empack6buildsNtB4_17BuildOrchestrator12clean_target
FN:260,_RNvMs_NtNtCs5BmVzKVgC1k_10empack_lib6empack6buildsNtB4_17BuildOrchestrator12refresh_pack
FN:295,_RNvMs_NtNtCs5BmVzKVgC1k_10empack_lib6empack6buildsNtB4_17BuildOrchestrator14extract_mrpack
FN:130,_RNvMs_NtNtCs5BmVzKVgC1k_10empack_lib6empack6buildsNtB4_17BuildOrchestrator14load_pack_info
FN:1106,_RNvMs_NtNtCs5BmVzKVgC1k_10empack_lib6empack6buildsNtB4_17BuildOrchestrator15create_artifact
FN:355,_RNvMs_NtNtCs5BmVzKVgC1k_10empack_lib6empack6buildsNtB4_17BuildOrchestrator16zip_distribution
FN:484,_RNvMs_NtNtCs5BmVzKVgC1k_10empack_lib6empack6buildsNtB4_17BuildOrchestrator17build_client_impl
FN:415,_RNvMs_NtNtCs5BmVzKVgC1k_10empack_lib6empack6buildsNtB4_17BuildOrchestrator17build_mrpack_impl
FN:554,_RNvMs_NtNtCs5BmVzKVgC1k_10empack_lib6empack6buildsNtB4_17BuildOrchestrator17build_server_impl
FN:1064,_RNvMs_NtNtCs5BmVzKVgC1k_10empack_lib6empack6buildsNtB4_17BuildOrchestrator17copy_dir_contents
FN:198,_RNvMs_NtNtCs5BmVzKVgC1k_10empack_lib6empack6buildsNtB4_17BuildOrchestrator21create_build_registry
FN:660,_RNvMs_NtNtCs5BmVzKVgC1k_10empack_lib6empack6buildsNtB4_17BuildOrchestrator22build_client_full_impl
FN:732,_RNvMs_NtNtCs5BmVzKVgC1k_10empack_lib6empack6buildsNtB4_17BuildOrchestrator22build_server_full_impl
FN:849,_RNvMs_NtNtCs5BmVzKVgC1k_10empack_lib6empack6buildsNtB4_17BuildOrchestrator22execute_build_pipeline
FN:1008,_RNvMs_NtNtCs5BmVzKVgC1k_10empack_lib6empack6buildsNtB4_17BuildOrchestrator23process_build_templates
FN:926,_RNvMs_NtNtCs5BmVzKVgC1k_10empack_lib6empack6buildsNtB4_17BuildOrchestrator25prepare_build_environment
FN:104,_RNvMs_NtNtCs5BmVzKVgC1k_10empack_lib6empack6buildsNtB4_17BuildOrchestrator3new
FN:858,_RNCNCNvMs_NtNtCshmQA5Mrgi1L_10empack_lib6empack6buildsNtB8_17BuildOrchestrator22execute_build_pipeline00CsaTeXJNQleyZ_12hermetic_e2e
FN:890,_RNCNCNvMs_NtNtCshmQA5Mrgi1L_10empack_lib6empack6buildsNtB8_17BuildOrchestrator22execute_build_pipeline0s0_0CsaTeXJNQleyZ_12hermetic_e2e
FN:869,_RNCNCNvMs_NtNtCshmQA5Mrgi1L_10empack_lib6empack6buildsNtB8_17BuildOrchestrator22execute_build_pipeline0s_0CsaTeXJNQleyZ_12hermetic_e2e
FN:852,_RNCNvMs_NtNtCshmQA5Mrgi1L_10empack_lib6empack6buildsNtB6_17BuildOrchestrator22execute_build_pipeline0CsaTeXJNQleyZ_12hermetic_e2e
FNDA:0,_RNCNCNvMs_NtNtCshmQA5Mrgi1L_10empack_lib6empack6buildsNtB8_17BuildOrchestrator22execute_build_pipeline00Csbc2rGA5VZid_11add_command
FNDA:0,_RNCNCNvMs_NtNtCshmQA5Mrgi1L_10empack_lib6empack6buildsNtB8_17BuildOrchestrator22execute_build_pipeline0s0_0Csbc2rGA5VZid_11add_command
FNDA:0,_RNCNCNvMs_NtNtCshmQA5Mrgi1L_10empack_lib6empack6buildsNtB8_17BuildOrchestrator22execute_build_pipeline0s_0Csbc2rGA5VZid_11add_command
FNDA:0,_RNCNvMs_NtNtCshmQA5Mrgi1L_10empack_lib6empack6buildsNtB6_17BuildOrchestrator22execute_build_pipeline0Csbc2rGA5VZid_11add_command
FNDA:0,_RNCNCNvMs_NtNtCshmQA5Mrgi1L_10empack_lib6empack6buildsNtB8_17BuildOrchestrator22execute_build_pipeline00Bc_
FNDA:0,_RNCNCNvMs_NtNtCshmQA5Mrgi1L_10empack_lib6empack6buildsNtB8_17BuildOrchestrator22execute_build_pipeline0s0_0Bc_
FNDA:0,_RNCNCNvMs_NtNtCshmQA5Mrgi1L_10empack_lib6empack6buildsNtB8_17BuildOrchestrator22execute_build_pipeline0s_0Bc_
FNDA:0,_RNCNCNvMs_NtNtCshmQA5Mrgi1L_10empack_lib6empack6buildsNtB8_17BuildOrchestrator22execute_clean_pipeline00Bc_
FNDA:0,_RNCNCNvMs_NtNtCshmQA5Mrgi1L_10empack_lib6empack6buildsNtB8_17BuildOrchestrator22execute_clean_pipeline0s_0Bc_
FNDA:0,_RNCNvMs_NtNtCshmQA5Mrgi1L_10empack_lib6empack6buildsNtB6_17BuildOrchestrator22execute_build_pipeline0Ba_
FNDA:0,_RNCNvMs_NtNtCshmQA5Mrgi1L_10empack_lib6empack6buildsNtB6_17BuildOrchestrator22execute_clean_pipeline0Ba_
FNDA:0,_RNvMs_NtNtCshmQA5Mrgi1L_10empack_lib6empack6buildsNtB4_17BuildOrchestrator21create_build_registry
FNDA:0,_RNCNvMs_NtNtCshmQA5Mrgi1L_10empack_lib6empack6buildsNtB6_17BuildOrchestrator12clean_target0Ba_
FNDA:0,_RNCNvMs_NtNtCshmQA5Mrgi1L_10empack_lib6empack6buildsNtB6_17BuildOrchestrator12clean_targets0_0Ba_
FNDA:0,_RNCNvMs_NtNtCshmQA5Mrgi1L_10empack_lib6empack6buildsNtB6_17BuildOrchestrator12clean_targets1_0Ba_
FNDA:0,_RNCNvMs_NtNtCshmQA5Mrgi1L_10empack_lib6empack6buildsNtB6_17BuildOrchestrator12clean_targets_0Ba_
FNDA:0,_RNCNvMs_NtNtCshmQA5Mrgi1L_10empack_lib6empack6buildsNtB6_17BuildOrchestrator12refresh_pack0Ba_
FNDA:0,_RNCNvMs_NtNtCshmQA5Mrgi1L_10empack_lib6empack6buildsNtB6_17BuildOrchestrator14extract_mrpack0Ba_
FNDA:0,_RNCNvMs_NtNtCshmQA5Mrgi1L_10empack_lib6empack6buildsNtB6_17BuildOrchestrator14extract_mrpacks0_0Ba_
FNDA:0,_RNCNvMs_NtNtCshmQA5Mrgi1L_10empack_lib6empack6buildsNtB6_17BuildOrchestrator14extract_mrpacks_0Ba_
FNDA:0,_RNCNvMs_NtNtCshmQA5Mrgi1L_10empack_lib6empack6buildsNtB6_17BuildOrchestrator14load_pack_info0Ba_
FNDA:7,_RNCNvMs_NtNtCshmQA5Mrgi1L_10empack_lib6empack6buildsNtB6_17BuildOrchestrator14load_pack_infos0_0Ba_
FNDA:7,_RNCNvMs_NtNtCshmQA5Mrgi1L_10empack_lib6empack6buildsNtB6_17BuildOrchestrator14load_pack_infos1_0Ba_
FNDA:7,_RNCNvMs_NtNtCshmQA5Mrgi1L_10empack_lib6empack6buildsNtB6_17BuildOrchestrator14load_pack_infos2_0Ba_
FNDA:7,_RNCNvMs_NtNtCshmQA5Mrgi1L_10empack_lib6empack6buildsNtB6_17BuildOrchestrator14load_pack_infos3_0Ba_
FNDA:7,_RNCNvMs_NtNtCshmQA5Mrgi1L_10empack_lib6empack6buildsNtB6_17BuildOrchestrator14load_pack_infos4_0Ba_
FNDA:7,_RNCNvMs_NtNtCshmQA5Mrgi1L_10empack_lib6empack6buildsNtB6_17BuildOrchestrator14load_pack_infos5_0Ba_
FNDA:7,_RNCNvMs_NtNtCshmQA5Mrgi1L_10empack_lib6empack6buildsNtB6_17BuildOrchestrator14load_pack_infos6_0Ba_
FNDA:0,_RNCNvMs_NtNtCshmQA5Mrgi1L_10empack_lib6empack6buildsNtB6_17BuildOrchestrator14load_pack_infos_0Ba_
FNDA:5,_RNCNvMs_NtNtCshmQA5Mrgi1L_10empack_lib6empack6buildsNtB6_17BuildOrchestrator15create_artifact0Ba_
FNDA:0,_RNCNvMs_NtNtCshmQA5Mrgi1L_10empack_lib6empack6buildsNtB6_17BuildOrchestrator15create_artifacts_0Ba_
FNDA:0,_RNCNvMs_NtNtCshmQA5Mrgi1L_10empack_lib6empack6buildsNtB6_17BuildOrchestrator16zip_distribution0Ba_
FNDA:2,_RNCNvMs_NtNtCshmQA5Mrgi1L_10empack_lib6empack6buildsNtB6_17BuildOrchestrator16zip_distributions0_0Ba_
FNDA:0,_RNCNvMs_NtNtCshmQA5Mrgi1L_10empack_lib6empack6buildsNtB6_17BuildOrchestrator16zip_distributions1_0Ba_
FNDA:0,_RNCNvMs_NtNtCshmQA5Mrgi1L_10empack_lib6empack6buildsNtB6_17BuildOrchestrator16zip_distributions_0Ba_
FNDA:0,_RNCNvMs_NtNtCshmQA5Mrgi1L_10empack_lib6empack6buildsNtB6_17BuildOrchestrator17build_client_impl0Ba_
FNDA:0,_RNCNvMs_NtNtCshmQA5Mrgi1L_10empack_lib6empack6buildsNtB6_17BuildOrchestrator17build_client_impls0_0Ba_
FNDA:0,_RNCNvMs_NtNtCshmQA5Mrgi1L_10empack_lib6empack6buildsNtB6_17BuildOrchestrator17build_client_impls1_0Ba_
FNDA:0,_RNCNvMs_NtNtCshmQA5Mrgi1L_10empack_lib6empack6buildsNtB6_17BuildOrchestrator17build_client_impls_0Ba_
FNDA:0,_RNCNvMs_NtNtCshmQA5Mrgi1L_10empack_lib6empack6buildsNtB6_17BuildOrchestrator17build_mrpack_impl0Ba_
FNDA:0,_RNCNvMs_NtNtCshmQA5Mrgi1L_10empack_lib6empack6buildsNtB6_17BuildOrchestrator17build_mrpack_impls0_0Ba_
FNDA:0,_RNCNvMs_NtNtCshmQA5Mrgi1L_10empack_lib6empack6buildsNtB6_17BuildOrchestrator17build_mrpack_impls_0Ba_
FNDA:0,_RNCNvMs_NtNtCshmQA5Mrgi1L_10empack_lib6empack6buildsNtB6_17BuildOrchestrator17build_server_impl0Ba_
FNDA:0,_RNCNvMs_NtNtCshmQA5Mrgi1L_10empack_lib6empack6buildsNtB6_17BuildOrchestrator17build_server_impls0_0Ba_
FNDA:1,_RNCNvMs_NtNtCshmQA5Mrgi1L_10empack_lib6empack6buildsNtB6_17BuildOrchestrator17build_server_impls_0Ba_
FNDA:0,_RNCNvMs_NtNtCshmQA5Mrgi1L_10empack_lib6empack6buildsNtB6_17BuildOrchestrator17copy_dir_contents0Ba_
FNDA:0,_RNCNvMs_NtNtCshmQA5Mrgi1L_10empack_lib6empack6buildsNtB6_17BuildOrchestrator17copy_dir_contentss0_0Ba_
FNDA:0,_RNCNvMs_NtNtCshmQA5Mrgi1L_10empack_lib6empack6buildsNtB6_17BuildOrchestrator17copy_dir_contentss1_0Ba_
FNDA:0,_RNCNvMs_NtNtCshmQA5Mrgi1L_10empack_lib6empack6buildsNtB6_17BuildOrchestrator17copy_dir_contentss_0Ba_
FNDA:0,_RNCNvMs_NtNtCshmQA5Mrgi1L_10empack_lib6empack6buildsNtB6_17BuildOrchestrator22build_client_full_impl0Ba_
FNDA:0,_RNCNvMs_NtNtCshmQA5Mrgi1L_10empack_lib6empack6buildsNtB6_17BuildOrchestrator22build_client_full_impls_0Ba_
FNDA:0,_RNCNvMs_NtNtCshmQA5Mrgi1L_10empack_lib6empack6buildsNtB6_17BuildOrchestrator22build_server_full_impl0Ba_
FNDA:0,_RNCNvMs_NtNtCshmQA5Mrgi1L_10empack_lib6empack6buildsNtB6_17BuildOrchestrator22build_server_full_impls_0Ba_
FNDA:0,_RNCNvMs_NtNtCshmQA5Mrgi1L_10empack_lib6empack6buildsNtB6_17BuildOrchestrator23process_build_templates0Ba_
FNDA:0,_RNCNvMs_NtNtCshmQA5Mrgi1L_10empack_lib6empack6buildsNtB6_17BuildOrchestrator23process_build_templatess0_0Ba_
FNDA:0,_RNCNvMs_NtNtCshmQA5Mrgi1L_10empack_lib6empack6buildsNtB6_17BuildOrchestrator23process_build_templatess_0Ba_
FNDA:0,_RNCNvMs_NtNtCshmQA5Mrgi1L_10empack_lib6empack6buildsNtB6_17BuildOrchestrator25prepare_build_environment0Ba_
FNDA:9,_RNCNvMs_NtNtCshmQA5Mrgi1L_10empack_lib6empack6buildsNtB6_17BuildOrchestrator3new0Ba_
FNDA:9,_RNvMs_NtNtCshmQA5Mrgi1L_10empack_lib6empack6buildsNtB4_17BuildOrchestrator12clean_target
FNDA:12,_RNvMs_NtNtCshmQA5Mrgi1L_10empack_lib6empack6buildsNtB4_17BuildOrchestrator12refresh_pack
FNDA:2,_RNvMs_NtNtCshmQA5Mrgi1L_10empack_lib6empack6buildsNtB4_17BuildOrchestrator14extract_mrpack
FNDA:16,_RNvMs_NtNtCshmQA5Mrgi1L_10empack_lib6empack6buildsNtB4_17BuildOrchestrator14load_pack_info
FNDA:5,_RNvMs_NtNtCshmQA5Mrgi1L_10empack_lib6empack6buildsNtB4_17BuildOrchestrator15create_artifact
FNDA:2,_RNvMs_NtNtCshmQA5Mrgi1L_10empack_lib6empack6buildsNtB4_17BuildOrchestrator16zip_distribution
FNDA:0,_RNvMs_NtNtCshmQA5Mrgi1L_10empack_lib6empack6buildsNtB4_17BuildOrchestrator17build_client_impl
FNDA:3,_RNvMs_NtNtCshmQA5Mrgi1L_10empack_lib6empack6buildsNtB4_17BuildOrchestrator17build_mrpack_impl
FNDA:3,_RNvMs_NtNtCshmQA5Mrgi1L_10empack_lib6empack6buildsNtB4_17BuildOrchestrator17build_server_impl
FNDA:12,_RNvMs_NtNtCshmQA5Mrgi1L_10empack_lib6empack6buildsNtB4_17BuildOrchestrator17copy_dir_contents
FNDA:3,_RNvMs_NtNtCshmQA5Mrgi1L_10empack_lib6empack6buildsNtB4_17BuildOrchestrator22build_client_full_impl
FNDA:3,_RNvMs_NtNtCshmQA5Mrgi1L_10empack_lib6empack6buildsNtB4_17BuildOrchestrator22build_server_full_impl
FNDA:10,_RNvMs_NtNtCshmQA5Mrgi1L_10empack_lib6empack6buildsNtB4_17BuildOrchestrator22execute_build_pipeline
FNDA:0,_RNvMs_NtNtCshmQA5Mrgi1L_10empack_lib6empack6buildsNtB4_17BuildOrchestrator22execute_clean_pipeline
FNDA:6,_RNvMs_NtNtCshmQA5Mrgi1L_10empack_lib6empack6buildsNtB4_17BuildOrchestrator23process_build_templates
FNDA:10,_RNvMs_NtNtCshmQA5Mrgi1L_10empack_lib6empack6buildsNtB4_17BuildOrchestrator25prepare_build_environment
FNDA:10,_RNvMs_NtNtCshmQA5Mrgi1L_10empack_lib6empack6buildsNtB4_17BuildOrchestrator3new
FNDA:0,_RNvXNtNtCshmQA5Mrgi1L_10empack_lib6empack6buildsNtB2_17BuildOrchestratorNtNtCsj3QBrvpYeJs_4core3fmt5Debug3fmt
FNDA:0,_RNCNCNvMs_NtNtCshmQA5Mrgi1L_10empack_lib6empack6buildsNtB8_17BuildOrchestrator22execute_build_pipeline00Cs8uoVYB8rq8D_17build_client_full
FNDA:0,_RNCNCNvMs_NtNtCshmQA5Mrgi1L_10empack_lib6empack6buildsNtB8_17BuildOrchestrator22execute_build_pipeline0s0_0Cs8uoVYB8rq8D_17build_client_full
FNDA:0,_RNCNCNvMs_NtNtCshmQA5Mrgi1L_10empack_lib6empack6buildsNtB8_17BuildOrchestrator22execute_build_pipeline0s_0Cs8uoVYB8rq8D_17build_client_full
FNDA:3,_RNCNvMs_NtNtCshmQA5Mrgi1L_10empack_lib6empack6buildsNtB6_17BuildOrchestrator22execute_build_pipeline0Cs8uoVYB8rq8D_17build_client_full
FNDA:0,_RNCNCNvMs_NtNtCshmQA5Mrgi1L_10empack_lib6empack6buildsNtB8_17BuildOrchestrator22execute_build_pipeline00Csj8HZQhsijMc_12build_server
FNDA:0,_RNCNCNvMs_NtNtCshmQA5Mrgi1L_10empack_lib6empack6buildsNtB8_17BuildOrchestrator22execute_build_pipeline0s0_0Csj8HZQhsijMc_12build_server
FNDA:0,_RNCNCNvMs_NtNtCshmQA5Mrgi1L_10empack_lib6empack6buildsNtB8_17BuildOrchestrator22execute_build_pipeline0s_0Csj8HZQhsijMc_12build_server
FNDA:3,_RNCNvMs_NtNtCshmQA5Mrgi1L_10empack_lib6empack6buildsNtB6_17BuildOrchestrator22execute_build_pipeline0Csj8HZQhsijMc_12build_server
FNDA:0,_RNCNCNvMs_NtNtCshmQA5Mrgi1L_10empack_lib6empack6buildsNtB8_17BuildOrchestrator22execute_build_pipeline00CsdrRwdeEzguW_17build_server_full
FNDA:0,_RNCNCNvMs_NtNtCshmQA5Mrgi1L_10empack_lib6empack6buildsNtB8_17BuildOrchestrator22execute_build_pipeline0s0_0CsdrRwdeEzguW_17build_server_full
FNDA:0,_RNCNCNvMs_NtNtCshmQA5Mrgi1L_10empack_lib6empack6buildsNtB8_17BuildOrchestrator22execute_build_pipeline0s_0CsdrRwdeEzguW_17build_server_full
FNDA:3,_RNCNvMs_NtNtCshmQA5Mrgi1L_10empack_lib6empack6buildsNtB6_17BuildOrchestrator22execute_build_pipeline0CsdrRwdeEzguW_17build_server_full
FNDA:1,_RNCNCNvMs_NtNtCs5BmVzKVgC1k_10empack_lib6empack6buildsNtB8_17BuildOrchestrator22execute_build_pipeline00Bc_
FNDA:0,_RNCNCNvMs_NtNtCs5BmVzKVgC1k_10empack_lib6empack6buildsNtB8_17BuildOrchestrator22execute_build_pipeline0s0_0Bc_
FNDA:0,_RNCNCNvMs_NtNtCs5BmVzKVgC1k_10empack_lib6empack6buildsNtB8_17BuildOrchestrator22execute_build_pipeline0s_0Bc_
FNDA:0,_RNCNvMs_NtNtCs5BmVzKVgC1k_10empack_lib6empack6buildsNtB6_17BuildOrchestrator12clean_target0Ba_
FNDA:0,_RNCNvMs_NtNtCs5BmVzKVgC1k_10empack_lib6empack6buildsNtB6_17BuildOrchestrator12clean_targets0_0Ba_
FNDA:0,_RNCNvMs_NtNtCs5BmVzKVgC1k_10empack_lib6empack6buildsNtB6_17BuildOrchestrator12clean_targets1_0Ba_
FNDA:0,_RNCNvMs_NtNtCs5BmVzKVgC1k_10empack_lib6empack6buildsNtB6_17BuildOrchestrator12clean_targets_0Ba_
FNDA:0,_RNCNvMs_NtNtCs5BmVzKVgC1k_10empack_lib6empack6buildsNtB6_17BuildOrchestrator12refresh_pack0Ba_
FNDA:0,_RNCNvMs_NtNtCs5BmVzKVgC1k_10empack_lib6empack6buildsNtB6_17BuildOrchestrator14extract_mrpack0Ba_
FNDA:0,_RNCNvMs_NtNtCs5BmVzKVgC1k_10empack_lib6empack6buildsNtB6_17BuildOrchestrator14extract_mrpacks0_0Ba_
FNDA:0,_RNCNvMs_NtNtCs5BmVzKVgC1k_10empack_lib6empack6buildsNtB6_17BuildOrchestrator14extract_mrpacks_0Ba_
FNDA:0,_RNCNvMs_NtNtCs5BmVzKVgC1k_10empack_lib6empack6buildsNtB6_17BuildOrchestrator14load_pack_info0Ba_
FNDA:7,_RNCNvMs_NtNtCs5BmVzKVgC1k_10empack_lib6empack6buildsNtB6_17BuildOrchestrator14load_pack_infos0_0Ba_
FNDA:7,_RNCNvMs_NtNtCs5BmVzKVgC1k_10empack_lib6empack6buildsNtB6_17BuildOrchestrator14load_pack_infos1_0Ba_
FNDA:7,_RNCNvMs_NtNtCs5BmVzKVgC1k_10empack_lib6empack6buildsNtB6_17BuildOrchestrator14load_pack_infos2_0Ba_
FNDA:7,_RNCNvMs_NtNtCs5BmVzKVgC1k_10empack_lib6empack6buildsNtB6_17BuildOrchestrator14load_pack_infos3_0Ba_
FNDA:7,_RNCNvMs_NtNtCs5BmVzKVgC1k_10empack_lib6empack6buildsNtB6_17BuildOrchestrator14load_pack_infos4_0Ba_
FNDA:7,_RNCNvMs_NtNtCs5BmVzKVgC1k_10empack_lib6empack6buildsNtB6_17BuildOrchestrator14load_pack_infos5_0Ba_
FNDA:7,_RNCNvMs_NtNtCs5BmVzKVgC1k_10empack_lib6empack6buildsNtB6_17BuildOrchestrator14load_pack_infos6_0Ba_
FNDA:1,_RNCNvMs_NtNtCs5BmVzKVgC1k_10empack_lib6empack6buildsNtB6_17BuildOrchestrator14load_pack_infos_0Ba_
FNDA:12,_RNCNvMs_NtNtCs5BmVzKVgC1k_10empack_lib6empack6buildsNtB6_17BuildOrchestrator15create_artifact0Ba_
FNDA:1,_RNCNvMs_NtNtCs5BmVzKVgC1k_10empack_lib6empack6buildsNtB6_17BuildOrchestrator15create_artifacts_0Ba_
FNDA:0,_RNCNvMs_NtNtCs5BmVzKVgC1k_10empack_lib6empack6buildsNtB6_17BuildOrchestrator16zip_distribution0Ba_
FNDA:7,_RNCNvMs_NtNtCs5BmVzKVgC1k_10empack_lib6empack6buildsNtB6_17BuildOrchestrator16zip_distributions0_0Ba_
FNDA:0,_RNCNvMs_NtNtCs5BmVzKVgC1k_10empack_lib6empack6buildsNtB6_17BuildOrchestrator16zip_distributions1_0Ba_
FNDA:0,_RNCNvMs_NtNtCs5BmVzKVgC1k_10empack_lib6empack6buildsNtB6_17BuildOrchestrator16zip_distributions_0Ba_
FNDA:0,_RNCNvMs_NtNtCs5BmVzKVgC1k_10empack_lib6empack6buildsNtB6_17BuildOrchestrator17build_client_impl0Ba_
FNDA:0,_RNCNvMs_NtNtCs5BmVzKVgC1k_10empack_lib6empack6buildsNtB6_17BuildOrchestrator17build_client_impls0_0Ba_
FNDA:0,_RNCNvMs_NtNtCs5BmVzKVgC1k_10empack_lib6empack6buildsNtB6_17BuildOrchestrator17build_client_impls1_0Ba_
FNDA:0,_RNCNvMs_NtNtCs5BmVzKVgC1k_10empack_lib6empack6buildsNtB6_17BuildOrchestrator17build_client_impls_0Ba_
FNDA:0,_RNCNvMs_NtNtCs5BmVzKVgC1k_10empack_lib6empack6buildsNtB6_17BuildOrchestrator17build_mrpack_impl0Ba_
FNDA:0,_RNCNvMs_NtNtCs5BmVzKVgC1k_10empack_lib6empack6buildsNtB6_17BuildOrchestrator17build_mrpack_impls0_0Ba_
FNDA:0,_RNCNvMs_NtNtCs5BmVzKVgC1k_10empack_lib6empack6buildsNtB6_17BuildOrchestrator17build_mrpack_impls_0Ba_
FNDA:0,_RNCNvMs_NtNtCs5BmVzKVgC1k_10empack_lib6empack6buildsNtB6_17BuildOrchestrator17build_server_impl0Ba_
FNDA:0,_RNCNvMs_NtNtCs5BmVzKVgC1k_10empack_lib6empack6buildsNtB6_17BuildOrchestrator17build_server_impls0_0Ba_
FNDA:0,_RNCNvMs_NtNtCs5BmVzKVgC1k_10empack_lib6empack6buildsNtB6_17BuildOrchestrator17build_server_impls_0Ba_
FNDA:0,_RNCNvMs_NtNtCs5BmVzKVgC1k_10empack_lib6empack6buildsNtB6_17BuildOrchestrator17copy_dir_contents0Ba_
FNDA:0,_RNCNvMs_NtNtCs5BmVzKVgC1k_10empack_lib6empack6buildsNtB6_17BuildOrchestrator17copy_dir_contentss0_0Ba_
FNDA:0,_RNCNvMs_NtNtCs5BmVzKVgC1k_10empack_lib6empack6buildsNtB6_17BuildOrchestrator17copy_dir_contentss1_0Ba_
FNDA:0,_RNCNvMs_NtNtCs5BmVzKVgC1k_10empack_lib6empack6buildsNtB6_17BuildOrchestrator17copy_dir_contentss_0Ba_
FNDA:0,_RNCNvMs_NtNtCs5BmVzKVgC1k_10empack_lib6empack6buildsNtB6_17BuildOrchestrator22build_client_full_impl0Ba_
FNDA:0,_RNCNvMs_NtNtCs5BmVzKVgC1k_10empack_lib6empack6buildsNtB6_17BuildOrchestrator22build_client_full_impls_0Ba_
FNDA:0,_RNCNvMs_NtNtCs5BmVzKVgC1k_10empack_lib6empack6buildsNtB6_17BuildOrchestrator22build_server_full_impl0Ba_
FNDA:0,_RNCNvMs_NtNtCs5BmVzKVgC1k_10empack_lib6empack6buildsNtB6_17BuildOrchestrator22build_server_full_impls_0Ba_
FNDA:4,_RNCNvMs_NtNtCs5BmVzKVgC1k_10empack_lib6empack6buildsNtB6_17BuildOrchestrator22execute_build_pipeline0Ba_
FNDA:0,_RNCNvMs_NtNtCs5BmVzKVgC1k_10empack_lib6empack6buildsNtB6_17BuildOrchestrator23process_build_templates0Ba_
FNDA:0,_RNCNvMs_NtNtCs5BmVzKVgC1k_10empack_lib6empack6buildsNtB6_17BuildOrchestrator23process_build_templatess0_0Ba_
FNDA:0,_RNCNvMs_NtNtCs5BmVzKVgC1k_10empack_lib6empack6buildsNtB6_17BuildOrchestrator23process_build_templatess_0Ba_
FNDA:0,_RNCNvMs_NtNtCs5BmVzKVgC1k_10empack_lib6empack6buildsNtB6_17BuildOrchestrator25prepare_build_environment0Ba_
FNDA:18,_RNCNvMs_NtNtCs5BmVzKVgC1k_10empack_lib6empack6buildsNtB6_17BuildOrchestrator3new0Ba_
FNDA:0,_RNCNCNvMs_NtNtCs5BmVzKVgC1k_10empack_lib6empack6buildsNtB8_17BuildOrchestrator22execute_clean_pipeline00Bc_
FNDA:0,_RNCNCNvMs_NtNtCs5BmVzKVgC1k_10empack_lib6empack6buildsNtB8_17BuildOrchestrator22execute_clean_pipeline0s_0Bc_
FNDA:0,_RNCNvMs_NtNtCs5BmVzKVgC1k_10empack_lib6empack6buildsNtB6_17BuildOrchestrator22execute_clean_pipeline0Ba_
FNDA:0,_RNvMs_NtNtCs5BmVzKVgC1k_10empack_lib6empack6buildsNtB4_17BuildOrchestrator22execute_clean_pipeline
FNDA:0,_RNvXNtNtCs5BmVzKVgC1k_10empack_lib6empack6buildsNtB2_17BuildOrchestratorNtNtCsj3QBrvpYeJs_4core3fmt5Debug3fmt
FNDA:8,_RNvMs_NtNtCs5BmVzKVgC1k_10empack_lib6empack6buildsNtB4_17BuildOrchestrator12clean_target
FNDA:11,_RNvMs_NtNtCs5BmVzKVgC1k_10empack_lib6empack6buildsNtB4_17BuildOrchestrator12refresh_pack
FNDA:5,_RNvMs_NtNtCs5BmVzKVgC1k_10empack_lib6empack6buildsNtB4_17BuildOrchestrator14extract_mrpack
FNDA:17,_RNvMs_NtNtCs5BmVzKVgC1k_10empack_lib6empack6buildsNtB4_17BuildOrchestrator14load_pack_info
FNDA:12,_RNvMs_NtNtCs5BmVzKVgC1k_10empack_lib6empack6buildsNtB4_17BuildOrchestrator15create_artifact
FNDA:7,_RNvMs_NtNtCs5BmVzKVgC1k_10empack_lib6empack6buildsNtB4_17BuildOrchestrator16zip_distribution
FNDA:3,_RNvMs_NtNtCs5BmVzKVgC1k_10empack_lib6empack6buildsNtB4_17BuildOrchestrator17build_client_impl
FNDA:4,_RNvMs_NtNtCs5BmVzKVgC1k_10empack_lib6empack6buildsNtB4_17BuildOrchestrator17build_mrpack_impl
FNDA:2,_RNvMs_NtNtCs5BmVzKVgC1k_10empack_lib6empack6buildsNtB4_17BuildOrchestrator17build_server_impl
FNDA:9,_RNvMs_NtNtCs5BmVzKVgC1k_10empack_lib6empack6buildsNtB4_17BuildOrchestrator17copy_dir_contents
FNDA:1,_RNvMs_NtNtCs5BmVzKVgC1k_10empack_lib6empack6buildsNtB4_17BuildOrchestrator21create_build_registry
FNDA:1,_RNvMs_NtNtCs5BmVzKVgC1k_10empack_lib6empack6buildsNtB4_17BuildOrchestrator22build_client_full_impl
FNDA:1,_RNvMs_NtNtCs5BmVzKVgC1k_10empack_lib6empack6buildsNtB4_17BuildOrchestrator22build_server_full_impl
FNDA:4,_RNvMs_NtNtCs5BmVzKVgC1k_10empack_lib6empack6buildsNtB4_17BuildOrchestrator22execute_build_pipeline
FNDA:8,_RNvMs_NtNtCs5BmVzKVgC1k_10empack_lib6empack6buildsNtB4_17BuildOrchestrator23process_build_templates
FNDA:5,_RNvMs_NtNtCs5BmVzKVgC1k_10empack_lib6empack6buildsNtB4_17BuildOrchestrator25prepare_build_environment
FNDA:18,_RNvMs_NtNtCs5BmVzKVgC1k_10empack_lib6empack6buildsNtB4_17BuildOrchestrator3new
FNDA:0,_RNCNCNvMs_NtNtCshmQA5Mrgi1L_10empack_lib6empack6buildsNtB8_17BuildOrchestrator22execute_build_pipeline00CsaTeXJNQleyZ_12hermetic_e2e
FNDA:0,_RNCNCNvMs_NtNtCshmQA5Mrgi1L_10empack_lib6empack6buildsNtB8_17BuildOrchestrator22execute_build_pipeline0s0_0CsaTeXJNQleyZ_12hermetic_e2e
FNDA:0,_RNCNCNvMs_NtNtCshmQA5Mrgi1L_10empack_lib6empack6buildsNtB8_17BuildOrchestrator22execute_build_pipeline0s_0CsaTeXJNQleyZ_12hermetic_e2e
FNDA:1,_RNCNvMs_NtNtCshmQA5Mrgi1L_10empack_lib6empack6buildsNtB6_17BuildOrchestrator22execute_build_pipeline0CsaTeXJNQleyZ_12hermetic_e2e
FNF:72
FNH:32
DA:54,0
DA:55,0
DA:56,0
DA:57,0
DA:58,0
DA:59,0
DA:60,0
DA:61,0
DA:62,0
DA:63,0
DA:104,28
DA:105,28
DA:106,28
DA:107,28
DA:108,28
DA:109,28
DA:110,28
DA:111,28
DA:112,27
DA:113,27
DA:114,27
DA:115,27
DA:116,27
DA:117,28
DA:119,28
DA:120,28
DA:121,28
DA:122,28
DA:123,28
DA:124,28
DA:125,28
DA:126,28
DA:127,28
DA:130,33
DA:131,33
DA:132,17
DA:133,16
DA:135,16
DA:136,16
DA:137,16
DA:138,1
DA:139,1
DA:140,1
DA:141,15
DA:143,15
DA:144,15
DA:145,15
DA:146,15
DA:147,0
DA:148,0
DA:149,14
DA:150,15
DA:151,1
DA:152,1
DA:154,14
DA:155,14
DA:156,14
DA:157,14
DA:158,14
DA:160,14
DA:161,14
DA:162,14
DA:163,14
DA:164,14
DA:166,14
DA:167,14
DA:168,14
DA:169,14
DA:170,14
DA:172,14
DA:173,14
DA:174,14
DA:175,14
DA:176,14
DA:177,14
DA:179,14
DA:180,14
DA:181,14
DA:182,14
DA:183,14
DA:184,14
DA:186,14
DA:187,14
DA:188,14
DA:189,14
DA:190,14
DA:191,14
DA:192,14
DA:194,14
DA:195,33
DA:198,1
DA:199,1
DA:202,1
DA:203,1
DA:204,1
DA:205,1
DA:206,1
DA:207,1
DA:208,1
DA:209,1
DA:213,1
DA:214,1
DA:215,1
DA:216,1
DA:217,1
DA:218,1
DA:219,1
DA:220,1
DA:224,1
DA:225,1
DA:226,1
DA:227,1
DA:228,1
DA:229,1
DA:230,1
DA:231,1
DA:235,1
DA:236,1
DA:237,1
DA:238,1
DA:239,1
DA:240,1
DA:241,1
DA:242,1
DA:246,1
DA:247,1
DA:248,1
DA:249,1
DA:250,1
DA:251,1
DA:252,1
DA:253,1
DA:256,1
DA:257,1
DA:260,23
DA:261,23
DA:262,10
DA:263,13
DA:265,13
DA:266,13
DA:267,0
DA:268,0
DA:269,0
DA:270,13
DA:272,13
DA:273,13
DA:274,13
DA:275,13
DA:276,13
DA:277,13
DA:278,13
DA:280,13
DA:281,0
DA:282,0
DA:284,13
DA:285,0
DA:286,0
DA:287,0
DA:288,13
DA:290,13
DA:291,13
DA:292,23
DA:295,7
DA:296,7
DA:297,2
DA:298,5
DA:300,5
DA:301,5
DA:302,5
DA:303,5
DA:305,5
DA:307,5
DA:308,0
DA:310,5
DA:311,5
DA:312,0
DA:313,0
DA:314,0
DA:315,0
DA:316,0
DA:317,0
DA:318,5
DA:319,5
DA:320,5
DA:321,5
DA:322,5
DA:323,0
DA:324,0
DA:327,5
DA:328,5
DA:329,5
DA:330,5
DA:331,5
DA:332,5
DA:333,5
DA:334,5
DA:335,5
DA:336,5
DA:337,5
DA:338,5
DA:340,5
DA:341,0
DA:342,0
DA:344,5
DA:345,0
DA:346,0
DA:347,0
DA:348,5
DA:350,5
DA:351,5
DA:352,7
DA:355,9
DA:356,9
DA:357,9
DA:358,9
DA:359,9
DA:360,0
DA:361,0
DA:363,9
DA:364,9
DA:365,9
DA:368,9
DA:370,9
DA:373,9
DA:374,0
DA:375,0
DA:376,0
DA:377,0
DA:378,0
DA:379,0
DA:380,9
DA:383,9
DA:384,9
DA:385,9
DA:386,9
DA:387,9
DA:388,9
DA:390,9
DA:391,0
DA:392,0
DA:393,0
DA:394,9
DA:397,9
DA:398,9
DA:399,9
DA:400,9
DA:401,9
DA:402,0
DA:403,0
DA:405,9
DA:406,0
DA:407,0
DA:408,0
DA:409,9
DA:411,9
DA:412,9
DA:415,7
DA:416,7
DA:418,7
DA:419,7
DA:420,7
DA:421,7
DA:422,7
DA:425,7
DA:426,7
DA:427,7
DA:428,7
DA:429,0
DA:430,0
DA:433,7
DA:434,0
DA:435,0
DA:436,0
DA:437,0
DA:438,0
DA:439,0
DA:440,7
DA:443,7
DA:444,7
DA:445,7
DA:446,7
DA:447,7
DA:448,7
DA:449,7
DA:450,7
DA:451,7
DA:452,7
DA:453,7
DA:454,7
DA:455,7
DA:456,7
DA:458,7
DA:459,0
DA:460,0
DA:462,7
DA:463,0
DA:464,0
DA:465,0
DA:466,0
DA:467,0
DA:468,0
DA:469,0
DA:470,7
DA:472,7
DA:474,7
DA:475,7
DA:476,7
DA:477,7
DA:478,7
DA:479,7
DA:480,7
DA:481,7
DA:484,3
DA:486,3
DA:488,3
DA:490,3
DA:491,3
DA:492,3
DA:493,3
DA:494,3
DA:495,0
DA:496,0
DA:499,3
DA:502,3
DA:503,3
DA:504,3
DA:505,3
DA:506,3
DA:507,0
DA:508,0
DA:511,3
DA:512,3
DA:513,3
DA:514,3
DA:515,3
DA:516,0
DA:517,0
DA:518,3
DA:519,3
DA:520,3
DA:521,3
DA:522,3
DA:524,3
DA:525,0
DA:526,0
DA:529,3
DA:530,3
DA:533,3
DA:534,3
DA:535,3
DA:536,3
DA:537,0
DA:538,3
DA:541,3
DA:542,3
DA:544,3
DA:545,3
DA:546,3
DA:547,3
DA:548,3
DA:549,3
DA:550,3
DA:551,3
DA:554,5
DA:556,5
DA:559,5
DA:561,5
DA:562,5
DA:563,5
DA:564,5
DA:565,5
DA:566,0
DA:567,0
DA:570,5
DA:573,5
DA:574,5
DA:577,5
DA:578,5
DA:579,5
DA:580,5
DA:581,5
DA:582,1
DA:583,1
DA:584,4
DA:585,4
DA:586,4
DA:587,4
DA:588,4
DA:590,4
DA:591,0
DA:592,0
DA:595,4
DA:596,4
DA:597,4
DA:598,4
DA:600,4
DA:601,4
DA:602,4
DA:603,4
DA:606,4
DA:607,4
DA:608,4
DA:609,4
DA:610,0
DA:611,0
DA:612,0
DA:613,0
DA:614,0
DA:615,0
DA:616,0
DA:617,0
DA:618,0
DA:619,0
DA:620,0
DA:622,0
DA:623,0
DA:624,0
DA:625,0
DA:626,0
DA:627,0
DA:628,0
DA:629,0
DA:630,0
DA:631,0
DA:632,0
DA:637,4
DA:640,4
DA:641,4
DA:642,4
DA:643,2
DA:644,2
DA:647,4
DA:648,4
DA:650,4
DA:651,4
DA:652,4
DA:653,4
DA:654,4
DA:655,4
DA:656,4
DA:657,5
DA:660,4
DA:661,4
DA:662,4
DA:663,4
DA:665,4
DA:668,4
DA:670,4
DA:671,4
DA:672,4
DA:673,4
DA:674,4
DA:675,0
DA:676,0
DA:681,4
DA:682,4
DA:685,4
DA:686,4
DA:687,4
DA:688,4
DA:689,4
DA:690,4
DA:691,4
DA:692,4
DA:693,4
DA:694,4
DA:695,4
DA:696,4
DA:697,4
DA:698,4
DA:699,4
DA:701,4
DA:702,0
DA:703,0
DA:705,4
DA:706,3
DA:707,3
DA:708,3
DA:709,3
DA:710,3
DA:711,3
DA:712,3
DA:713,3
DA:714,3
DA:715,3
DA:716,1
DA:719,1
DA:720,1
DA:722,1
DA:723,1
DA:724,1
DA:725,1
DA:726,1
DA:727,1
DA:728,1
DA:729,4
DA:732,4
DA:733,4
DA:734,4
DA:735,4
DA:737,4
DA:740,4
DA:742,4
DA:743,4
DA:744,4
DA:745,4
DA:746,4
DA:747,0
DA:748,0
DA:751,4
DA:754,4
DA:755,4
DA:756,4
DA:757,4
DA:759,4
DA:760,4
DA:761,4
DA:762,4
DA:765,4
DA:766,4
DA:767,4
DA:768,4
DA:769,0
DA:770,0
DA:771,0
DA:772,0
DA:773,0
DA:774,0
DA:775,0
DA:776,0
DA:777,0
DA:778,0
DA:779,0
DA:781,0
DA:782,0
DA:783,0
DA:784,0
DA:785,0
DA:786,0
DA:787,0
DA:788,0
DA:789,0
DA:790,0
DA:791,0
DA:798,4
DA:799,4
DA:802,4
DA:803,4
DA:804,4
DA:805,4
DA:806,4
DA:807,4
DA:808,4
DA:809,4
DA:810,4
DA:811,4
DA:812,4
DA:813,4
DA:814,4
DA:815,4
DA:816,4
DA:818,4
DA:819,0
DA:820,0
DA:822,4
DA:823,3
DA:824,3
DA:825,3
DA:826,3
DA:827,3
DA:828,3
DA:829,3
DA:830,3
DA:831,3
DA:832,3
DA:833,1
DA:836,1
DA:837,1
DA:839,1
DA:840,1
DA:841,1
DA:842,1
DA:843,1
DA:844,1
DA:845,1
DA:846,4
DA:849,14
DA:850,14
DA:851,14
DA:852,14
DA:854,14
DA:855,14
DA:856,14
DA:857,14
DA:858,1
DA:859,1
DA:861,13
DA:864,13
DA:865,13
DA:866,13
DA:867,13
DA:868,13
DA:869,0
DA:870,0
DA:872,13
DA:874,30
DA:875,18
DA:876,2
DA:877,3
DA:878,5
DA:879,4
DA:880,4
DA:882,17
DA:886,12
DA:887,12
DA:888,12
DA:889,12
DA:890,0
DA:891,0
DA:893,12
DA:894,14
DA:897,0
DA:898,0
DA:899,0
DA:900,0
DA:902,0
DA:903,0
DA:904,0
DA:905,0
DA:906,0
DA:907,0
DA:910,0
DA:911,0
DA:915,0
DA:916,0
DA:917,0
DA:918,0
DA:919,0
DA:920,0
DA:922,0
DA:923,0
DA:926,15
DA:928,15
DA:929,15
DA:930,1
DA:931,1
DA:932,1
DA:933,14
DA:936,14
DA:937,14
DA:938,14
DA:939,14
DA:940,0
DA:941,0
DA:945,14
DA:946,15
DA:949,17
DA:950,17
DA:952,17
DA:955,17
DA:956,1
DA:957,1
DA:958,1
DA:959,1
DA:960,1
DA:961,0
DA:962,0
DA:963,3
DA:964,2
DA:965,2
DA:966,1
DA:967,0
DA:968,0
DA:969,0
DA:970,0
DA:971,0
DA:972,0
DA:974,1
DA:975,1
DA:976,1
DA:977,1
DA:978,0
DA:979,0
DA:981,1
DA:982,0
DA:984,16
DA:987,17
DA:988,6
DA:989,6
DA:990,6
DA:991,6
DA:992,6
DA:993,6
DA:994,6
DA:995,1
DA:996,1
DA:997,1
DA:998,1
DA:999,0
DA:1000,0
DA:1001,5
DA:1002,11
DA:1004,17
DA:1005,17
DA:1008,14
DA:1009,14
DA:1010,14
DA:1011,14
DA:1012,14
DA:1013,14
DA:1014,14
DA:1016,7
DA:1017,7
DA:1019,7
DA:1021,7
DA:1022,7
DA:1023,7
DA:1024,7
DA:1025,7
DA:1026,18
DA:1027,11
DA:1028,11
DA:1029,11
DA:1030,11
DA:1032,0
DA:1035,11
DA:1036,11
DA:1037,11
DA:1038,11
DA:1039,11
DA:1040,0
DA:1041,0
DA:1044,11
DA:1045,11
DA:1046,11
DA:1047,11
DA:1048,11
DA:1049,11
DA:1051,11
DA:1052,11
DA:1053,11
DA:1054,11
DA:1055,0
DA:1056,0
DA:1057,0
DA:1060,7
DA:1061,14
DA:1064,21
DA:1065,21
DA:1066,21
DA:1067,21
DA:1068,21
DA:1069,0
DA:1070,0
DA:1072,21
DA:1073,21
DA:1074,21
DA:1075,21
DA:1076,21
DA:1077,0
DA:1078,0
DA:1079,59
DA:1080,38
DA:1081,38
DA:1083,38
DA:1084,2
DA:1086,36
DA:1087,36
DA:1088,36
DA:1089,36
DA:1090,36
DA:1091,0
DA:1092,0
DA:1093,36
DA:1094,36
DA:1095,36
DA:1096,36
DA:1097,0
DA:1098,0
DA:1102,21
DA:1103,21
DA:1106,17
DA:1107,17
DA:1108,17
DA:1109,17
DA:1110,17
DA:1111,17
DA:1114,17
DA:1115,5
DA:1116,5
DA:1117,5
DA:1118,5
DA:1119,5
DA:1121,12
DA:1124,17
DA:1125,17
DA:1126,17
DA:1127,17
DA:1128,17
DA:1129,17
BRF:0
BRH:0
LF:853
LH:609
end_of_record
SF:/Users/zer0cell/production/empack/crates/empack-lib/src/empack/builds.test.rs
FN:111,_RNCNvMNtNtNtCs5BmVzKVgC1k_10empack_lib6empack6builds5testsNtB4_21MockBuildOrchestrator15setup_templates0Ba_
FN:122,_RNCNvMNtNtNtCs5BmVzKVgC1k_10empack_lib6empack6builds5testsNtB4_21MockBuildOrchestrator15setup_templatess_0Ba_
FN:45,_RNCNvMNtNtNtCs5BmVzKVgC1k_10empack_lib6empack6builds5testsNtB4_21MockBuildOrchestrator26setup_basic_pack_structure0Ba_
FN:69,_RNCNvMNtNtNtCs5BmVzKVgC1k_10empack_lib6empack6builds5testsNtB4_21MockBuildOrchestrator26setup_basic_pack_structures0_0Ba_
FN:73,_RNCNvMNtNtNtCs5BmVzKVgC1k_10empack_lib6empack6builds5testsNtB4_21MockBuildOrchestrator26setup_basic_pack_structures1_0Ba_
FN:87,_RNCNvMNtNtNtCs5BmVzKVgC1k_10empack_lib6empack6builds5testsNtB4_21MockBuildOrchestrator26setup_basic_pack_structures2_0Ba_
FN:58,_RNCNvMNtNtNtCs5BmVzKVgC1k_10empack_lib6empack6builds5testsNtB4_21MockBuildOrchestrator26setup_basic_pack_structures_0Ba_
FN:132,_RNCNvMNtNtNtCs5BmVzKVgC1k_10empack_lib6empack6builds5testsNtB4_21MockBuildOrchestrator18create_mock_mrpack0Ba_
FN:136,_RNCNvMNtNtNtCs5BmVzKVgC1k_10empack_lib6empack6builds5testsNtB4_21MockBuildOrchestrator18create_mock_mrpacks_0Ba_
FN:97,_RNCNvMNtNtNtCs5BmVzKVgC1k_10empack_lib6empack6builds5testsNtB4_21MockBuildOrchestrator25setup_installer_structure0Ba_
FN:101,_RNCNvMNtNtNtCs5BmVzKVgC1k_10empack_lib6empack6builds5testsNtB4_21MockBuildOrchestrator25setup_installer_structures_0Ba_
FN:127,_RNvMNtNtNtCs5BmVzKVgC1k_10empack_lib6empack6builds5testsNtB2_21MockBuildOrchestrator18create_mock_mrpack
FN:92,_RNvMNtNtNtCs5BmVzKVgC1k_10empack_lib6empack6builds5testsNtB2_21MockBuildOrchestrator25setup_installer_structure
FN:33,_RNvMNtNtNtCs5BmVzKVgC1k_10empack_lib6empack6builds5testsNtB2_21MockBuildOrchestrator12orchestrator
FN:106,_RNvMNtNtNtCs5BmVzKVgC1k_10empack_lib6empack6builds5testsNtB2_21MockBuildOrchestrator15setup_templates
FN:37,_RNvMNtNtNtCs5BmVzKVgC1k_10empack_lib6empack6builds5testsNtB2_21MockBuildOrchestrator26setup_basic_pack_structure
FN:15,_RNvMNtNtNtCs5BmVzKVgC1k_10empack_lib6empack6builds5testsNtB2_21MockBuildOrchestrator3new
FN:141,_RNvMNtNtNtCs5BmVzKVgC1k_10empack_lib6empack6builds5testsNtB2_21MockBuildOrchestrator7workdir
FN:146,_RNvNtNtNtCs5BmVzKVgC1k_10empack_lib6empack6builds5tests24create_test_orchestrator
FN:373,_RNvNtNtNtCs5BmVzKVgC1k_10empack_lib6empack6builds5testss_17test_clean_target
FN:153,_RNvNtNtNtCs5BmVzKVgC1k_10empack_lib6empack6builds5testss_19test_build_registry
FN:201,_RNvNtNtNtCs5BmVzKVgC1k_10empack_lib6empack6builds5testss_19test_load_pack_info
FN:355,_RNvNtNtNtCs5BmVzKVgC1k_10empack_lib6empack6builds5testss_20test_create_artifact
FN:322,_RNvNtNtNtCs5BmVzKVgC1k_10empack_lib6empack6builds5testss_22test_copy_dir_contents
FN:440,_RNvNtNtNtCs5BmVzKVgC1k_10empack_lib6empack6builds5testss_24test_pack_info_structure
FN:409,_RNvNtNtNtCs5BmVzKVgC1k_10empack_lib6empack6builds5testss_27test_build_result_structure
FN:254,_RNvNtNtNtCs5BmVzKVgC1k_10empack_lib6empack6builds5testss_27test_load_pack_info_caching
FN:275,_RNvNtNtNtCs5BmVzKVgC1k_10empack_lib6empack6builds5testss_28test_process_build_templates
FN:427,_RNvNtNtNtCs5BmVzKVgC1k_10empack_lib6empack6builds5testss_29test_build_artifact_structure
FN:177,_RNvNtNtNtCs5BmVzKVgC1k_10empack_lib6empack6builds5testss_30test_prepare_build_environment
FN:231,_RNvNtNtNtCs5BmVzKVgC1k_10empack_lib6empack6builds5testss_32test_load_pack_info_invalid_toml
FN:216,_RNvNtNtNtCs5BmVzKVgC1k_10empack_lib6empack6builds5testss_32test_load_pack_info_missing_file
FN:305,_RNvNtNtNtCs5BmVzKVgC1k_10empack_lib6empack6builds5testss_46test_process_build_templates_missing_directory
FNDA:0,_RNCNvMNtNtNtCs5BmVzKVgC1k_10empack_lib6empack6builds5testsNtB4_21MockBuildOrchestrator15setup_templates0Ba_
FNDA:0,_RNCNvMNtNtNtCs5BmVzKVgC1k_10empack_lib6empack6builds5testsNtB4_21MockBuildOrchestrator15setup_templatess_0Ba_
FNDA:0,_RNCNvMNtNtNtCs5BmVzKVgC1k_10empack_lib6empack6builds5testsNtB4_21MockBuildOrchestrator26setup_basic_pack_structure0Ba_
FNDA:0,_RNCNvMNtNtNtCs5BmVzKVgC1k_10empack_lib6empack6builds5testsNtB4_21MockBuildOrchestrator26setup_basic_pack_structures0_0Ba_
FNDA:0,_RNCNvMNtNtNtCs5BmVzKVgC1k_10empack_lib6empack6builds5testsNtB4_21MockBuildOrchestrator26setup_basic_pack_structures1_0Ba_
FNDA:0,_RNCNvMNtNtNtCs5BmVzKVgC1k_10empack_lib6empack6builds5testsNtB4_21MockBuildOrchestrator26setup_basic_pack_structures2_0Ba_
FNDA:0,_RNCNvMNtNtNtCs5BmVzKVgC1k_10empack_lib6empack6builds5testsNtB4_21MockBuildOrchestrator26setup_basic_pack_structures_0Ba_
FNDA:0,_RNCNvMNtNtNtCs5BmVzKVgC1k_10empack_lib6empack6builds5testsNtB4_21MockBuildOrchestrator18create_mock_mrpack0Ba_
FNDA:0,_RNCNvMNtNtNtCs5BmVzKVgC1k_10empack_lib6empack6builds5testsNtB4_21MockBuildOrchestrator18create_mock_mrpacks_0Ba_
FNDA:0,_RNCNvMNtNtNtCs5BmVzKVgC1k_10empack_lib6empack6builds5testsNtB4_21MockBuildOrchestrator25setup_installer_structure0Ba_
FNDA:0,_RNCNvMNtNtNtCs5BmVzKVgC1k_10empack_lib6empack6builds5testsNtB4_21MockBuildOrchestrator25setup_installer_structures_0Ba_
FNDA:0,_RNvMNtNtNtCs5BmVzKVgC1k_10empack_lib6empack6builds5testsNtB2_21MockBuildOrchestrator18create_mock_mrpack
FNDA:0,_RNvMNtNtNtCs5BmVzKVgC1k_10empack_lib6empack6builds5testsNtB2_21MockBuildOrchestrator25setup_installer_structure
FNDA:8,_RNvMNtNtNtCs5BmVzKVgC1k_10empack_lib6empack6builds5testsNtB2_21MockBuildOrchestrator12orchestrator
FNDA:1,_RNvMNtNtNtCs5BmVzKVgC1k_10empack_lib6empack6builds5testsNtB2_21MockBuildOrchestrator15setup_templates
FNDA:6,_RNvMNtNtNtCs5BmVzKVgC1k_10empack_lib6empack6builds5testsNtB2_21MockBuildOrchestrator26setup_basic_pack_structure
FNDA:8,_RNvMNtNtNtCs5BmVzKVgC1k_10empack_lib6empack6builds5testsNtB2_21MockBuildOrchestrator3new
FNDA:6,_RNvMNtNtNtCs5BmVzKVgC1k_10empack_lib6empack6builds5testsNtB2_21MockBuildOrchestrator7workdir
FNDA:2,_RNvNtNtNtCs5BmVzKVgC1k_10empack_lib6empack6builds5tests24create_test_orchestrator
FNDA:1,_RNvNtNtNtCs5BmVzKVgC1k_10empack_lib6empack6builds5testss_17test_clean_target
FNDA:1,_RNvNtNtNtCs5BmVzKVgC1k_10empack_lib6empack6builds5testss_19test_build_registry
FNDA:1,_RNvNtNtNtCs5BmVzKVgC1k_10empack_lib6empack6builds5testss_19test_load_pack_info
FNDA:1,_RNvNtNtNtCs5BmVzKVgC1k_10empack_lib6empack6builds5testss_20test_create_artifact
FNDA:1,_RNvNtNtNtCs5BmVzKVgC1k_10empack_lib6empack6builds5testss_22test_copy_dir_contents
FNDA:1,_RNvNtNtNtCs5BmVzKVgC1k_10empack_lib6empack6builds5testss_24test_pack_info_structure
FNDA:1,_RNvNtNtNtCs5BmVzKVgC1k_10empack_lib6empack6builds5testss_27test_build_result_structure
FNDA:1,_RNvNtNtNtCs5BmVzKVgC1k_10empack_lib6empack6builds5testss_27test_load_pack_info_caching
FNDA:1,_RNvNtNtNtCs5BmVzKVgC1k_10empack_lib6empack6builds5testss_28test_process_build_templates
FNDA:1,_RNvNtNtNtCs5BmVzKVgC1k_10empack_lib6empack6builds5testss_29test_build_artifact_structure
FNDA:1,_RNvNtNtNtCs5BmVzKVgC1k_10empack_lib6empack6builds5testss_30test_prepare_build_environment
FNDA:1,_RNvNtNtNtCs5BmVzKVgC1k_10empack_lib6empack6builds5testss_32test_load_pack_info_invalid_toml
FNDA:1,_RNvNtNtNtCs5BmVzKVgC1k_10empack_lib6empack6builds5testss_32test_load_pack_info_missing_file
FNDA:1,_RNvNtNtNtCs5BmVzKVgC1k_10empack_lib6empack6builds5testss_46test_process_build_templates_missing_directory
FNF:33
FNH:20
DA:15,8
DA:16,8
DA:17,8
DA:20,8
DA:21,8
DA:22,8
DA:23,8
DA:26,8
DA:27,8
DA:28,8
DA:29,8
DA:30,8
DA:31,8
DA:33,8
DA:34,8
DA:35,8
DA:37,6
DA:38,6
DA:41,6
DA:44,6
DA:45,6
DA:48,6
DA:49,6
DA:50,6
DA:51,6
DA:52,6
DA:53,6
DA:54,6
DA:55,6
DA:56,6
DA:57,6
DA:58,6
DA:61,6
DA:62,6
DA:63,6
DA:64,6
DA:65,6
DA:66,6
DA:67,6
DA:68,6
DA:69,6
DA:72,6
DA:73,6
DA:76,6
DA:77,6
DA:78,6
DA:79,6
DA:80,6
DA:81,6
DA:82,6
DA:83,6
DA:84,6
DA:85,6
DA:86,6
DA:87,6
DA:89,6
DA:90,6
DA:92,0
DA:93,0
DA:94,0
DA:96,0
DA:97,0
DA:100,0
DA:101,0
DA:103,0
DA:104,0
DA:106,1
DA:107,1
DA:108,1
DA:110,1
DA:111,1
DA:114,1
DA:115,1
DA:116,1
DA:117,1
DA:118,1
DA:119,1
DA:120,1
DA:121,1
DA:122,1
DA:124,1
DA:125,1
DA:127,0
DA:128,0
DA:129,0
DA:131,0
DA:132,0
DA:135,0
DA:136,0
DA:138,0
DA:139,0
DA:141,6
DA:142,6
DA:143,6
DA:146,2
DA:147,2
DA:148,2
DA:149,2
DA:150,2
DA:153,1
DA:154,1
DA:155,1
DA:156,1
DA:157,1
DA:158,1
DA:159,1
DA:160,1
DA:163,1
DA:164,1
DA:165,1
DA:167,1
DA:168,1
DA:169,1
DA:171,1
DA:172,1
DA:173,1
DA:174,1
DA:177,1
DA:178,1
DA:179,1
DA:182,1
DA:183,1
DA:184,1
DA:185,1
DA:186,1
DA:188,0
DA:192,1
DA:196,1
DA:197,1
DA:198,1
DA:201,1
DA:202,1
DA:203,1
DA:205,1
DA:206,1
DA:208,1
DA:209,1
DA:210,1
DA:211,1
DA:212,1
DA:213,1
DA:216,1
DA:217,1
DA:218,1
DA:220,1
DA:221,1
DA:222,1
DA:223,1
DA:224,1
DA:226,0
DA:228,1
DA:231,1
DA:232,1
DA:235,1
DA:236,1
DA:237,1
DA:238,1
DA:239,1
DA:240,1
DA:242,1
DA:243,1
DA:244,1
DA:245,1
DA:246,1
DA:247,1
DA:249,0
DA:251,1
DA:254,1
DA:255,1
DA:256,1
DA:258,1
DA:261,1
DA:262,1
DA:263,1
DA:266,1
DA:267,1
DA:268,1
DA:271,1
DA:272,1
DA:275,1
DA:276,1
DA:277,1
DA:278,1
DA:280,1
DA:281,1
DA:284,1
DA:285,1
DA:286,1
DA:289,1
DA:290,1
DA:293,1
DA:294,1
DA:296,1
DA:297,1
DA:298,1
DA:299,1
DA:300,1
DA:301,1
DA:302,1
DA:305,1
DA:306,1
DA:307,1
DA:309,1
DA:310,1
DA:312,1
DA:313,1
DA:314,1
DA:317,1
DA:318,1
DA:319,1
DA:322,1
DA:323,1
DA:324,1
DA:326,1
DA:327,1
DA:330,1
DA:331,1
DA:332,1
DA:333,1
DA:334,1
DA:336,1
DA:337,1
DA:338,1
DA:341,1
DA:342,1
DA:343,1
DA:346,1
DA:347,1
DA:348,1
DA:350,1
DA:351,1
DA:352,1
DA:355,1
DA:356,1
DA:357,1
DA:358,1
DA:361,1
DA:362,1
DA:363,1
DA:364,1
DA:366,1
DA:367,1
DA:368,1
DA:369,1
DA:370,1
DA:373,1
DA:374,1
DA:375,1
DA:377,1
DA:378,1
DA:381,1
DA:384,1
DA:385,1
DA:386,1
DA:387,1
DA:388,1
DA:391,1
DA:392,1
DA:395,1
DA:396,1
DA:399,1
DA:400,1
DA:401,1
DA:402,1
DA:409,1
DA:411,1
DA:412,1
DA:413,1
DA:414,1
DA:415,1
DA:416,1
DA:417,1
DA:419,1
DA:420,1
DA:421,1
DA:422,1
DA:423,1
DA:424,1
DA:427,1
DA:428,1
DA:429,1
DA:430,1
DA:431,1
DA:432,1
DA:434,1
DA:435,1
DA:436,1
DA:437,1
DA:440,1
DA:441,1
DA:442,1
DA:443,1
DA:444,1
DA:445,1
DA:446,1
DA:447,1
DA:449,1
DA:450,1
DA:451,1
DA:452,1
DA:453,1
DA:454,1
BRF:0
BRH:0
LF:313
LH:281
end_of_record
SF:/Users/zer0cell/production/empack/crates/empack-lib/src/empack/config.rs
FN:177,_RNvMNtNtCshmQA5Mrgi1L_10empack_lib6empack6configNtB2_13ConfigManager18load_empack_config
FN:193,_RNvMNtNtCshmQA5Mrgi1L_10empack_lib6empack6configNtB2_13ConfigManager18load_pack_metadata
FN:207,_RNvMNtNtCshmQA5Mrgi1L_10empack_lib6empack6configNtB2_13ConfigManager19create_project_plan
FN:451,_RNvMNtNtCshmQA5Mrgi1L_10empack_lib6empack6configNtB2_13ConfigManager20validate_consistency
FN:334,_RNvMNtNtCshmQA5Mrgi1L_10empack_lib6empack6configNtB2_13ConfigManager21parse_dependency_spec
FN:281,_RNvMNtNtCshmQA5Mrgi1L_10empack_lib6empack6configNtB2_13ConfigManager26infer_loader_from_metadata
FN:416,_RNvMNtNtCshmQA5Mrgi1L_10empack_lib6empack6configNtB2_13ConfigManager27generate_default_empack_yml
FN:310,_RNvMNtNtCshmQA5Mrgi1L_10empack_lib6empack6configNtB2_13ConfigManager32get_loader_version_from_metadata
FN:166,_RNvMNtNtCshmQA5Mrgi1L_10empack_lib6empack6configNtB2_13ConfigManager3new
FN:216,_RNCNCNvMNtNtCshmQA5Mrgi1L_10empack_lib6empack6configNtB6_13ConfigManager19create_project_plan00Ba_
FN:223,_RNCNCNvMNtNtCshmQA5Mrgi1L_10empack_lib6empack6configNtB6_13ConfigManager19create_project_plans0_00Ba_
FN:229,_RNCNCNvMNtNtCshmQA5Mrgi1L_10empack_lib6empack6configNtB6_13ConfigManager19create_project_plans1_00Ba_
FN:236,_RNCNCNvMNtNtCshmQA5Mrgi1L_10empack_lib6empack6configNtB6_13ConfigManager19create_project_plans2_00Ba_
FN:216,_RNCNvMNtNtCshmQA5Mrgi1L_10empack_lib6empack6configNtB4_13ConfigManager19create_project_plan0B8_
FN:223,_RNCNvMNtNtCshmQA5Mrgi1L_10empack_lib6empack6configNtB4_13ConfigManager19create_project_plans0_0B8_
FN:229,_RNCNvMNtNtCshmQA5Mrgi1L_10empack_lib6empack6configNtB4_13ConfigManager19create_project_plans1_0B8_
FN:236,_RNCNvMNtNtCshmQA5Mrgi1L_10empack_lib6empack6configNtB4_13ConfigManager19create_project_plans2_0B8_
FN:238,_RNCNvMNtNtCshmQA5Mrgi1L_10empack_lib6empack6configNtB4_13ConfigManager19create_project_plans3_0B8_
FN:217,_RNCNvMNtNtCshmQA5Mrgi1L_10empack_lib6empack6configNtB4_13ConfigManager19create_project_plans_0B8_
FN:441,_RNCNvMNtNtCshmQA5Mrgi1L_10empack_lib6empack6configNtB4_13ConfigManager27generate_default_empack_yml0B8_
FN:443,_RNCNvMNtNtCshmQA5Mrgi1L_10empack_lib6empack6configNtB4_13ConfigManager27generate_default_empack_ymls0_0B8_
FN:442,_RNCNvMNtNtCshmQA5Mrgi1L_10empack_lib6empack6configNtB4_13ConfigManager27generate_default_empack_ymls_0B8_
FN:328,_RNCNvMNtNtCshmQA5Mrgi1L_10empack_lib6empack6configNtB4_13ConfigManager32get_loader_version_from_metadata0B8_
FN:216,_RNCNCNvMNtNtCs5BmVzKVgC1k_10empack_lib6empack6configNtB6_13ConfigManager19create_project_plan00Ba_
FN:223,_RNCNCNvMNtNtCs5BmVzKVgC1k_10empack_lib6empack6configNtB6_13ConfigManager19create_project_plans0_00Ba_
FN:229,_RNCNCNvMNtNtCs5BmVzKVgC1k_10empack_lib6empack6configNtB6_13ConfigManager19create_project_plans1_00Ba_
FN:236,_RNCNCNvMNtNtCs5BmVzKVgC1k_10empack_lib6empack6configNtB6_13ConfigManager19create_project_plans2_00Ba_
FN:216,_RNCNvMNtNtCs5BmVzKVgC1k_10empack_lib6empack6configNtB4_13ConfigManager19create_project_plan0B8_
FN:223,_RNCNvMNtNtCs5BmVzKVgC1k_10empack_lib6empack6configNtB4_13ConfigManager19create_project_plans0_0B8_
FN:229,_RNCNvMNtNtCs5BmVzKVgC1k_10empack_lib6empack6configNtB4_13ConfigManager19create_project_plans1_0B8_
FN:236,_RNCNvMNtNtCs5BmVzKVgC1k_10empack_lib6empack6configNtB4_13ConfigManager19create_project_plans2_0B8_
FN:238,_RNCNvMNtNtCs5BmVzKVgC1k_10empack_lib6empack6configNtB4_13ConfigManager19create_project_plans3_0B8_
FN:217,_RNCNvMNtNtCs5BmVzKVgC1k_10empack_lib6empack6configNtB4_13ConfigManager19create_project_plans_0B8_
FN:441,_RNCNvMNtNtCs5BmVzKVgC1k_10empack_lib6empack6configNtB4_13ConfigManager27generate_default_empack_yml0B8_
FN:443,_RNCNvMNtNtCs5BmVzKVgC1k_10empack_lib6empack6configNtB4_13ConfigManager27generate_default_empack_ymls0_0B8_
FN:442,_RNCNvMNtNtCs5BmVzKVgC1k_10empack_lib6empack6configNtB4_13ConfigManager27generate_default_empack_ymls_0B8_
FN:328,_RNCNvMNtNtCs5BmVzKVgC1k_10empack_lib6empack6configNtB4_13ConfigManager32get_loader_version_from_metadata0B8_
FN:177,_RNvMNtNtCs5BmVzKVgC1k_10empack_lib6empack6configNtB2_13ConfigManager18load_empack_config
FN:193,_RNvMNtNtCs5BmVzKVgC1k_10empack_lib6empack6configNtB2_13ConfigManager18load_pack_metadata
FN:207,_RNvMNtNtCs5BmVzKVgC1k_10empack_lib6empack6configNtB2_13ConfigManager19create_project_plan
FN:451,_RNvMNtNtCs5BmVzKVgC1k_10empack_lib6empack6configNtB2_13ConfigManager20validate_consistency
FN:334,_RNvMNtNtCs5BmVzKVgC1k_10empack_lib6empack6configNtB2_13ConfigManager21parse_dependency_spec
FN:281,_RNvMNtNtCs5BmVzKVgC1k_10empack_lib6empack6configNtB2_13ConfigManager26infer_loader_from_metadata
FN:416,_RNvMNtNtCs5BmVzKVgC1k_10empack_lib6empack6configNtB2_13ConfigManager27generate_default_empack_yml
FN:310,_RNvMNtNtCs5BmVzKVgC1k_10empack_lib6empack6configNtB2_13ConfigManager32get_loader_version_from_metadata
FN:166,_RNvMNtNtCs5BmVzKVgC1k_10empack_lib6empack6configNtB2_13ConfigManager3new
FNDA:2,_RNvMNtNtCshmQA5Mrgi1L_10empack_lib6empack6configNtB2_13ConfigManager18load_empack_config
FNDA:0,_RNvMNtNtCshmQA5Mrgi1L_10empack_lib6empack6configNtB2_13ConfigManager18load_pack_metadata
FNDA:2,_RNvMNtNtCshmQA5Mrgi1L_10empack_lib6empack6configNtB2_13ConfigManager19create_project_plan
FNDA:0,_RNvMNtNtCshmQA5Mrgi1L_10empack_lib6empack6configNtB2_13ConfigManager20validate_consistency
FNDA:0,_RNvMNtNtCshmQA5Mrgi1L_10empack_lib6empack6configNtB2_13ConfigManager21parse_dependency_spec
FNDA:0,_RNvMNtNtCshmQA5Mrgi1L_10empack_lib6empack6configNtB2_13ConfigManager26infer_loader_from_metadata
FNDA:0,_RNvMNtNtCshmQA5Mrgi1L_10empack_lib6empack6configNtB2_13ConfigManager27generate_default_empack_yml
FNDA:0,_RNvMNtNtCshmQA5Mrgi1L_10empack_lib6empack6configNtB2_13ConfigManager32get_loader_version_from_metadata
FNDA:2,_RNvMNtNtCshmQA5Mrgi1L_10empack_lib6empack6configNtB2_13ConfigManager3new
FNDA:0,_RNCNCNvMNtNtCshmQA5Mrgi1L_10empack_lib6empack6configNtB6_13ConfigManager19create_project_plan00Ba_
FNDA:0,_RNCNCNvMNtNtCshmQA5Mrgi1L_10empack_lib6empack6configNtB6_13ConfigManager19create_project_plans0_00Ba_
FNDA:0,_RNCNCNvMNtNtCshmQA5Mrgi1L_10empack_lib6empack6configNtB6_13ConfigManager19create_project_plans1_00Ba_
FNDA:0,_RNCNCNvMNtNtCshmQA5Mrgi1L_10empack_lib6empack6configNtB6_13ConfigManager19create_project_plans2_00Ba_
FNDA:0,_RNCNvMNtNtCshmQA5Mrgi1L_10empack_lib6empack6configNtB4_13ConfigManager19create_project_plan0B8_
FNDA:0,_RNCNvMNtNtCshmQA5Mrgi1L_10empack_lib6empack6configNtB4_13ConfigManager19create_project_plans0_0B8_
FNDA:0,_RNCNvMNtNtCshmQA5Mrgi1L_10empack_lib6empack6configNtB4_13ConfigManager19create_project_plans1_0B8_
FNDA:0,_RNCNvMNtNtCshmQA5Mrgi1L_10empack_lib6empack6configNtB4_13ConfigManager19create_project_plans2_0B8_
FNDA:0,_RNCNvMNtNtCshmQA5Mrgi1L_10empack_lib6empack6configNtB4_13ConfigManager19create_project_plans3_0B8_
FNDA:0,_RNCNvMNtNtCshmQA5Mrgi1L_10empack_lib6empack6configNtB4_13ConfigManager19create_project_plans_0B8_
FNDA:0,_RNCNvMNtNtCshmQA5Mrgi1L_10empack_lib6empack6configNtB4_13ConfigManager27generate_default_empack_yml0B8_
FNDA:0,_RNCNvMNtNtCshmQA5Mrgi1L_10empack_lib6empack6configNtB4_13ConfigManager27generate_default_empack_ymls0_0B8_
FNDA:0,_RNCNvMNtNtCshmQA5Mrgi1L_10empack_lib6empack6configNtB4_13ConfigManager27generate_default_empack_ymls_0B8_
FNDA:0,_RNCNvMNtNtCshmQA5Mrgi1L_10empack_lib6empack6configNtB4_13ConfigManager32get_loader_version_from_metadata0B8_
FNDA:6,_RNCNCNvMNtNtCs5BmVzKVgC1k_10empack_lib6empack6configNtB6_13ConfigManager19create_project_plan00Ba_
FNDA:6,_RNCNCNvMNtNtCs5BmVzKVgC1k_10empack_lib6empack6configNtB6_13ConfigManager19create_project_plans0_00Ba_
FNDA:6,_RNCNCNvMNtNtCs5BmVzKVgC1k_10empack_lib6empack6configNtB6_13ConfigManager19create_project_plans1_00Ba_
FNDA:1,_RNCNCNvMNtNtCs5BmVzKVgC1k_10empack_lib6empack6configNtB6_13ConfigManager19create_project_plans2_00Ba_
FNDA:15,_RNCNvMNtNtCs5BmVzKVgC1k_10empack_lib6empack6configNtB4_13ConfigManager19create_project_plan0B8_
FNDA:15,_RNCNvMNtNtCs5BmVzKVgC1k_10empack_lib6empack6configNtB4_13ConfigManager19create_project_plans0_0B8_
FNDA:15,_RNCNvMNtNtCs5BmVzKVgC1k_10empack_lib6empack6configNtB4_13ConfigManager19create_project_plans1_0B8_
FNDA:2,_RNCNvMNtNtCs5BmVzKVgC1k_10empack_lib6empack6configNtB4_13ConfigManager19create_project_plans2_0B8_
FNDA:1,_RNCNvMNtNtCs5BmVzKVgC1k_10empack_lib6empack6configNtB4_13ConfigManager19create_project_plans3_0B8_
FNDA:9,_RNCNvMNtNtCs5BmVzKVgC1k_10empack_lib6empack6configNtB4_13ConfigManager19create_project_plans_0B8_
FNDA:1,_RNCNvMNtNtCs5BmVzKVgC1k_10empack_lib6empack6configNtB4_13ConfigManager27generate_default_empack_yml0B8_
FNDA:1,_RNCNvMNtNtCs5BmVzKVgC1k_10empack_lib6empack6configNtB4_13ConfigManager27generate_default_empack_ymls0_0B8_
FNDA:1,_RNCNvMNtNtCs5BmVzKVgC1k_10empack_lib6empack6configNtB4_13ConfigManager27generate_default_empack_ymls_0B8_
FNDA:0,_RNCNvMNtNtCs5BmVzKVgC1k_10empack_lib6empack6configNtB4_13ConfigManager32get_loader_version_from_metadata0B8_
FNDA:33,_RNvMNtNtCs5BmVzKVgC1k_10empack_lib6empack6configNtB2_13ConfigManager18load_empack_config
FNDA:29,_RNvMNtNtCs5BmVzKVgC1k_10empack_lib6empack6configNtB2_13ConfigManager18load_pack_metadata
FNDA:24,_RNvMNtNtCs5BmVzKVgC1k_10empack_lib6empack6configNtB2_13ConfigManager19create_project_plan
FNDA:6,_RNvMNtNtCs5BmVzKVgC1k_10empack_lib6empack6configNtB2_13ConfigManager20validate_consistency
FNDA:17,_RNvMNtNtCs5BmVzKVgC1k_10empack_lib6empack6configNtB2_13ConfigManager21parse_dependency_spec
FNDA:10,_RNvMNtNtCs5BmVzKVgC1k_10empack_lib6empack6configNtB2_13ConfigManager26infer_loader_from_metadata
FNDA:5,_RNvMNtNtCs5BmVzKVgC1k_10empack_lib6empack6configNtB2_13ConfigManager27generate_default_empack_yml
FNDA:6,_RNvMNtNtCs5BmVzKVgC1k_10empack_lib6empack6configNtB2_13ConfigManager32get_loader_version_from_metadata
FNDA:41,_RNvMNtNtCs5BmVzKVgC1k_10empack_lib6empack6configNtB2_13ConfigManager3new
FNF:23
FNH:22
DA:166,43
DA:167,43
DA:168,43
DA:169,43
DA:170,43
DA:171,43
DA:172,43
DA:173,43
DA:174,43
DA:177,35
DA:178,35
DA:180,35
DA:181,1
DA:182,1
DA:183,1
DA:184,34
DA:186,34
DA:187,34
DA:189,22
DA:190,35
DA:193,29
DA:194,29
DA:196,29
DA:197,16
DA:198,13
DA:200,13
DA:201,13
DA:203,12
DA:204,29
DA:207,26
DA:208,26
DA:209,17
DA:212,17
DA:213,17
DA:214,17
DA:215,17
DA:216,17
DA:217,17
DA:219,17
DA:220,17
DA:221,17
DA:222,17
DA:223,17
DA:225,17
DA:226,17
DA:227,17
DA:228,17
DA:229,17
DA:232,17
DA:233,17
DA:234,17
DA:235,17
DA:236,17
DA:237,17
DA:238,1
DA:239,1
DA:241,16
DA:242,9
DA:243,7
DA:244,6
DA:246,1
DA:247,1
DA:248,1
DA:251,14
DA:252,6
DA:254,8
DA:258,14
DA:259,30
DA:260,17
DA:261,17
DA:262,17
DA:263,17
DA:264,17
DA:265,1
DA:266,16
DA:269,13
DA:270,13
DA:271,13
DA:272,13
DA:273,13
DA:274,13
DA:275,13
DA:276,13
DA:277,13
DA:278,26
DA:281,10
DA:282,10
DA:283,10
DA:284,10
DA:286,10
DA:287,10
DA:288,10
DA:289,10
DA:291,5
DA:292,5
DA:293,2
DA:294,3
DA:295,1
DA:296,2
DA:297,2
DA:298,2
DA:299,2
DA:301,1
DA:303,1
DA:304,1
DA:305,1
DA:307,10
DA:310,6
DA:311,6
DA:312,6
DA:313,6
DA:314,6
DA:315,6
DA:316,3
DA:317,1
DA:318,1
DA:319,1
DA:322,6
DA:323,6
DA:324,6
DA:325,6
DA:326,6
DA:327,6
DA:328,0
DA:329,0
DA:330,6
DA:334,17
DA:335,17
DA:336,17
DA:337,17
DA:338,17
DA:339,17
DA:340,17
DA:342,17
DA:345,17
DA:346,17
DA:347,1
DA:348,1
DA:349,1
DA:350,16
DA:352,16
DA:353,16
DA:356,16
DA:357,16
DA:358,0
DA:359,0
DA:360,0
DA:361,16
DA:363,16
DA:366,16
DA:367,16
DA:368,16
DA:369,1
DA:370,0
DA:371,0
DA:372,0
DA:375,0
DA:379,16
DA:380,1
DA:382,15
DA:386,16
DA:387,2
DA:388,2
DA:389,1
DA:390,0
DA:391,0
DA:392,0
DA:395,14
DA:399,16
DA:402,16
DA:404,16
DA:405,16
DA:406,16
DA:407,16
DA:408,16
DA:409,16
DA:410,16
DA:411,16
DA:412,16
DA:413,17
DA:416,5
DA:417,5
DA:419,5
DA:420,1
DA:421,1
DA:422,1
DA:423,1
DA:425,4
DA:428,5
DA:430,5
DA:431,5
DA:432,5
DA:433,5
DA:434,5
DA:435,5
DA:437,5
DA:438,5
DA:439,5
DA:440,5
DA:441,5
DA:442,5
DA:443,5
DA:447,5
DA:448,5
DA:451,6
DA:452,6
DA:454,6
DA:457,4
DA:459,3
DA:460,3
DA:461,1
DA:462,1
DA:463,1
DA:464,1
DA:465,2
DA:466,0
DA:469,3
DA:470,3
DA:471,3
DA:472,1
DA:473,1
DA:474,1
DA:475,1
DA:476,2
DA:477,0
DA:478,0
DA:479,1
DA:481,4
DA:482,6
BRF:0
BRH:0
LF:242
LH:227
end_of_record
SF:/Users/zer0cell/production/empack/crates/empack-lib/src/empack/config.test.rs
FN:18,_RNvNtNtNtCs5BmVzKVgC1k_10empack_lib6empack6config5tests14with_pack_toml
FN:14,_RNvNtNtNtCs5BmVzKVgC1k_10empack_lib6empack6config5tests15with_empack_yml
FN:10,_RNvNtNtNtCs5BmVzKVgC1k_10empack_lib6empack6config5tests27create_mock_config_provider
FN:23,_RNvNtNtNtCs5BmVzKVgC1k_10empack_lib6empack6config5testss_31test_load_empack_config_success
FN:87,_RNvNtNtNtCs5BmVzKVgC1k_10empack_lib6empack6config5testss_31test_load_pack_metadata_success
FN:680,_RNvNtNtNtCs5BmVzKVgC1k_10empack_lib6empack6config5testss_32test_generate_default_empack_yml
FN:491,_RNvNtNtNtCs5BmVzKVgC1k_10empack_lib6empack6config5testss_32test_parse_dependency_spec_basic
FN:732,_RNvNtNtNtCs5BmVzKVgC1k_10empack_lib6empack6config5testss_34test_validate_consistency_matching
FN:150,_RNvNtNtNtCs5BmVzKVgC1k_10empack_lib6empack6config5testss_36test_create_project_plan_empack_only
FN:69,_RNvNtNtNtCs5BmVzKVgC1k_10empack_lib6empack6config5testss_36test_load_empack_config_invalid_yaml
FN:53,_RNvNtNtNtCs5BmVzKVgC1k_10empack_lib6empack6config5testss_36test_load_empack_config_missing_file
FN:133,_RNvNtNtNtCs5BmVzKVgC1k_10empack_lib6empack6config5testss_36test_load_pack_metadata_invalid_toml
FN:122,_RNvNtNtNtCs5BmVzKVgC1k_10empack_lib6empack6config5testss_36test_load_pack_metadata_missing_file
FN:518,_RNvNtNtNtCs5BmVzKVgC1k_10empack_lib6empack6config5testss_36test_parse_dependency_spec_with_type
FN:348,_RNvNtNtNtCs5BmVzKVgC1k_10empack_lib6empack6config5testss_37test_infer_loader_from_metadata_forge
FN:383,_RNvNtNtNtCs5BmVzKVgC1k_10empack_lib6empack6config5testss_37test_infer_loader_from_metadata_quilt
FN:180,_RNvNtNtNtCs5BmVzKVgC1k_10empack_lib6empack6config5testss_38test_create_project_plan_pack_fallback
FN:313,_RNvNtNtNtCs5BmVzKVgC1k_10empack_lib6empack6config5testss_38test_infer_loader_from_metadata_fabric
FN:571,_RNvNtNtNtCs5BmVzKVgC1k_10empack_lib6empack6config5testss_38test_parse_dependency_spec_with_loader
FN:843,_RNvNtNtNtCs5BmVzKVgC1k_10empack_lib6empack6config5testss_38test_validate_consistency_no_pack_toml
FN:289,_RNvNtNtNtCs5BmVzKVgC1k_10empack_lib6empack6config5testss_39test_create_project_plan_missing_loader
FN:453,_RNvNtNtNtCs5BmVzKVgC1k_10empack_lib6empack6config5testss_39test_infer_loader_from_metadata_unknown
FN:715,_RNvNtNtNtCs5BmVzKVgC1k_10empack_lib6empack6config5testss_40test_generate_default_empack_yml_no_pack
FN:418,_RNvNtNtNtCs5BmVzKVgC1k_10empack_lib6empack6config5testss_40test_infer_loader_from_metadata_neoforge
FN:655,_RNvNtNtNtCs5BmVzKVgC1k_10empack_lib6empack6config5testss_41test_parse_dependency_spec_invalid_format
FN:805,_RNvNtNtNtCs5BmVzKVgC1k_10empack_lib6empack6config5testss_41test_validate_consistency_loader_mismatch
FN:220,_RNvNtNtNtCs5BmVzKVgC1k_10empack_lib6empack6config5testss_42test_create_project_plan_empack_precedence
FN:599,_RNvNtNtNtCs5BmVzKVgC1k_10empack_lib6empack6config5testss_43test_parse_dependency_spec_with_project_ids
FN:767,_RNvNtNtNtCs5BmVzKVgC1k_10empack_lib6empack6config5testss_44test_validate_consistency_minecraft_mismatch
FN:548,_RNvNtNtNtCs5BmVzKVgC1k_10empack_lib6empack6config5testss_49test_parse_dependency_spec_with_minecraft_version
FN:624,_RNvNtNtNtCs5BmVzKVgC1k_10empack_lib6empack6config5testss_49test_parse_dependency_spec_with_version_overrides
FN:265,_RNvNtNtNtCs5BmVzKVgC1k_10empack_lib6empack6config5testss_50test_create_project_plan_missing_minecraft_version
FNDA:13,_RNvNtNtNtCs5BmVzKVgC1k_10empack_lib6empack6config5tests14with_pack_toml
FNDA:23,_RNvNtNtNtCs5BmVzKVgC1k_10empack_lib6empack6config5tests15with_empack_yml
FNDA:29,_RNvNtNtNtCs5BmVzKVgC1k_10empack_lib6empack6config5tests27create_mock_config_provider
FNDA:1,_RNvNtNtNtCs5BmVzKVgC1k_10empack_lib6empack6config5testss_31test_load_empack_config_success
FNDA:1,_RNvNtNtNtCs5BmVzKVgC1k_10empack_lib6empack6config5testss_31test_load_pack_metadata_success
FNDA:1,_RNvNtNtNtCs5BmVzKVgC1k_10empack_lib6empack6config5testss_32test_generate_default_empack_yml
FNDA:1,_RNvNtNtNtCs5BmVzKVgC1k_10empack_lib6empack6config5testss_32test_parse_dependency_spec_basic
FNDA:1,_RNvNtNtNtCs5BmVzKVgC1k_10empack_lib6empack6config5testss_34test_validate_consistency_matching
FNDA:1,_RNvNtNtNtCs5BmVzKVgC1k_10empack_lib6empack6config5testss_36test_create_project_plan_empack_only
FNDA:1,_RNvNtNtNtCs5BmVzKVgC1k_10empack_lib6empack6config5testss_36test_load_empack_config_invalid_yaml
FNDA:1,_RNvNtNtNtCs5BmVzKVgC1k_10empack_lib6empack6config5testss_36test_load_empack_config_missing_file
FNDA:1,_RNvNtNtNtCs5BmVzKVgC1k_10empack_lib6empack6config5testss_36test_load_pack_metadata_invalid_toml
FNDA:1,_RNvNtNtNtCs5BmVzKVgC1k_10empack_lib6empack6config5testss_36test_load_pack_metadata_missing_file
FNDA:1,_RNvNtNtNtCs5BmVzKVgC1k_10empack_lib6empack6config5testss_36test_parse_dependency_spec_with_type
FNDA:1,_RNvNtNtNtCs5BmVzKVgC1k_10empack_lib6empack6config5testss_37test_infer_loader_from_metadata_forge
FNDA:1,_RNvNtNtNtCs5BmVzKVgC1k_10empack_lib6empack6config5testss_37test_infer_loader_from_metadata_quilt
FNDA:1,_RNvNtNtNtCs5BmVzKVgC1k_10empack_lib6empack6config5testss_38test_create_project_plan_pack_fallback
FNDA:1,_RNvNtNtNtCs5BmVzKVgC1k_10empack_lib6empack6config5testss_38test_infer_loader_from_metadata_fabric
FNDA:1,_RNvNtNtNtCs5BmVzKVgC1k_10empack_lib6empack6config5testss_38test_parse_dependency_spec_with_loader
FNDA:1,_RNvNtNtNtCs5BmVzKVgC1k_10empack_lib6empack6config5testss_38test_validate_consistency_no_pack_toml
FNDA:1,_RNvNtNtNtCs5BmVzKVgC1k_10empack_lib6empack6config5testss_39test_create_project_plan_missing_loader
FNDA:1,_RNvNtNtNtCs5BmVzKVgC1k_10empack_lib6empack6config5testss_39test_infer_loader_from_metadata_unknown
FNDA:1,_RNvNtNtNtCs5BmVzKVgC1k_10empack_lib6empack6config5testss_40test_generate_default_empack_yml_no_pack
FNDA:1,_RNvNtNtNtCs5BmVzKVgC1k_10empack_lib6empack6config5testss_40test_infer_loader_from_metadata_neoforge
FNDA:1,_RNvNtNtNtCs5BmVzKVgC1k_10empack_lib6empack6config5testss_41test_parse_dependency_spec_invalid_format
FNDA:1,_RNvNtNtNtCs5BmVzKVgC1k_10empack_lib6empack6config5testss_41test_validate_consistency_loader_mismatch
FNDA:1,_RNvNtNtNtCs5BmVzKVgC1k_10empack_lib6empack6config5testss_42test_create_project_plan_empack_precedence
FNDA:1,_RNvNtNtNtCs5BmVzKVgC1k_10empack_lib6empack6config5testss_43test_parse_dependency_spec_with_project_ids
FNDA:1,_RNvNtNtNtCs5BmVzKVgC1k_10empack_lib6empack6config5testss_44test_validate_consistency_minecraft_mismatch
FNDA:1,_RNvNtNtNtCs5BmVzKVgC1k_10empack_lib6empack6config5testss_49test_parse_dependency_spec_with_minecraft_version
FNDA:1,_RNvNtNtNtCs5BmVzKVgC1k_10empack_lib6empack6config5testss_49test_parse_dependency_spec_with_version_overrides
FNDA:1,_RNvNtNtNtCs5BmVzKVgC1k_10empack_lib6empack6config5testss_50test_create_project_plan_missing_minecraft_version
FNF:32
FNH:32
DA:10,29
DA:11,29
DA:12,29
DA:14,23
DA:15,23
DA:16,23
DA:18,13
DA:19,13
DA:20,13
DA:23,1
DA:24,1
DA:25,1
DA:26,1
DA:27,1
DA:28,1
DA:29,1
DA:30,1
DA:31,1
DA:32,1
DA:33,1
DA:34,1
DA:35,1
DA:37,1
DA:38,1
DA:39,1
DA:40,1
DA:42,1
DA:43,1
DA:44,1
DA:45,1
DA:46,1
DA:47,1
DA:48,1
DA:49,1
DA:50,1
DA:53,1
DA:54,1
DA:55,1
DA:56,1
DA:57,1
DA:59,1
DA:60,1
DA:61,1
DA:62,1
DA:64,0
DA:66,1
DA:69,1
DA:70,1
DA:71,1
DA:72,1
DA:73,1
DA:74,1
DA:75,1
DA:77,1
DA:78,1
DA:79,1
DA:80,1
DA:82,1
DA:83,1
DA:84,1
DA:87,1
DA:88,1
DA:89,1
DA:90,1
DA:91,1
DA:92,1
DA:93,1
DA:94,1
DA:95,1
DA:96,1
DA:97,1
DA:98,1
DA:99,1
DA:100,1
DA:101,1
DA:102,1
DA:103,1
DA:105,1
DA:106,1
DA:107,1
DA:108,1
DA:110,1
DA:111,1
DA:112,1
DA:113,1
DA:114,1
DA:115,1
DA:116,1
DA:117,1
DA:118,1
DA:119,1
DA:122,1
DA:123,1
DA:124,1
DA:125,1
DA:126,1
DA:128,1
DA:129,1
DA:130,1
DA:133,1
DA:134,1
DA:135,1
DA:136,1
DA:137,1
DA:138,1
DA:140,1
DA:141,1
DA:142,1
DA:143,1
DA:145,1
DA:146,1
DA:147,1
DA:150,1
DA:151,1
DA:152,1
DA:153,1
DA:154,1
DA:155,1
DA:156,1
DA:157,1
DA:158,1
DA:159,1
DA:160,1
DA:161,1
DA:162,1
DA:164,1
DA:165,1
DA:166,1
DA:167,1
DA:169,1
DA:170,1
DA:171,1
DA:172,1
DA:173,1
DA:174,1
DA:175,1
DA:176,1
DA:177,1
DA:180,1
DA:181,1
DA:182,1
DA:183,1
DA:184,1
DA:185,1
DA:186,1
DA:187,1
DA:188,1
DA:189,1
DA:190,1
DA:191,1
DA:192,1
DA:193,1
DA:194,1
DA:195,1
DA:196,1
DA:197,1
DA:198,1
DA:199,1
DA:200,1
DA:201,1
DA:203,1
DA:204,1
DA:205,1
DA:206,1
DA:207,1
DA:209,1
DA:210,1
DA:211,1
DA:212,1
DA:213,1
DA:214,1
DA:215,1
DA:216,1
DA:217,1
DA:220,1
DA:221,1
DA:222,1
DA:223,1
DA:224,1
DA:225,1
DA:226,1
DA:227,1
DA:228,1
DA:229,1
DA:230,1
DA:231,1
DA:232,1
DA:233,1
DA:234,1
DA:235,1
DA:236,1
DA:237,1
DA:238,1
DA:239,1
DA:240,1
DA:241,1
DA:242,1
DA:243,1
DA:244,1
DA:245,1
DA:246,1
DA:248,1
DA:249,1
DA:250,1
DA:251,1
DA:252,1
DA:254,1
DA:255,1
DA:257,1
DA:258,1
DA:259,1
DA:260,1
DA:261,1
DA:262,1
DA:265,1
DA:266,1
DA:267,1
DA:268,1
DA:269,1
DA:270,1
DA:271,1
DA:272,1
DA:274,1
DA:275,1
DA:276,1
DA:277,1
DA:279,1
DA:280,1
DA:281,1
DA:282,1
DA:284,0
DA:286,1
DA:289,1
DA:290,1
DA:291,1
DA:292,1
DA:293,1
DA:294,1
DA:295,1
DA:296,1
DA:298,1
DA:299,1
DA:300,1
DA:301,1
DA:303,1
DA:304,1
DA:305,1
DA:306,1
DA:308,0
DA:310,1
DA:313,1
DA:314,1
DA:315,1
DA:316,1
DA:317,1
DA:318,1
DA:319,1
DA:320,1
DA:321,1
DA:322,1
DA:323,1
DA:324,1
DA:325,1
DA:326,1
DA:327,1
DA:328,1
DA:329,1
DA:330,1
DA:331,1
DA:332,1
DA:333,1
DA:335,1
DA:336,1
DA:337,1
DA:338,1
DA:339,1
DA:341,1
DA:342,1
DA:343,1
DA:344,1
DA:345,1
DA:348,1
DA:349,1
DA:350,1
DA:351,1
DA:352,1
DA:353,1
DA:354,1
DA:355,1
DA:356,1
DA:357,1
DA:358,1
DA:359,1
DA:360,1
DA:361,1
DA:362,1
DA:363,1
DA:364,1
DA:365,1
DA:366,1
DA:367,1
DA:368,1
DA:370,1
DA:371,1
DA:372,1
DA:373,1
DA:374,1
DA:376,1
DA:377,1
DA:378,1
DA:379,1
DA:380,1
DA:383,1
DA:384,1
DA:385,1
DA:386,1
DA:387,1
DA:388,1
DA:389,1
DA:390,1
DA:391,1
DA:392,1
DA:393,1
DA:394,1
DA:395,1
DA:396,1
DA:397,1
DA:398,1
DA:399,1
DA:400,1
DA:401,1
DA:402,1
DA:403,1
DA:405,1
DA:406,1
DA:407,1
DA:408,1
DA:409,1
DA:411,1
DA:412,1
DA:413,1
DA:414,1
DA:415,1
DA:418,1
DA:419,1
DA:420,1
DA:421,1
DA:422,1
DA:423,1
DA:424,1
DA:425,1
DA:426,1
DA:427,1
DA:428,1
DA:429,1
DA:430,1
DA:431,1
DA:432,1
DA:433,1
DA:434,1
DA:435,1
DA:436,1
DA:437,1
DA:438,1
DA:440,1
DA:441,1
DA:442,1
DA:443,1
DA:444,1
DA:446,1
DA:447,1
DA:448,1
DA:449,1
DA:450,1
DA:453,1
DA:454,1
DA:455,1
DA:456,1
DA:457,1
DA:458,1
DA:459,1
DA:460,1
DA:461,1
DA:462,1
DA:463,1
DA:464,1
DA:465,1
DA:466,1
DA:467,1
DA:468,1
DA:469,1
DA:470,1
DA:471,1
DA:472,1
DA:473,1
DA:475,1
DA:476,1
DA:477,1
DA:478,1
DA:479,1
DA:481,1
DA:482,1
DA:483,1
DA:484,1
DA:486,0
DA:488,1
DA:491,1
DA:492,1
DA:493,1
DA:494,1
DA:495,1
DA:496,1
DA:497,1
DA:498,1
DA:499,1
DA:501,1
DA:502,1
DA:503,1
DA:504,1
DA:506,1
DA:507,1
DA:508,1
DA:509,1
DA:510,1
DA:511,1
DA:512,1
DA:513,1
DA:514,1
DA:515,1
DA:518,1
DA:519,1
DA:520,1
DA:521,1
DA:522,1
DA:523,1
DA:524,1
DA:525,1
DA:526,1
DA:527,1
DA:529,1
DA:530,1
DA:531,1
DA:532,1
DA:534,1
DA:535,1
DA:536,1
DA:538,1
DA:539,1
DA:540,1
DA:542,1
DA:543,1
DA:544,1
DA:545,1
DA:548,1
DA:549,1
DA:550,1
DA:551,1
DA:552,1
DA:553,1
DA:554,1
DA:555,1
DA:556,1
DA:558,1
DA:559,1
DA:560,1
DA:561,1
DA:563,1
DA:564,1
DA:565,1
DA:566,1
DA:567,1
DA:568,1
DA:571,1
DA:572,1
DA:573,1
DA:574,1
DA:575,1
DA:576,1
DA:577,1
DA:578,1
DA:579,1
DA:580,1
DA:582,1
DA:583,1
DA:584,1
DA:585,1
DA:587,1
DA:588,1
DA:589,1
DA:591,1
DA:592,1
DA:594,1
DA:595,1
DA:596,1
DA:599,1
DA:600,1
DA:601,1
DA:602,1
DA:603,1
DA:604,1
DA:605,1
DA:606,1
DA:607,1
DA:608,1
DA:609,1
DA:611,1
DA:612,1
DA:613,1
DA:614,1
DA:616,1
DA:617,1
DA:618,1
DA:619,1
DA:620,1
DA:621,1
DA:624,1
DA:625,1
DA:626,1
DA:627,1
DA:628,1
DA:629,1
DA:630,1
DA:631,1
DA:632,1
DA:633,1
DA:634,1
DA:636,1
DA:637,1
DA:638,1
DA:639,1
DA:641,1
DA:642,1
DA:643,1
DA:644,1
DA:645,1
DA:646,1
DA:647,1
DA:648,1
DA:650,0
DA:652,1
DA:655,1
DA:656,1
DA:657,1
DA:658,1
DA:659,1
DA:660,1
DA:661,1
DA:662,1
DA:663,1
DA:665,1
DA:666,1
DA:667,1
DA:668,1
DA:670,1
DA:671,1
DA:672,1
DA:673,1
DA:675,0
DA:677,1
DA:680,1
DA:681,1
DA:682,1
DA:683,1
DA:684,1
DA:685,1
DA:686,1
DA:687,1
DA:688,1
DA:689,1
DA:690,1
DA:691,1
DA:692,1
DA:693,1
DA:694,1
DA:695,1
DA:696,1
DA:698,1
DA:699,1
DA:700,1
DA:701,1
DA:703,1
DA:704,1
DA:705,1
DA:706,1
DA:707,1
DA:708,1
DA:709,1
DA:710,1
DA:711,1
DA:712,1
DA:715,1
DA:716,1
DA:717,1
DA:718,1
DA:719,1
DA:721,1
DA:722,1
DA:723,1
DA:724,1
DA:725,1
DA:727,1
DA:728,1
DA:729,1
DA:732,1
DA:733,1
DA:734,1
DA:735,1
DA:736,1
DA:737,1
DA:738,1
DA:739,1
DA:740,1
DA:741,1
DA:742,1
DA:743,1
DA:744,1
DA:745,1
DA:746,1
DA:747,1
DA:748,1
DA:749,1
DA:750,1
DA:751,1
DA:752,1
DA:753,1
DA:755,1
DA:756,1
DA:757,1
DA:758,1
DA:759,1
DA:761,1
DA:762,1
DA:763,1
DA:764,1
DA:767,1
DA:768,1
DA:769,1
DA:770,1
DA:771,1
DA:772,1
DA:773,1
DA:774,1
DA:775,1
DA:776,1
DA:777,1
DA:778,1
DA:779,1
DA:780,1
DA:781,1
DA:782,1
DA:783,1
DA:784,1
DA:785,1
DA:786,1
DA:787,1
DA:788,1
DA:790,1
DA:791,1
DA:792,1
DA:793,1
DA:794,1
DA:796,1
DA:797,1
DA:798,1
DA:799,1
DA:800,1
DA:801,1
DA:802,1
DA:805,1
DA:806,1
DA:807,1
DA:808,1
DA:809,1
DA:810,1
DA:811,1
DA:812,1
DA:813,1
DA:814,1
DA:815,1
DA:816,1
DA:817,1
DA:818,1
DA:819,1
DA:820,1
DA:821,1
DA:822,1
DA:823,1
DA:824,1
DA:825,1
DA:826,1
DA:828,1
DA:829,1
DA:830,1
DA:831,1
DA:832,1
DA:834,1
DA:835,1
DA:836,1
DA:837,1
DA:838,1
DA:839,1
DA:840,1
DA:843,1
DA:844,1
DA:845,1
DA:846,1
DA:847,1
DA:848,1
DA:849,1
DA:850,1
DA:851,1
DA:853,1
DA:854,1
DA:855,1
DA:856,1
DA:858,1
DA:859,1
DA:860,1
DA:861,1
BRF:0
BRH:0
LF:719
LH:713
end_of_record
SF:/Users/zer0cell/production/empack/crates/empack-lib/src/empack/mod.test.rs
FN:5,_RNvNtNtCs5BmVzKVgC1k_10empack_lib6empack5testss_21test_module_reexports
FNDA:1,_RNvNtNtCs5BmVzKVgC1k_10empack_lib6empack5testss_21test_module_reexports
FNF:1
FNH:1
DA:5,1
DA:7,1
DA:8,1
DA:9,1
DA:10,1
DA:11,1
BRF:0
BRH:0
LF:6
LH:6
end_of_record
SF:/Users/zer0cell/production/empack/crates/empack-lib/src/empack/parsing.rs
FN:27,_RNvMNtNtCshmQA5Mrgi1L_10empack_lib6empack7parsingNtB2_22ResourcePackResolution5parse
FN:72,_RNvMs0_NtNtCshmQA5Mrgi1L_10empack_lib6empack7parsingNtB5_9ModLoader5parse
FN:50,_RNvMs_NtNtCshmQA5Mrgi1L_10empack_lib6empack7parsingNtB4_12ShaderLoader5parse
FN:27,_RNvMNtNtCs5BmVzKVgC1k_10empack_lib6empack7parsingNtB2_22ResourcePackResolution5parse
FN:72,_RNvMs0_NtNtCs5BmVzKVgC1k_10empack_lib6empack7parsingNtB5_9ModLoader5parse
FN:50,_RNvMs_NtNtCs5BmVzKVgC1k_10empack_lib6empack7parsingNtB4_12ShaderLoader5parse
FNDA:0,_RNvMNtNtCshmQA5Mrgi1L_10empack_lib6empack7parsingNtB2_22ResourcePackResolution5parse
FNDA:0,_RNvMs0_NtNtCshmQA5Mrgi1L_10empack_lib6empack7parsingNtB5_9ModLoader5parse
FNDA:0,_RNvMs_NtNtCshmQA5Mrgi1L_10empack_lib6empack7parsingNtB4_12ShaderLoader5parse
FNDA:4,_RNvMNtNtCs5BmVzKVgC1k_10empack_lib6empack7parsingNtB2_22ResourcePackResolution5parse
FNDA:4,_RNvMs0_NtNtCs5BmVzKVgC1k_10empack_lib6empack7parsingNtB5_9ModLoader5parse
FNDA:3,_RNvMs_NtNtCs5BmVzKVgC1k_10empack_lib6empack7parsingNtB4_12ShaderLoader5parse
FNF:3
FNH:3
DA:27,4
DA:28,4
DA:29,4
DA:30,4
DA:31,4
DA:32,3
DA:33,2
DA:34,1
DA:35,1
DA:36,1
DA:38,4
DA:50,3
DA:51,3
DA:52,3
DA:53,3
DA:54,1
DA:55,1
DA:56,1
DA:58,3
DA:72,4
DA:73,4
DA:74,4
DA:75,3
DA:76,2
DA:77,1
DA:78,1
DA:80,4
BRF:0
BRH:0
LF:27
LH:27
end_of_record
SF:/Users/zer0cell/production/empack/crates/empack-lib/src/empack/parsing.test.rs
FN:29,_RNvNtNtNtCs5BmVzKVgC1k_10empack_lib6empack7parsing5testss_23test_mod_loader_parsing
FN:5,_RNvNtNtNtCs5BmVzKVgC1k_10empack_lib6empack7parsing5testss_23test_resolution_parsing
FN:22,_RNvNtNtNtCs5BmVzKVgC1k_10empack_lib6empack7parsing5testss_26test_shader_loader_parsing
FN:37,_RNvNtNtNtCs5BmVzKVgC1k_10empack_lib6empack7parsing5testss_29test_mod_loader_serialization
FNDA:1,_RNvNtNtNtCs5BmVzKVgC1k_10empack_lib6empack7parsing5testss_23test_mod_loader_parsing
FNDA:1,_RNvNtNtNtCs5BmVzKVgC1k_10empack_lib6empack7parsing5testss_23test_resolution_parsing
FNDA:1,_RNvNtNtNtCs5BmVzKVgC1k_10empack_lib6empack7parsing5testss_26test_shader_loader_parsing
FNDA:1,_RNvNtNtNtCs5BmVzKVgC1k_10empack_lib6empack7parsing5testss_29test_mod_loader_serialization
FNF:4
FNH:4
DA:5,1
DA:6,1
DA:7,1
DA:10,1
DA:11,1
DA:14,1
DA:15,1
DA:18,1
DA:19,1
DA:22,1
DA:23,1
DA:24,1
DA:25,1
DA:26,1
DA:29,1
DA:30,1
DA:31,1
DA:32,1
DA:33,1
DA:34,1
DA:37,1
DA:39,1
DA:40,1
DA:42,1
DA:43,1
DA:45,1
DA:46,1
DA:48,1
DA:49,1
DA:52,1
DA:53,1
DA:55,1
DA:56,1
DA:57,1
BRF:0
BRH:0
LF:34
LH:34
end_of_record
SF:/Users/zer0cell/production/empack/crates/empack-lib/src/empack/resolved_project.rs
FN:26,_RNvMNtNtCs5BmVzKVgC1k_10empack_lib6empack16resolved_projectNtB2_15ResolvedProject16confidence_score
FN:16,_RNvMNtNtCs5BmVzKVgC1k_10empack_lib6empack16resolved_projectNtB2_15ResolvedProject3new
FNDA:2,_RNvMNtNtCs5BmVzKVgC1k_10empack_lib6empack16resolved_projectNtB2_15ResolvedProject16confidence_score
FNDA:5,_RNvMNtNtCs5BmVzKVgC1k_10empack_lib6empack16resolved_projectNtB2_15ResolvedProject3new
FNF:2
FNH:2
DA:16,5
DA:17,5
DA:18,5
DA:19,5
DA:20,5
DA:21,5
DA:22,5
DA:23,5
DA:26,2
DA:28,2
DA:29,2
DA:30,1
DA:31,1
DA:32,1
DA:33,1
DA:34,1
DA:36,2
BRF:0
BRH:0
LF:17
LH:17
end_of_record
SF:/Users/zer0cell/production/empack/crates/empack-lib/src/empack/resolved_project.test.rs
FN:19,_RNvNtNtNtCs5BmVzKVgC1k_10empack_lib6empack16resolved_project5testss_23test_confidence_scoring
FN:38,_RNvNtNtNtCs5BmVzKVgC1k_10empack_lib6empack16resolved_project5testss_24test_platform_comparison
FN:4,_RNvNtNtNtCs5BmVzKVgC1k_10empack_lib6empack16resolved_project5testss_30test_resolved_project_creation
FNDA:1,_RNvNtNtNtCs5BmVzKVgC1k_10empack_lib6empack16resolved_project5testss_23test_confidence_scoring
FNDA:1,_RNvNtNtNtCs5BmVzKVgC1k_10empack_lib6empack16resolved_project5testss_24test_platform_comparison
FNDA:1,_RNvNtNtNtCs5BmVzKVgC1k_10empack_lib6empack16resolved_project5testss_30test_resolved_project_creation
FNF:3
FNH:3
DA:4,1
DA:5,1
DA:6,1
DA:7,1
DA:8,1
DA:12,1
DA:13,1
DA:14,1
DA:15,1
DA:16,1
DA:19,1
DA:20,1
DA:21,1
DA:22,1
DA:23,1
DA:26,1
DA:27,1
DA:28,1
DA:29,1
DA:33,1
DA:34,1
DA:35,1
DA:38,1
DA:39,1
DA:40,1
DA:41,1
DA:42,1
DA:45,1
DA:46,1
DA:47,1
DA:48,1
DA:52,1
DA:53,1
DA:54,1
DA:55,1
BRF:0
BRH:0
LF:35
LH:35
end_of_record
SF:/Users/zer0cell/production/empack/crates/empack-lib/src/empack/search.rs
FN:754,_RNCNvNtNtCshmQA5Mrgi1L_10empack_lib6empack6search17resolve_forge_mod0B7_
FN:691,_RNCNvNtNtCshmQA5Mrgi1L_10empack_lib6empack6search20resolve_modrinth_mod0B7_
FN:722,_RNCNvNtNtCshmQA5Mrgi1L_10empack_lib6empack6search22resolve_curseforge_mod0B7_
FN:360,_RNCNCNCNvMs_NtNtCshmQA5Mrgi1L_10empack_lib6empack6searchNtBa_15ProjectResolver15search_modrinth000Be_
FN:474,_RNCNCNvMs_NtNtCshmQA5Mrgi1L_10empack_lib6empack6searchNtB8_15ProjectResolver12search_forge00Bc_
FN:495,_RNCNCNvMs_NtNtCshmQA5Mrgi1L_10empack_lib6empack6searchNtB8_15ProjectResolver12search_forge0s_0Bc_
FN:357,_RNCNCNvMs_NtNtCshmQA5Mrgi1L_10empack_lib6empack6searchNtB8_15ProjectResolver15search_modrinth00Bc_
FN:315,_RNCNCNvMs_NtNtCshmQA5Mrgi1L_10empack_lib6empack6searchNtB8_15ProjectResolver15search_modrinth0s_0Bc_
FN:389,_RNCNCNvMs_NtNtCshmQA5Mrgi1L_10empack_lib6empack6searchNtB8_15ProjectResolver17search_curseforge00Bc_
FN:415,_RNCNCNvMs_NtNtCshmQA5Mrgi1L_10empack_lib6empack6searchNtB8_15ProjectResolver17search_curseforge0s_0Bc_
FN:469,_RNCNvMs_NtNtCshmQA5Mrgi1L_10empack_lib6empack6searchNtB6_15ProjectResolver12search_forge0Ba_
FN:589,_RNCNvMs_NtNtCshmQA5Mrgi1L_10empack_lib6empack6searchNtB6_15ProjectResolver15has_extra_words0Ba_
FN:594,_RNCNvMs_NtNtCshmQA5Mrgi1L_10empack_lib6empack6searchNtB6_15ProjectResolver15has_extra_wordss_0Ba_
FN:192,_RNCNvMs_NtNtCshmQA5Mrgi1L_10empack_lib6empack6searchNtB6_15ProjectResolver15resolve_project0Ba_
FN:299,_RNCNvMs_NtNtCshmQA5Mrgi1L_10empack_lib6empack6searchNtB6_15ProjectResolver15search_modrinth0Ba_
FN:384,_RNCNvMs_NtNtCshmQA5Mrgi1L_10empack_lib6empack6searchNtB6_15ProjectResolver17search_curseforge0Ba_
FN:179,_RNCNvMs_NtNtCshmQA5Mrgi1L_10empack_lib6empack6searchNtB6_15ProjectResolver18new_with_base_urls0Ba_
FN:181,_RNCNvMs_NtNtCshmQA5Mrgi1L_10empack_lib6empack6searchNtB6_15ProjectResolver18new_with_base_urlss_0Ba_
FN:674,_RNCNvXs0_NtNtCshmQA5Mrgi1L_10empack_lib6empack6searchNtB7_15ProjectResolverNtB7_20ProjectResolverTrait15resolve_project0Bb_
FN:676,_RNCNvXs0_NtNtCshmQA5Mrgi1L_10empack_lib6empack6searchNtB7_15ProjectResolverNtB7_20ProjectResolverTrait15resolve_projects0_0Bb_
FN:678,_RNCNvXs0_NtNtCshmQA5Mrgi1L_10empack_lib6empack6searchNtB7_15ProjectResolverNtB7_20ProjectResolverTrait15resolve_projects1_0Bb_
FN:675,_RNCNvXs0_NtNtCshmQA5Mrgi1L_10empack_lib6empack6searchNtB7_15ProjectResolverNtB7_20ProjectResolverTrait15resolve_projects_0Bb_
FN:463,_RNvMs_NtNtCshmQA5Mrgi1L_10empack_lib6empack6searchNtB4_15ProjectResolver12search_forge
FN:584,_RNvMs_NtNtCshmQA5Mrgi1L_10empack_lib6empack6searchNtB4_15ProjectResolver15has_extra_words
FN:186,_RNvMs_NtNtCshmQA5Mrgi1L_10empack_lib6empack6searchNtB4_15ProjectResolver15resolve_project
FN:293,_RNvMs_NtNtCshmQA5Mrgi1L_10empack_lib6empack6searchNtB4_15ProjectResolver15search_modrinth
FN:378,_RNvMs_NtNtCshmQA5Mrgi1L_10empack_lib6empack6searchNtB4_15ProjectResolver17search_curseforge
FN:169,_RNvMs_NtNtCshmQA5Mrgi1L_10empack_lib6empack6searchNtB4_15ProjectResolver18new_with_base_urls
FN:644,_RNvMs_NtNtCshmQA5Mrgi1L_10empack_lib6empack6searchNtB4_15ProjectResolver19curseforge_class_id
FN:543,_RNvMs_NtNtCshmQA5Mrgi1L_10empack_lib6empack6searchNtB4_15ProjectResolver20calculate_confidence
FN:654,_RNvMs_NtNtCshmQA5Mrgi1L_10empack_lib6empack6searchNtB4_15ProjectResolver20curseforge_loader_id
FN:606,_RNvMs_NtNtCshmQA5Mrgi1L_10empack_lib6empack6searchNtB4_15ProjectResolver20levenshtein_distance
FN:635,_RNvMs_NtNtCshmQA5Mrgi1L_10empack_lib6empack6searchNtB4_15ProjectResolver22normalize_project_type
FN:158,_RNvMs_NtNtCshmQA5Mrgi1L_10empack_lib6empack6searchNtB4_15ProjectResolver3new
FN:750,_RNvNtNtCshmQA5Mrgi1L_10empack_lib6empack6search17resolve_forge_mod
FN:691,_RNvNtNtCshmQA5Mrgi1L_10empack_lib6empack6search20resolve_modrinth_mod
FN:718,_RNvNtNtCshmQA5Mrgi1L_10empack_lib6empack6search22resolve_curseforge_mod
FN:80,_RNvXNtNtCshmQA5Mrgi1L_10empack_lib6empack6searchNtB2_8PlatformNtNtCsj3QBrvpYeJs_4core3fmt7Display3fmt
FN:666,_RNvXs0_NtNtCshmQA5Mrgi1L_10empack_lib6empack6searchNtB5_15ProjectResolverNtB5_20ProjectResolverTrait15resolve_project
FN:360,_RNCNCNCNvMs_NtNtCs5BmVzKVgC1k_10empack_lib6empack6searchNtBa_15ProjectResolver15search_modrinth000Be_
FN:474,_RNCNCNvMs_NtNtCs5BmVzKVgC1k_10empack_lib6empack6searchNtB8_15ProjectResolver12search_forge00Bc_
FN:495,_RNCNCNvMs_NtNtCs5BmVzKVgC1k_10empack_lib6empack6searchNtB8_15ProjectResolver12search_forge0s_0Bc_
FN:357,_RNCNCNvMs_NtNtCs5BmVzKVgC1k_10empack_lib6empack6searchNtB8_15ProjectResolver15search_modrinth00Bc_
FN:315,_RNCNCNvMs_NtNtCs5BmVzKVgC1k_10empack_lib6empack6searchNtB8_15ProjectResolver15search_modrinth0s_0Bc_
FN:389,_RNCNCNvMs_NtNtCs5BmVzKVgC1k_10empack_lib6empack6searchNtB8_15ProjectResolver17search_curseforge00Bc_
FN:415,_RNCNCNvMs_NtNtCs5BmVzKVgC1k_10empack_lib6empack6searchNtB8_15ProjectResolver17search_curseforge0s_0Bc_
FN:469,_RNCNvMs_NtNtCs5BmVzKVgC1k_10empack_lib6empack6searchNtB6_15ProjectResolver12search_forge0Ba_
FN:192,_RNCNvMs_NtNtCs5BmVzKVgC1k_10empack_lib6empack6searchNtB6_15ProjectResolver15resolve_project0Ba_
FN:299,_RNCNvMs_NtNtCs5BmVzKVgC1k_10empack_lib6empack6searchNtB6_15ProjectResolver15search_modrinth0Ba_
FN:384,_RNCNvMs_NtNtCs5BmVzKVgC1k_10empack_lib6empack6searchNtB6_15ProjectResolver17search_curseforge0Ba_
FN:179,_RNCNvMs_NtNtCs5BmVzKVgC1k_10empack_lib6empack6searchNtB6_15ProjectResolver18new_with_base_urls0Ba_
FN:181,_RNCNvMs_NtNtCs5BmVzKVgC1k_10empack_lib6empack6searchNtB6_15ProjectResolver18new_with_base_urlss_0Ba_
FN:754,_RNCNvNtNtCs5BmVzKVgC1k_10empack_lib6empack6search17resolve_forge_mod0B7_
FN:691,_RNCNvNtNtCs5BmVzKVgC1k_10empack_lib6empack6search20resolve_modrinth_mod0B7_
FN:722,_RNCNvNtNtCs5BmVzKVgC1k_10empack_lib6empack6search22resolve_curseforge_mod0B7_
FN:674,_RNCNvXs0_NtNtCs5BmVzKVgC1k_10empack_lib6empack6searchNtB7_15ProjectResolverNtB7_20ProjectResolverTrait15resolve_project0Bb_
FN:676,_RNCNvXs0_NtNtCs5BmVzKVgC1k_10empack_lib6empack6searchNtB7_15ProjectResolverNtB7_20ProjectResolverTrait15resolve_projects0_0Bb_
FN:678,_RNCNvXs0_NtNtCs5BmVzKVgC1k_10empack_lib6empack6searchNtB7_15ProjectResolverNtB7_20ProjectResolverTrait15resolve_projects1_0Bb_
FN:675,_RNCNvXs0_NtNtCs5BmVzKVgC1k_10empack_lib6empack6searchNtB7_15ProjectResolverNtB7_20ProjectResolverTrait15resolve_projects_0Bb_
FN:463,_RNvMs_NtNtCs5BmVzKVgC1k_10empack_lib6empack6searchNtB4_15ProjectResolver12search_forge
FN:186,_RNvMs_NtNtCs5BmVzKVgC1k_10empack_lib6empack6searchNtB4_15ProjectResolver15resolve_project
FN:293,_RNvMs_NtNtCs5BmVzKVgC1k_10empack_lib6empack6searchNtB4_15ProjectResolver15search_modrinth
FN:378,_RNvMs_NtNtCs5BmVzKVgC1k_10empack_lib6empack6searchNtB4_15ProjectResolver17search_curseforge
FN:169,_RNvMs_NtNtCs5BmVzKVgC1k_10empack_lib6empack6searchNtB4_15ProjectResolver18new_with_base_urls
FN:750,_RNvNtNtCs5BmVzKVgC1k_10empack_lib6empack6search17resolve_forge_mod
FN:691,_RNvNtNtCs5BmVzKVgC1k_10empack_lib6empack6search20resolve_modrinth_mod
FN:718,_RNvNtNtCs5BmVzKVgC1k_10empack_lib6empack6search22resolve_curseforge_mod
FN:666,_RNvXs0_NtNtCs5BmVzKVgC1k_10empack_lib6empack6searchNtB5_15ProjectResolverNtB5_20ProjectResolverTrait15resolve_project
FN:589,_RNCNvMs_NtNtCs5BmVzKVgC1k_10empack_lib6empack6searchNtB6_15ProjectResolver15has_extra_words0Ba_
FN:594,_RNCNvMs_NtNtCs5BmVzKVgC1k_10empack_lib6empack6searchNtB6_15ProjectResolver15has_extra_wordss_0Ba_
FN:584,_RNvMs_NtNtCs5BmVzKVgC1k_10empack_lib6empack6searchNtB4_15ProjectResolver15has_extra_words
FN:644,_RNvMs_NtNtCs5BmVzKVgC1k_10empack_lib6empack6searchNtB4_15ProjectResolver19curseforge_class_id
FN:543,_RNvMs_NtNtCs5BmVzKVgC1k_10empack_lib6empack6searchNtB4_15ProjectResolver20calculate_confidence
FN:654,_RNvMs_NtNtCs5BmVzKVgC1k_10empack_lib6empack6searchNtB4_15ProjectResolver20curseforge_loader_id
FN:606,_RNvMs_NtNtCs5BmVzKVgC1k_10empack_lib6empack6searchNtB4_15ProjectResolver20levenshtein_distance
FN:635,_RNvMs_NtNtCs5BmVzKVgC1k_10empack_lib6empack6searchNtB4_15ProjectResolver22normalize_project_type
FN:158,_RNvMs_NtNtCs5BmVzKVgC1k_10empack_lib6empack6searchNtB4_15ProjectResolver3new
FN:80,_RNvXNtNtCs5BmVzKVgC1k_10empack_lib6empack6searchNtB2_8PlatformNtNtCsj3QBrvpYeJs_4core3fmt7Display3fmt
FNDA:0,_RNCNvNtNtCshmQA5Mrgi1L_10empack_lib6empack6search17resolve_forge_mod0B7_
FNDA:0,_RNCNvNtNtCshmQA5Mrgi1L_10empack_lib6empack6search20resolve_modrinth_mod0B7_
FNDA:0,_RNCNvNtNtCshmQA5Mrgi1L_10empack_lib6empack6search22resolve_curseforge_mod0B7_
FNDA:0,_RNCNCNCNvMs_NtNtCshmQA5Mrgi1L_10empack_lib6empack6searchNtBa_15ProjectResolver15search_modrinth000Be_
FNDA:0,_RNCNCNvMs_NtNtCshmQA5Mrgi1L_10empack_lib6empack6searchNtB8_15ProjectResolver12search_forge00Bc_
FNDA:0,_RNCNCNvMs_NtNtCshmQA5Mrgi1L_10empack_lib6empack6searchNtB8_15ProjectResolver12search_forge0s_0Bc_
FNDA:0,_RNCNCNvMs_NtNtCshmQA5Mrgi1L_10empack_lib6empack6searchNtB8_15ProjectResolver15search_modrinth00Bc_
FNDA:1,_RNCNCNvMs_NtNtCshmQA5Mrgi1L_10empack_lib6empack6searchNtB8_15ProjectResolver15search_modrinth0s_0Bc_
FNDA:0,_RNCNCNvMs_NtNtCshmQA5Mrgi1L_10empack_lib6empack6searchNtB8_15ProjectResolver17search_curseforge00Bc_
FNDA:0,_RNCNCNvMs_NtNtCshmQA5Mrgi1L_10empack_lib6empack6searchNtB8_15ProjectResolver17search_curseforge0s_0Bc_
FNDA:0,_RNCNvMs_NtNtCshmQA5Mrgi1L_10empack_lib6empack6searchNtB6_15ProjectResolver12search_forge0Ba_
FNDA:6,_RNCNvMs_NtNtCshmQA5Mrgi1L_10empack_lib6empack6searchNtB6_15ProjectResolver15has_extra_words0Ba_
FNDA:6,_RNCNvMs_NtNtCshmQA5Mrgi1L_10empack_lib6empack6searchNtB6_15ProjectResolver15has_extra_wordss_0Ba_
FNDA:1,_RNCNvMs_NtNtCshmQA5Mrgi1L_10empack_lib6empack6searchNtB6_15ProjectResolver15resolve_project0Ba_
FNDA:1,_RNCNvMs_NtNtCshmQA5Mrgi1L_10empack_lib6empack6searchNtB6_15ProjectResolver15search_modrinth0Ba_
FNDA:0,_RNCNvMs_NtNtCshmQA5Mrgi1L_10empack_lib6empack6searchNtB6_15ProjectResolver17search_curseforge0Ba_
FNDA:0,_RNCNvMs_NtNtCshmQA5Mrgi1L_10empack_lib6empack6searchNtB6_15ProjectResolver18new_with_base_urls0Ba_
FNDA:1,_RNCNvMs_NtNtCshmQA5Mrgi1L_10empack_lib6empack6searchNtB6_15ProjectResolver18new_with_base_urlss_0Ba_
FNDA:1,_RNCNvXs0_NtNtCshmQA5Mrgi1L_10empack_lib6empack6searchNtB7_15ProjectResolverNtB7_20ProjectResolverTrait15resolve_project0Bb_
FNDA:0,_RNCNvXs0_NtNtCshmQA5Mrgi1L_10empack_lib6empack6searchNtB7_15ProjectResolverNtB7_20ProjectResolverTrait15resolve_projects0_0Bb_
FNDA:1,_RNCNvXs0_NtNtCshmQA5Mrgi1L_10empack_lib6empack6searchNtB7_15ProjectResolverNtB7_20ProjectResolverTrait15resolve_projects1_0Bb_
FNDA:0,_RNCNvXs0_NtNtCshmQA5Mrgi1L_10empack_lib6empack6searchNtB7_15ProjectResolverNtB7_20ProjectResolverTrait15resolve_projects_0Bb_
FNDA:0,_RNvMs_NtNtCshmQA5Mrgi1L_10empack_lib6empack6searchNtB4_15ProjectResolver12search_forge
FNDA:1,_RNvMs_NtNtCshmQA5Mrgi1L_10empack_lib6empack6searchNtB4_15ProjectResolver15has_extra_words
FNDA:1,_RNvMs_NtNtCshmQA5Mrgi1L_10empack_lib6empack6searchNtB4_15ProjectResolver15resolve_project
FNDA:1,_RNvMs_NtNtCshmQA5Mrgi1L_10empack_lib6empack6searchNtB4_15ProjectResolver15search_modrinth
FNDA:0,_RNvMs_NtNtCshmQA5Mrgi1L_10empack_lib6empack6searchNtB4_15ProjectResolver17search_curseforge
FNDA:1,_RNvMs_NtNtCshmQA5Mrgi1L_10empack_lib6empack6searchNtB4_15ProjectResolver18new_with_base_urls
FNDA:0,_RNvMs_NtNtCshmQA5Mrgi1L_10empack_lib6empack6searchNtB4_15ProjectResolver19curseforge_class_id
FNDA:1,_RNvMs_NtNtCshmQA5Mrgi1L_10empack_lib6empack6searchNtB4_15ProjectResolver20calculate_confidence
FNDA:0,_RNvMs_NtNtCshmQA5Mrgi1L_10empack_lib6empack6searchNtB4_15ProjectResolver20curseforge_loader_id
FNDA:0,_RNvMs_NtNtCshmQA5Mrgi1L_10empack_lib6empack6searchNtB4_15ProjectResolver20levenshtein_distance
FNDA:1,_RNvMs_NtNtCshmQA5Mrgi1L_10empack_lib6empack6searchNtB4_15ProjectResolver22normalize_project_type
FNDA:0,_RNvMs_NtNtCshmQA5Mrgi1L_10empack_lib6empack6searchNtB4_15ProjectResolver3new
FNDA:0,_RNvNtNtCshmQA5Mrgi1L_10empack_lib6empack6search17resolve_forge_mod
FNDA:0,_RNvNtNtCshmQA5Mrgi1L_10empack_lib6empack6search20resolve_modrinth_mod
FNDA:0,_RNvNtNtCshmQA5Mrgi1L_10empack_lib6empack6search22resolve_curseforge_mod
FNDA:2,_RNvXNtNtCshmQA5Mrgi1L_10empack_lib6empack6searchNtB2_8PlatformNtNtCsj3QBrvpYeJs_4core3fmt7Display3fmt
FNDA:1,_RNvXs0_NtNtCshmQA5Mrgi1L_10empack_lib6empack6searchNtB5_15ProjectResolverNtB5_20ProjectResolverTrait15resolve_project
FNDA:0,_RNCNCNCNvMs_NtNtCs5BmVzKVgC1k_10empack_lib6empack6searchNtBa_15ProjectResolver15search_modrinth000Be_
FNDA:0,_RNCNCNvMs_NtNtCs5BmVzKVgC1k_10empack_lib6empack6searchNtB8_15ProjectResolver12search_forge00Bc_
FNDA:0,_RNCNCNvMs_NtNtCs5BmVzKVgC1k_10empack_lib6empack6searchNtB8_15ProjectResolver12search_forge0s_0Bc_
FNDA:0,_RNCNCNvMs_NtNtCs5BmVzKVgC1k_10empack_lib6empack6searchNtB8_15ProjectResolver15search_modrinth00Bc_
FNDA:0,_RNCNCNvMs_NtNtCs5BmVzKVgC1k_10empack_lib6empack6searchNtB8_15ProjectResolver15search_modrinth0s_0Bc_
FNDA:0,_RNCNCNvMs_NtNtCs5BmVzKVgC1k_10empack_lib6empack6searchNtB8_15ProjectResolver17search_curseforge00Bc_
FNDA:0,_RNCNCNvMs_NtNtCs5BmVzKVgC1k_10empack_lib6empack6searchNtB8_15ProjectResolver17search_curseforge0s_0Bc_
FNDA:0,_RNCNvMs_NtNtCs5BmVzKVgC1k_10empack_lib6empack6searchNtB6_15ProjectResolver12search_forge0Ba_
FNDA:0,_RNCNvMs_NtNtCs5BmVzKVgC1k_10empack_lib6empack6searchNtB6_15ProjectResolver15resolve_project0Ba_
FNDA:0,_RNCNvMs_NtNtCs5BmVzKVgC1k_10empack_lib6empack6searchNtB6_15ProjectResolver15search_modrinth0Ba_
FNDA:0,_RNCNvMs_NtNtCs5BmVzKVgC1k_10empack_lib6empack6searchNtB6_15ProjectResolver17search_curseforge0Ba_
FNDA:0,_RNCNvMs_NtNtCs5BmVzKVgC1k_10empack_lib6empack6searchNtB6_15ProjectResolver18new_with_base_urls0Ba_
FNDA:0,_RNCNvMs_NtNtCs5BmVzKVgC1k_10empack_lib6empack6searchNtB6_15ProjectResolver18new_with_base_urlss_0Ba_
FNDA:0,_RNCNvNtNtCs5BmVzKVgC1k_10empack_lib6empack6search17resolve_forge_mod0B7_
FNDA:0,_RNCNvNtNtCs5BmVzKVgC1k_10empack_lib6empack6search20resolve_modrinth_mod0B7_
FNDA:0,_RNCNvNtNtCs5BmVzKVgC1k_10empack_lib6empack6search22resolve_curseforge_mod0B7_
FNDA:0,_RNCNvXs0_NtNtCs5BmVzKVgC1k_10empack_lib6empack6searchNtB7_15ProjectResolverNtB7_20ProjectResolverTrait15resolve_project0Bb_
FNDA:0,_RNCNvXs0_NtNtCs5BmVzKVgC1k_10empack_lib6empack6searchNtB7_15ProjectResolverNtB7_20ProjectResolverTrait15resolve_projects0_0Bb_
FNDA:0,_RNCNvXs0_NtNtCs5BmVzKVgC1k_10empack_lib6empack6searchNtB7_15ProjectResolverNtB7_20ProjectResolverTrait15resolve_projects1_0Bb_
FNDA:0,_RNCNvXs0_NtNtCs5BmVzKVgC1k_10empack_lib6empack6searchNtB7_15ProjectResolverNtB7_20ProjectResolverTrait15resolve_projects_0Bb_
FNDA:0,_RNvMs_NtNtCs5BmVzKVgC1k_10empack_lib6empack6searchNtB4_15ProjectResolver12search_forge
FNDA:0,_RNvMs_NtNtCs5BmVzKVgC1k_10empack_lib6empack6searchNtB4_15ProjectResolver15resolve_project
FNDA:0,_RNvMs_NtNtCs5BmVzKVgC1k_10empack_lib6empack6searchNtB4_15ProjectResolver15search_modrinth
FNDA:0,_RNvMs_NtNtCs5BmVzKVgC1k_10empack_lib6empack6searchNtB4_15ProjectResolver17search_curseforge
FNDA:0,_RNvMs_NtNtCs5BmVzKVgC1k_10empack_lib6empack6searchNtB4_15ProjectResolver18new_with_base_urls
FNDA:0,_RNvNtNtCs5BmVzKVgC1k_10empack_lib6empack6search17resolve_forge_mod
FNDA:0,_RNvNtNtCs5BmVzKVgC1k_10empack_lib6empack6search20resolve_modrinth_mod
FNDA:0,_RNvNtNtCs5BmVzKVgC1k_10empack_lib6empack6search22resolve_curseforge_mod
FNDA:0,_RNvXs0_NtNtCs5BmVzKVgC1k_10empack_lib6empack6searchNtB5_15ProjectResolverNtB5_20ProjectResolverTrait15resolve_project
FNDA:88,_RNCNvMs_NtNtCs5BmVzKVgC1k_10empack_lib6empack6searchNtB6_15ProjectResolver15has_extra_words0Ba_
FNDA:216,_RNCNvMs_NtNtCs5BmVzKVgC1k_10empack_lib6empack6searchNtB6_15ProjectResolver15has_extra_wordss_0Ba_
FNDA:19,_RNvMs_NtNtCs5BmVzKVgC1k_10empack_lib6empack6searchNtB4_15ProjectResolver15has_extra_words
FNDA:4,_RNvMs_NtNtCs5BmVzKVgC1k_10empack_lib6empack6searchNtB4_15ProjectResolver19curseforge_class_id
FNDA:20,_RNvMs_NtNtCs5BmVzKVgC1k_10empack_lib6empack6searchNtB4_15ProjectResolver20calculate_confidence
FNDA:5,_RNvMs_NtNtCs5BmVzKVgC1k_10empack_lib6empack6searchNtB4_15ProjectResolver20curseforge_loader_id
FNDA:12,_RNvMs_NtNtCs5BmVzKVgC1k_10empack_lib6empack6searchNtB4_15ProjectResolver20levenshtein_distance
FNDA:3,_RNvMs_NtNtCs5BmVzKVgC1k_10empack_lib6empack6searchNtB4_15ProjectResolver22normalize_project_type
FNDA:13,_RNvMs_NtNtCs5BmVzKVgC1k_10empack_lib6empack6searchNtB4_15ProjectResolver3new
FNDA:1,_RNvXNtNtCs5BmVzKVgC1k_10empack_lib6empack6searchNtB2_8PlatformNtNtCsj3QBrvpYeJs_4core3fmt7Display3fmt
FNF:39
FNH:20
DA:80,3
DA:81,3
DA:82,3
DA:83,0
DA:84,0
DA:86,3
DA:158,13
DA:159,13
DA:160,13
DA:161,13
DA:162,13
DA:163,13
DA:164,13
DA:165,13
DA:169,1
DA:170,1
DA:171,1
DA:172,1
DA:173,1
DA:174,1
DA:176,1
DA:177,1
DA:178,1
DA:179,1
DA:180,1
DA:181,1
DA:183,1
DA:186,1
DA:187,1
DA:188,1
DA:189,1
DA:190,1
DA:191,1
DA:192,1
DA:193,1
DA:195,1
DA:198,1
DA:199,1
DA:200,1
DA:202,1
DA:203,1
DA:204,1
DA:205,1
DA:207,1
DA:208,1
DA:210,1
DA:211,0
DA:214,1
DA:216,0
DA:217,0
DA:222,0
DA:223,0
DA:228,0
DA:229,0
DA:230,0
DA:232,0
DA:233,0
DA:234,0
DA:235,0
DA:237,0
DA:238,0
DA:240,0
DA:241,0
DA:244,0
DA:246,0
DA:247,0
DA:252,0
DA:253,0
DA:258,0
DA:259,0
DA:260,0
DA:262,0
DA:263,0
DA:264,0
DA:265,0
DA:267,0
DA:268,0
DA:270,0
DA:271,0
DA:274,0
DA:276,0
DA:277,0
DA:282,0
DA:283,0
DA:287,0
DA:288,0
DA:289,0
DA:290,1
DA:293,1
DA:294,1
DA:295,1
DA:296,1
DA:297,1
DA:298,1
DA:299,1
DA:300,1
DA:301,1
DA:303,1
DA:304,0
DA:305,1
DA:307,1
DA:308,0
DA:309,1
DA:311,1
DA:312,1
DA:313,1
DA:314,1
DA:315,1
DA:316,1
DA:317,1
DA:320,1
DA:321,1
DA:323,1
DA:324,1
DA:327,1
DA:329,1
DA:330,1
DA:331,1
DA:332,1
DA:333,1
DA:334,1
DA:336,1
DA:337,0
DA:338,0
DA:339,0
DA:340,0
DA:341,0
DA:342,1
DA:344,1
DA:346,1
DA:347,0
DA:348,0
DA:349,0
DA:350,1
DA:353,1
DA:354,0
DA:355,0
DA:356,0
DA:357,0
DA:358,0
DA:359,0
DA:360,0
DA:361,0
DA:362,0
DA:364,1
DA:367,1
DA:368,1
DA:369,1
DA:370,1
DA:371,1
DA:372,1
DA:373,1
DA:374,1
DA:375,1
DA:378,0
DA:379,0
DA:380,0
DA:381,0
DA:382,0
DA:383,0
DA:384,0
DA:385,0
DA:386,0
DA:387,0
DA:388,0
DA:389,0
DA:390,0
DA:392,0
DA:393,0
DA:395,0
DA:396,0
DA:397,0
DA:398,0
DA:399,0
DA:400,0
DA:403,0
DA:404,0
DA:405,0
DA:407,0
DA:408,0
DA:409,0
DA:410,0
DA:411,0
DA:413,0
DA:414,0
DA:415,0
DA:416,0
DA:417,0
DA:419,0
DA:420,0
DA:424,0
DA:426,0
DA:427,0
DA:428,0
DA:429,0
DA:430,0
DA:431,0
DA:432,0
DA:434,0
DA:435,0
DA:436,0
DA:437,0
DA:438,0
DA:439,0
DA:440,0
DA:442,0
DA:444,0
DA:445,0
DA:446,0
DA:447,0
DA:448,0
DA:450,0
DA:452,0
DA:453,0
DA:454,0
DA:455,0
DA:456,0
DA:457,0
DA:458,0
DA:459,0
DA:460,0
DA:463,0
DA:464,0
DA:465,0
DA:466,0
DA:467,0
DA:468,0
DA:469,0
DA:470,0
DA:471,0
DA:472,0
DA:473,0
DA:474,0
DA:475,0
DA:477,0
DA:478,0
DA:480,0
DA:481,0
DA:482,0
DA:483,0
DA:484,0
DA:485,0
DA:486,0
DA:489,0
DA:490,0
DA:491,0
DA:493,0
DA:494,0
DA:495,0
DA:496,0
DA:497,0
DA:499,0
DA:500,0
DA:504,0
DA:506,0
DA:507,0
DA:508,0
DA:509,0
DA:510,0
DA:511,0
DA:512,0
DA:514,0
DA:515,0
DA:516,0
DA:517,0
DA:518,0
DA:519,0
DA:520,0
DA:522,0
DA:524,0
DA:525,0
DA:526,0
DA:527,0
DA:528,0
DA:530,0
DA:532,0
DA:533,0
DA:534,0
DA:535,0
DA:536,0
DA:537,0
DA:538,0
DA:539,0
DA:540,0
DA:543,21
DA:545,21
DA:546,21
DA:549,21
DA:550,7
DA:551,14
DA:554,14
DA:555,11
DA:557,11
DA:558,7
DA:560,4
DA:562,11
DA:563,3
DA:566,3
DA:567,3
DA:569,3
DA:570,0
DA:571,3
DA:573,3
DA:574,3
DA:575,3
DA:577,0
DA:580,3
DA:581,21
DA:584,20
DA:586,20
DA:587,20
DA:588,20
DA:589,94
DA:590,20
DA:591,20
DA:592,20
DA:593,20
DA:594,222
DA:595,20
DA:597,20
DA:598,2
DA:599,18
DA:601,18
DA:602,18
DA:603,20
DA:606,12
DA:607,12
DA:608,12
DA:609,12
DA:611,142
DA:612,142
DA:613,142
DA:614,172
DA:615,172
DA:616,172
DA:618,130
DA:619,10268
DA:620,10268
DA:621,10268
DA:622,10268
DA:623,10268
DA:624,10268
DA:625,10268
DA:626,10268
DA:627,10268
DA:631,12
DA:632,12
DA:635,4
DA:636,4
DA:637,4
DA:638,3
DA:639,2
DA:641,4
DA:644,4
DA:645,4
DA:646,4
DA:647,3
DA:648,2
DA:649,1
DA:651,4
DA:654,5
DA:655,5
DA:656,5
DA:657,4
DA:658,3
DA:659,2
DA:660,1
DA:662,5
DA:666,1
DA:667,1
DA:668,1
DA:669,1
DA:670,1
DA:671,1
DA:672,1
DA:673,1
DA:674,1
DA:675,1
DA:676,1
DA:678,1
DA:679,1
DA:680,1
DA:681,1
DA:682,1
DA:683,1
DA:684,1
DA:685,1
DA:686,1
DA:687,1
DA:691,0
DA:692,0
DA:694,0
DA:696,0
DA:697,0
DA:698,0
DA:699,0
DA:700,0
DA:702,0
DA:703,0
DA:704,0
DA:705,0
DA:706,0
DA:707,0
DA:708,0
DA:709,0
DA:711,0
DA:712,0
DA:714,0
DA:715,0
DA:718,0
DA:719,0
DA:720,0
DA:721,0
DA:722,0
DA:723,0
DA:725,0
DA:727,0
DA:728,0
DA:729,0
DA:730,0
DA:731,0
DA:732,0
DA:734,0
DA:735,0
DA:736,0
DA:737,0
DA:738,0
DA:739,0
DA:740,0
DA:741,0
DA:743,0
DA:744,0
DA:746,0
DA:747,0
DA:750,0
DA:751,0
DA:752,0
DA:753,0
DA:754,0
DA:755,0
DA:757,0
DA:759,0
DA:760,0
DA:761,0
DA:762,0
DA:763,0
DA:764,0
DA:766,0
DA:767,0
DA:768,0
DA:769,0
DA:771,0
DA:772,0
DA:773,0
DA:774,0
DA:775,0
DA:776,0
DA:778,0
DA:779,0
DA:780,0
DA:784,0
DA:785,0
BRF:0
BRH:0
LF:484
LH:204
end_of_record
SF:/Users/zer0cell/production/empack/crates/empack-lib/src/empack/search.test.rs
FN:161,_RNvNtNtNtCs5BmVzKVgC1k_10empack_lib6empack6search5testss_24test_curseforge_class_id
FN:171,_RNvNtNtNtCs5BmVzKVgC1k_10empack_lib6empack6search5testss_25test_curseforge_loader_id
FN:131,_RNvNtNtNtCs5BmVzKVgC1k_10empack_lib6empack6search5testss_25test_levenshtein_distance
FN:149,_RNvNtNtNtCs5BmVzKVgC1k_10empack_lib6empack6search5testss_27test_normalize_project_type
FN:101,_RNvNtNtNtCs5BmVzKVgC1k_10empack_lib6empack6search5testss_31test_has_extra_words_edge_cases
FN:76,_RNvNtNtNtCs5BmVzKVgC1k_10empack_lib6empack6search5testss_33test_has_extra_words_normal_cases
FN:117,_RNvNtNtNtCs5BmVzKVgC1k_10empack_lib6empack6search5testss_34test_has_extra_words_normalization
FN:56,_RNvNtNtNtCs5BmVzKVgC1k_10empack_lib6empack6search5testss_36test_calculate_confidence_edge_cases
FN:4,_RNvNtNtNtCs5BmVzKVgC1k_10empack_lib6empack6search5testss_37test_calculate_confidence_exact_match
FN:15,_RNvNtNtNtCs5BmVzKVgC1k_10empack_lib6empack6search5testss_40test_calculate_confidence_contains_match
FN:45,_RNvNtNtNtCs5BmVzKVgC1k_10empack_lib6empack6search5testss_40test_calculate_confidence_download_boost
FN:91,_RNvNtNtNtCs5BmVzKVgC1k_10empack_lib6empack6search5testss_40test_has_extra_words_excessive_expansion
FN:32,_RNvNtNtNtCs5BmVzKVgC1k_10empack_lib6empack6search5testss_46test_calculate_confidence_levenshtein_distance
FNDA:1,_RNvNtNtNtCs5BmVzKVgC1k_10empack_lib6empack6search5testss_24test_curseforge_class_id
FNDA:1,_RNvNtNtNtCs5BmVzKVgC1k_10empack_lib6empack6search5testss_25test_curseforge_loader_id
FNDA:1,_RNvNtNtNtCs5BmVzKVgC1k_10empack_lib6empack6search5testss_25test_levenshtein_distance
FNDA:1,_RNvNtNtNtCs5BmVzKVgC1k_10empack_lib6empack6search5testss_27test_normalize_project_type
FNDA:1,_RNvNtNtNtCs5BmVzKVgC1k_10empack_lib6empack6search5testss_31test_has_extra_words_edge_cases
FNDA:1,_RNvNtNtNtCs5BmVzKVgC1k_10empack_lib6empack6search5testss_33test_has_extra_words_normal_cases
FNDA:1,_RNvNtNtNtCs5BmVzKVgC1k_10empack_lib6empack6search5testss_34test_has_extra_words_normalization
FNDA:1,_RNvNtNtNtCs5BmVzKVgC1k_10empack_lib6empack6search5testss_36test_calculate_confidence_edge_cases
FNDA:1,_RNvNtNtNtCs5BmVzKVgC1k_10empack_lib6empack6search5testss_37test_calculate_confidence_exact_match
FNDA:1,_RNvNtNtNtCs5BmVzKVgC1k_10empack_lib6empack6search5testss_40test_calculate_confidence_contains_match
FNDA:1,_RNvNtNtNtCs5BmVzKVgC1k_10empack_lib6empack6search5testss_40test_calculate_confidence_download_boost
FNDA:1,_RNvNtNtNtCs5BmVzKVgC1k_10empack_lib6empack6search5testss_40test_has_extra_words_excessive_expansion
FNDA:1,_RNvNtNtNtCs5BmVzKVgC1k_10empack_lib6empack6search5testss_46test_calculate_confidence_levenshtein_distance
FNF:13
FNH:13
DA:4,1
DA:5,1
DA:8,1
DA:9,1
DA:10,1
DA:11,1
DA:12,1
DA:15,1
DA:16,1
DA:19,1
DA:20,1
DA:23,1
DA:24,1
DA:27,1
DA:28,1
DA:29,1
DA:32,1
DA:33,1
DA:36,1
DA:37,1
DA:40,1
DA:41,1
DA:42,1
DA:45,1
DA:46,1
DA:49,1
DA:50,1
DA:52,1
DA:53,1
DA:56,1
DA:57,1
DA:60,1
DA:63,1
DA:64,1
DA:66,1
DA:67,1
DA:70,1
DA:71,1
DA:72,1
DA:73,1
DA:76,1
DA:77,1
DA:80,1
DA:81,1
DA:82,1
DA:83,1
DA:86,1
DA:87,1
DA:88,1
DA:91,1
DA:92,1
DA:95,1
DA:96,1
DA:97,1
DA:98,1
DA:101,1
DA:102,1
DA:105,1
DA:106,1
DA:109,1
DA:110,1
DA:113,1
DA:114,1
DA:117,1
DA:118,1
DA:121,1
DA:122,1
DA:123,1
DA:126,1
DA:127,1
DA:128,1
DA:131,1
DA:132,1
DA:135,1
DA:136,1
DA:137,1
DA:138,1
DA:139,1
DA:140,1
DA:141,1
DA:144,1
DA:145,1
DA:146,1
DA:149,1
DA:150,1
DA:152,1
DA:153,1
DA:156,1
DA:157,1
DA:158,1
DA:161,1
DA:162,1
DA:164,1
DA:165,1
DA:166,1
DA:167,1
DA:168,1
DA:171,1
DA:172,1
DA:174,1
DA:175,1
DA:176,1
DA:177,1
DA:178,1
DA:179,1
BRF:0
BRH:0
LF:105
LH:105
end_of_record
SF:/Users/zer0cell/production/empack/crates/empack-lib/src/empack/search_intent.rs
FN:24,_RNvMNtNtCshmQA5Mrgi1L_10empack_lib6empack13search_intentNtB2_16BaseSearchIntent13query_display
FN:19,_RNvMNtNtCshmQA5Mrgi1L_10empack_lib6empack13search_intentNtB2_16BaseSearchIntent13query_encoded
FN:11,_RNvMNtNtCshmQA5Mrgi1L_10empack_lib6empack13search_intentNtB2_16BaseSearchIntent3new
FN:55,_RNvMs_NtNtCshmQA5Mrgi1L_10empack_lib6empack13search_intentNtB4_19ProjectSearchIntent13resource_pack
FN:39,_RNvMs_NtNtCshmQA5Mrgi1L_10empack_lib6empack13search_intentNtB4_19ProjectSearchIntent3new
FN:47,_RNvMs_NtNtCshmQA5Mrgi1L_10empack_lib6empack13search_intentNtB4_19ProjectSearchIntent6shader
FN:63,_RNvMs_NtNtCshmQA5Mrgi1L_10empack_lib6empack13search_intentNtB4_19ProjectSearchIntent9data_pack
FN:55,_RNvMs_NtNtCs5BmVzKVgC1k_10empack_lib6empack13search_intentNtB4_19ProjectSearchIntent13resource_pack
FN:63,_RNvMs_NtNtCs5BmVzKVgC1k_10empack_lib6empack13search_intentNtB4_19ProjectSearchIntent9data_pack
FN:24,_RNvMNtNtCs5BmVzKVgC1k_10empack_lib6empack13search_intentNtB2_16BaseSearchIntent13query_display
FN:19,_RNvMNtNtCs5BmVzKVgC1k_10empack_lib6empack13search_intentNtB2_16BaseSearchIntent13query_encoded
FN:11,_RNvMNtNtCs5BmVzKVgC1k_10empack_lib6empack13search_intentNtB2_16BaseSearchIntent3new
FN:39,_RNvMs_NtNtCs5BmVzKVgC1k_10empack_lib6empack13search_intentNtB4_19ProjectSearchIntent3new
FN:47,_RNvMs_NtNtCs5BmVzKVgC1k_10empack_lib6empack13search_intentNtB4_19ProjectSearchIntent6shader
FNDA:0,_RNvMNtNtCshmQA5Mrgi1L_10empack_lib6empack13search_intentNtB2_16BaseSearchIntent13query_display
FNDA:0,_RNvMNtNtCshmQA5Mrgi1L_10empack_lib6empack13search_intentNtB2_16BaseSearchIntent13query_encoded
FNDA:0,_RNvMNtNtCshmQA5Mrgi1L_10empack_lib6empack13search_intentNtB2_16BaseSearchIntent3new
FNDA:0,_RNvMs_NtNtCshmQA5Mrgi1L_10empack_lib6empack13search_intentNtB4_19ProjectSearchIntent13resource_pack
FNDA:0,_RNvMs_NtNtCshmQA5Mrgi1L_10empack_lib6empack13search_intentNtB4_19ProjectSearchIntent3new
FNDA:0,_RNvMs_NtNtCshmQA5Mrgi1L_10empack_lib6empack13search_intentNtB4_19ProjectSearchIntent6shader
FNDA:0,_RNvMs_NtNtCshmQA5Mrgi1L_10empack_lib6empack13search_intentNtB4_19ProjectSearchIntent9data_pack
FNDA:0,_RNvMs_NtNtCs5BmVzKVgC1k_10empack_lib6empack13search_intentNtB4_19ProjectSearchIntent13resource_pack
FNDA:0,_RNvMs_NtNtCs5BmVzKVgC1k_10empack_lib6empack13search_intentNtB4_19ProjectSearchIntent9data_pack
FNDA:1,_RNvMNtNtCs5BmVzKVgC1k_10empack_lib6empack13search_intentNtB2_16BaseSearchIntent13query_display
FNDA:1,_RNvMNtNtCs5BmVzKVgC1k_10empack_lib6empack13search_intentNtB2_16BaseSearchIntent13query_encoded
FNDA:3,_RNvMNtNtCs5BmVzKVgC1k_10empack_lib6empack13search_intentNtB2_16BaseSearchIntent3new
FNDA:1,_RNvMs_NtNtCs5BmVzKVgC1k_10empack_lib6empack13search_intentNtB4_19ProjectSearchIntent3new
FNDA:1,_RNvMs_NtNtCs5BmVzKVgC1k_10empack_lib6empack13search_intentNtB4_19ProjectSearchIntent6shader
FNF:7
FNH:5
DA:11,3
DA:12,3
DA:13,3
DA:14,3
DA:15,3
DA:16,3
DA:19,1
DA:20,1
DA:21,1
DA:24,1
DA:25,1
DA:26,1
DA:39,1
DA:40,1
DA:41,1
DA:42,1
DA:43,1
DA:44,1
DA:47,1
DA:48,1
DA:49,1
DA:50,1
DA:51,1
DA:52,1
DA:55,0
DA:56,0
DA:57,0
DA:58,0
DA:59,0
DA:60,0
DA:63,0
DA:64,0
DA:65,0
DA:66,0
DA:67,0
BRF:0
BRH:0
LF:35
LH:24
end_of_record
SF:/Users/zer0cell/production/empack/crates/empack-lib/src/empack/search_intent.test.rs
FN:35,_RNvNtNtNtCs5BmVzKVgC1k_10empack_lib6empack13search_intent5testss_32test_explicit_shader_constructor
FN:4,_RNvNtNtNtCs5BmVzKVgC1k_10empack_lib6empack13search_intent5testss_36test_base_search_intent_sanitization
FN:22,_RNvNtNtNtCs5BmVzKVgC1k_10empack_lib6empack13search_intent5testss_42test_project_search_intent_defaults_to_mod
FNDA:1,_RNvNtNtNtCs5BmVzKVgC1k_10empack_lib6empack13search_intent5testss_32test_explicit_shader_constructor
FNDA:1,_RNvNtNtNtCs5BmVzKVgC1k_10empack_lib6empack13search_intent5testss_36test_base_search_intent_sanitization
FNDA:1,_RNvNtNtNtCs5BmVzKVgC1k_10empack_lib6empack13search_intent5testss_42test_project_search_intent_defaults_to_mod
FNF:3
FNH:3
DA:4,1
DA:5,1
DA:8,1
DA:11,1
DA:12,1
DA:13,1
DA:16,1
DA:17,1
DA:18,1
DA:19,1
DA:22,1
DA:23,1
DA:25,1
DA:26,1
DA:27,1
DA:28,1
DA:30,0
DA:32,1
DA:35,1
DA:36,1
DA:38,1
DA:39,1
DA:40,1
DA:41,1
DA:43,0
DA:45,1
BRF:0
BRH:0
LF:26
LH:24
end_of_record
SF:/Users/zer0cell/production/empack/crates/empack-lib/src/empack/state.rs
FN:16,_RINvNtNtCshmQA5Mrgi1L_10empack_lib6empack5state14discover_stateDNtNtNtB6_11application7session18FileSystemProviderEL_ECsbc2rGA5VZid_11add_command
FN:168,_RINvNtNtCshmQA5Mrgi1L_10empack_lib6empack5state18execute_initializeDNtNtNtB6_11application7session18FileSystemProviderEL_ECsbc2rGA5VZid_11add_command
FN:74,_RINvNtNtCshmQA5Mrgi1L_10empack_lib6empack5state18execute_transitionDNtNtNtB6_11application7session18FileSystemProviderEL_ECsbc2rGA5VZid_11add_command
FN:341,_RINvNtNtCshmQA5Mrgi1L_10empack_lib6empack5state19clean_configurationDNtNtNtB6_11application7session18FileSystemProviderEL_ECsbc2rGA5VZid_11add_command
FN:223,_RINvNtNtCshmQA5Mrgi1L_10empack_lib6empack5state19execute_synchronizeDNtNtNtB6_11application7session18FileSystemProviderEL_ECsbc2rGA5VZid_11add_command
FN:325,_RINvNtNtCshmQA5Mrgi1L_10empack_lib6empack5state21clean_build_artifactsDNtNtNtB6_11application7session18FileSystemProviderEL_ECsbc2rGA5VZid_11add_command
FN:296,_RINvNtNtCshmQA5Mrgi1L_10empack_lib6empack5state24create_initial_structureDNtNtNtB6_11application7session18FileSystemProviderEL_ECsbc2rGA5VZid_11add_command
FN:179,_RNCINvNtNtCshmQA5Mrgi1L_10empack_lib6empack5state18execute_initializeDNtNtNtB8_11application7session18FileSystemProviderEL_E0Csbc2rGA5VZid_11add_command
FN:195,_RNCINvNtNtCshmQA5Mrgi1L_10empack_lib6empack5state18execute_initializeDNtNtNtB8_11application7session18FileSystemProviderEL_Es0_0Csbc2rGA5VZid_11add_command
FN:214,_RNCINvNtNtCshmQA5Mrgi1L_10empack_lib6empack5state18execute_initializeDNtNtNtB8_11application7session18FileSystemProviderEL_Es1_0Csbc2rGA5VZid_11add_command
FN:188,_RNCINvNtNtCshmQA5Mrgi1L_10empack_lib6empack5state18execute_initializeDNtNtNtB8_11application7session18FileSystemProviderEL_Es_0Csbc2rGA5VZid_11add_command
FN:78,_RNCINvNtNtCshmQA5Mrgi1L_10empack_lib6empack5state18execute_transitionDNtNtNtB8_11application7session18FileSystemProviderEL_E0Csbc2rGA5VZid_11add_command
FN:351,_RNCINvNtNtCshmQA5Mrgi1L_10empack_lib6empack5state19clean_configurationDNtNtNtB8_11application7session18FileSystemProviderEL_E0Csbc2rGA5VZid_11add_command
FN:369,_RNCINvNtNtCshmQA5Mrgi1L_10empack_lib6empack5state19clean_configurationDNtNtNtB8_11application7session18FileSystemProviderEL_Es0_0Csbc2rGA5VZid_11add_command
FN:360,_RNCINvNtNtCshmQA5Mrgi1L_10empack_lib6empack5state19clean_configurationDNtNtNtB8_11application7session18FileSystemProviderEL_Es_0Csbc2rGA5VZid_11add_command
FN:334,_RNCINvNtNtCshmQA5Mrgi1L_10empack_lib6empack5state21clean_build_artifactsDNtNtNtB8_11application7session18FileSystemProviderEL_E0Csbc2rGA5VZid_11add_command
FN:304,_RNCINvNtNtCshmQA5Mrgi1L_10empack_lib6empack5state24create_initial_structureDNtNtNtB8_11application7session18FileSystemProviderEL_E0Csbc2rGA5VZid_11add_command
FN:318,_RNCINvNtNtCshmQA5Mrgi1L_10empack_lib6empack5state24create_initial_structureDNtNtNtB8_11application7session18FileSystemProviderEL_Es0_0Csbc2rGA5VZid_11add_command
FN:311,_RNCINvNtNtCshmQA5Mrgi1L_10empack_lib6empack5state24create_initial_structureDNtNtNtB8_11application7session18FileSystemProviderEL_Es_0Csbc2rGA5VZid_11add_command
FN:275,_RNCNCNvNtNtCshmQA5Mrgi1L_10empack_lib6empack5state13execute_build00Csbc2rGA5VZid_11add_command
FN:530,_RNCNvMs2_NtNtCshmQA5Mrgi1L_10empack_lib6empack5stateINtB7_19ModpackStateManagerDNtNtNtBb_11application7session18FileSystemProviderEL_E18execute_transition0Csbc2rGA5VZid_11add_command
FN:247,_RNCNvNtNtCshmQA5Mrgi1L_10empack_lib6empack5state13execute_build0Csbc2rGA5VZid_11add_command
FN:456,_RNvMs2_NtNtCshmQA5Mrgi1L_10empack_lib6empack5stateINtB5_19ModpackStateManagerDNtNtNtB9_11application7session18FileSystemProviderEL_E14discover_stateCsbc2rGA5VZid_11add_command
FN:527,_RNvMs2_NtNtCshmQA5Mrgi1L_10empack_lib6empack5stateINtB5_19ModpackStateManagerDNtNtNtB9_11application7session18FileSystemProviderEL_E18execute_transitionCsbc2rGA5VZid_11add_command
FN:535,_RNvMs2_NtNtCshmQA5Mrgi1L_10empack_lib6empack5stateINtB5_19ModpackStateManagerDNtNtNtB9_11application7session18FileSystemProviderEL_E22begin_state_transitionCsbc2rGA5VZid_11add_command
FN:574,_RNvMs2_NtNtCshmQA5Mrgi1L_10empack_lib6empack5stateINtB5_19ModpackStateManagerDNtNtNtB9_11application7session18FileSystemProviderEL_E25complete_state_transitionCsbc2rGA5VZid_11add_command
FN:16,_RINvNtNtCshmQA5Mrgi1L_10empack_lib6empack5state14discover_statepEB6_
FN:168,_RINvNtNtCshmQA5Mrgi1L_10empack_lib6empack5state18execute_initializepEB6_
FN:74,_RINvNtNtCshmQA5Mrgi1L_10empack_lib6empack5state18execute_transitionpEB6_
FN:341,_RINvNtNtCshmQA5Mrgi1L_10empack_lib6empack5state19clean_configurationpEB6_
FN:223,_RINvNtNtCshmQA5Mrgi1L_10empack_lib6empack5state19execute_synchronizepEB6_
FN:325,_RINvNtNtCshmQA5Mrgi1L_10empack_lib6empack5state21clean_build_artifactspEB6_
FN:296,_RINvNtNtCshmQA5Mrgi1L_10empack_lib6empack5state24create_initial_structurepEB6_
FN:179,_RNCINvNtNtCshmQA5Mrgi1L_10empack_lib6empack5state18execute_initializepE0B8_
FN:195,_RNCINvNtNtCshmQA5Mrgi1L_10empack_lib6empack5state18execute_initializepEs0_0B8_
FN:214,_RNCINvNtNtCshmQA5Mrgi1L_10empack_lib6empack5state18execute_initializepEs1_0B8_
FN:188,_RNCINvNtNtCshmQA5Mrgi1L_10empack_lib6empack5state18execute_initializepEs_0B8_
FN:78,_RNCINvNtNtCshmQA5Mrgi1L_10empack_lib6empack5state18execute_transitionpE0B8_
FN:351,_RNCINvNtNtCshmQA5Mrgi1L_10empack_lib6empack5state19clean_configurationpE0B8_
FN:369,_RNCINvNtNtCshmQA5Mrgi1L_10empack_lib6empack5state19clean_configurationpEs0_0B8_
FN:360,_RNCINvNtNtCshmQA5Mrgi1L_10empack_lib6empack5state19clean_configurationpEs_0B8_
FN:334,_RNCINvNtNtCshmQA5Mrgi1L_10empack_lib6empack5state21clean_build_artifactspE0B8_
FN:304,_RNCINvNtNtCshmQA5Mrgi1L_10empack_lib6empack5state24create_initial_structurepE0B8_
FN:318,_RNCINvNtNtCshmQA5Mrgi1L_10empack_lib6empack5state24create_initial_structurepEs0_0B8_
FN:311,_RNCINvNtNtCshmQA5Mrgi1L_10empack_lib6empack5state24create_initial_structurepEs_0B8_
FN:275,_RNCNCNvNtNtCshmQA5Mrgi1L_10empack_lib6empack5state13execute_build00B9_
FN:530,_RNCNvMs2_NtNtCshmQA5Mrgi1L_10empack_lib6empack5stateINtB7_19ModpackStateManagerpE18execute_transition0Bb_
FN:247,_RNCNvNtNtCshmQA5Mrgi1L_10empack_lib6empack5state13execute_build0B7_
FN:522,_RNvMs2_NtNtCshmQA5Mrgi1L_10empack_lib6empack5stateINtB5_19ModpackStateManagerpE14can_transitionB9_
FN:456,_RNvMs2_NtNtCshmQA5Mrgi1L_10empack_lib6empack5stateINtB5_19ModpackStateManagerpE14discover_stateB9_
FN:486,_RNvMs2_NtNtCshmQA5Mrgi1L_10empack_lib6empack5stateINtB5_19ModpackStateManagerpE14validate_stateB9_
FN:461,_RNvMs2_NtNtCshmQA5Mrgi1L_10empack_lib6empack5stateINtB5_19ModpackStateManagerpE15get_state_filesB9_
FN:527,_RNvMs2_NtNtCshmQA5Mrgi1L_10empack_lib6empack5stateINtB5_19ModpackStateManagerpE18execute_transitionB9_
FN:535,_RNvMs2_NtNtCshmQA5Mrgi1L_10empack_lib6empack5stateINtB5_19ModpackStateManagerpE22begin_state_transitionB9_
FN:574,_RNvMs2_NtNtCshmQA5Mrgi1L_10empack_lib6empack5stateINtB5_19ModpackStateManagerpE25complete_state_transitionB9_
FN:585,_RNvMs2_NtNtCshmQA5Mrgi1L_10empack_lib6empack5stateINtB5_19ModpackStateManagerpE5pathsB9_
FN:451,_RNvMs2_NtNtCshmQA5Mrgi1L_10empack_lib6empack5stateINtB5_19ModpackStateManagerDNtNtNtB9_11application7session18FileSystemProviderEL_E3newB9_
FN:612,_RNvMs3_NtNtCshmQA5Mrgi1L_10empack_lib6empack5stateNtB5_12ModpackPaths12build_output
FN:244,_RNvNtNtCshmQA5Mrgi1L_10empack_lib6empack5state13execute_build
FN:52,_RNvNtNtCshmQA5Mrgi1L_10empack_lib6empack5state14can_transition
FN:418,_RNvXNtNtCshmQA5Mrgi1L_10empack_lib6empack5stateNtB2_10StateErrorINtNtCsj3QBrvpYeJs_4core7convert4FromNtNtNtCs580JJAt54ne_3std2io5error5ErrorE4from
FN:434,_RNvXs0_NtNtCshmQA5Mrgi1L_10empack_lib6empack5stateNtB5_10StateErrorINtNtCsj3QBrvpYeJs_4core7convert4FromNtNtB7_6config11ConfigErrorE4from
FN:442,_RNvXs1_NtNtCshmQA5Mrgi1L_10empack_lib6empack5stateNtB5_10StateErrorINtNtCsj3QBrvpYeJs_4core7convert4FromNtCsjWkhl1aWdVK_6anyhow5ErrorE4from
FN:426,_RNvXs_NtNtCshmQA5Mrgi1L_10empack_lib6empack5stateNtB4_10StateErrorINtNtCsj3QBrvpYeJs_4core7convert4FromNtNtB6_6builds10BuildErrorE4from
FN:16,_RINvNtNtCshmQA5Mrgi1L_10empack_lib6empack5state14discover_stateDNtNtNtB6_11application7session18FileSystemProviderEL_ECs8uoVYB8rq8D_17build_client_full
FN:168,_RINvNtNtCshmQA5Mrgi1L_10empack_lib6empack5state18execute_initializeDNtNtNtB6_11application7session18FileSystemProviderEL_ECs8uoVYB8rq8D_17build_client_full
FN:74,_RINvNtNtCshmQA5Mrgi1L_10empack_lib6empack5state18execute_transitionDNtNtNtB6_11application7session18FileSystemProviderEL_ECs8uoVYB8rq8D_17build_client_full
FN:341,_RINvNtNtCshmQA5Mrgi1L_10empack_lib6empack5state19clean_configurationDNtNtNtB6_11application7session18FileSystemProviderEL_ECs8uoVYB8rq8D_17build_client_full
FN:223,_RINvNtNtCshmQA5Mrgi1L_10empack_lib6empack5state19execute_synchronizeDNtNtNtB6_11application7session18FileSystemProviderEL_ECs8uoVYB8rq8D_17build_client_full
FN:325,_RINvNtNtCshmQA5Mrgi1L_10empack_lib6empack5state21clean_build_artifactsDNtNtNtB6_11application7session18FileSystemProviderEL_ECs8uoVYB8rq8D_17build_client_full
FN:296,_RINvNtNtCshmQA5Mrgi1L_10empack_lib6empack5state24create_initial_structureDNtNtNtB6_11application7session18FileSystemProviderEL_ECs8uoVYB8rq8D_17build_client_full
FN:179,_RNCINvNtNtCshmQA5Mrgi1L_10empack_lib6empack5state18execute_initializeDNtNtNtB8_11application7session18FileSystemProviderEL_E0Cs8uoVYB8rq8D_17build_client_full
FN:195,_RNCINvNtNtCshmQA5Mrgi1L_10empack_lib6empack5state18execute_initializeDNtNtNtB8_11application7session18FileSystemProviderEL_Es0_0Cs8uoVYB8rq8D_17build_client_full
FN:214,_RNCINvNtNtCshmQA5Mrgi1L_10empack_lib6empack5state18execute_initializeDNtNtNtB8_11application7session18FileSystemProviderEL_Es1_0Cs8uoVYB8rq8D_17build_client_full
FN:188,_RNCINvNtNtCshmQA5Mrgi1L_10empack_lib6empack5state18execute_initializeDNtNtNtB8_11application7session18FileSystemProviderEL_Es_0Cs8uoVYB8rq8D_17build_client_full
FN:78,_RNCINvNtNtCshmQA5Mrgi1L_10empack_lib6empack5state18execute_transitionDNtNtNtB8_11application7session18FileSystemProviderEL_E0Cs8uoVYB8rq8D_17build_client_full
FN:351,_RNCINvNtNtCshmQA5Mrgi1L_10empack_lib6empack5state19clean_configurationDNtNtNtB8_11application7session18FileSystemProviderEL_E0Cs8uoVYB8rq8D_17build_client_full
FN:369,_RNCINvNtNtCshmQA5Mrgi1L_10empack_lib6empack5state19clean_configurationDNtNtNtB8_11application7session18FileSystemProviderEL_Es0_0Cs8uoVYB8rq8D_17build_client_full
FN:360,_RNCINvNtNtCshmQA5Mrgi1L_10empack_lib6empack5state19clean_configurationDNtNtNtB8_11application7session18FileSystemProviderEL_Es_0Cs8uoVYB8rq8D_17build_client_full
FN:334,_RNCINvNtNtCshmQA5Mrgi1L_10empack_lib6empack5state21clean_build_artifactsDNtNtNtB8_11application7session18FileSystemProviderEL_E0Cs8uoVYB8rq8D_17build_client_full
FN:304,_RNCINvNtNtCshmQA5Mrgi1L_10empack_lib6empack5state24create_initial_structureDNtNtNtB8_11application7session18FileSystemProviderEL_E0Cs8uoVYB8rq8D_17build_client_full
FN:318,_RNCINvNtNtCshmQA5Mrgi1L_10empack_lib6empack5state24create_initial_structureDNtNtNtB8_11application7session18FileSystemProviderEL_Es0_0Cs8uoVYB8rq8D_17build_client_full
FN:311,_RNCINvNtNtCshmQA5Mrgi1L_10empack_lib6empack5state24create_initial_structureDNtNtNtB8_11application7session18FileSystemProviderEL_Es_0Cs8uoVYB8rq8D_17build_client_full
FN:275,_RNCNCNvNtNtCshmQA5Mrgi1L_10empack_lib6empack5state13execute_build00Cs8uoVYB8rq8D_17build_client_full
FN:530,_RNCNvMs2_NtNtCshmQA5Mrgi1L_10empack_lib6empack5stateINtB7_19ModpackStateManagerDNtNtNtBb_11application7session18FileSystemProviderEL_E18execute_transition0Cs8uoVYB8rq8D_17build_client_full
FN:247,_RNCNvNtNtCshmQA5Mrgi1L_10empack_lib6empack5state13execute_build0Cs8uoVYB8rq8D_17build_client_full
FN:456,_RNvMs2_NtNtCshmQA5Mrgi1L_10empack_lib6empack5stateINtB5_19ModpackStateManagerDNtNtNtB9_11application7session18FileSystemProviderEL_E14discover_stateCs8uoVYB8rq8D_17build_client_full
FN:527,_RNvMs2_NtNtCshmQA5Mrgi1L_10empack_lib6empack5stateINtB5_19ModpackStateManagerDNtNtNtB9_11application7session18FileSystemProviderEL_E18execute_transitionCs8uoVYB8rq8D_17build_client_full
FN:535,_RNvMs2_NtNtCshmQA5Mrgi1L_10empack_lib6empack5stateINtB5_19ModpackStateManagerDNtNtNtB9_11application7session18FileSystemProviderEL_E22begin_state_transitionCs8uoVYB8rq8D_17build_client_full
FN:574,_RNvMs2_NtNtCshmQA5Mrgi1L_10empack_lib6empack5stateINtB5_19ModpackStateManagerDNtNtNtB9_11application7session18FileSystemProviderEL_E25complete_state_transitionCs8uoVYB8rq8D_17build_client_full
FN:16,_RINvNtNtCshmQA5Mrgi1L_10empack_lib6empack5state14discover_stateDNtNtNtB6_11application7session18FileSystemProviderEL_ECsj8HZQhsijMc_12build_server
FN:168,_RINvNtNtCshmQA5Mrgi1L_10empack_lib6empack5state18execute_initializeDNtNtNtB6_11application7session18FileSystemProviderEL_ECsj8HZQhsijMc_12build_server
FN:74,_RINvNtNtCshmQA5Mrgi1L_10empack_lib6empack5state18execute_transitionDNtNtNtB6_11application7session18FileSystemProviderEL_ECsj8HZQhsijMc_12build_server
FN:341,_RINvNtNtCshmQA5Mrgi1L_10empack_lib6empack5state19clean_configurationDNtNtNtB6_11application7session18FileSystemProviderEL_ECsj8HZQhsijMc_12build_server
FN:223,_RINvNtNtCshmQA5Mrgi1L_10empack_lib6empack5state19execute_synchronizeDNtNtNtB6_11application7session18FileSystemProviderEL_ECsj8HZQhsijMc_12build_server
FN:325,_RINvNtNtCshmQA5Mrgi1L_10empack_lib6empack5state21clean_build_artifactsDNtNtNtB6_11application7session18FileSystemProviderEL_ECsj8HZQhsijMc_12build_server
FN:296,_RINvNtNtCshmQA5Mrgi1L_10empack_lib6empack5state24create_initial_structureDNtNtNtB6_11application7session18FileSystemProviderEL_ECsj8HZQhsijMc_12build_server
FN:179,_RNCINvNtNtCshmQA5Mrgi1L_10empack_lib6empack5state18execute_initializeDNtNtNtB8_11application7session18FileSystemProviderEL_E0Csj8HZQhsijMc_12build_server
FN:195,_RNCINvNtNtCshmQA5Mrgi1L_10empack_lib6empack5state18execute_initializeDNtNtNtB8_11application7session18FileSystemProviderEL_Es0_0Csj8HZQhsijMc_12build_server
FN:214,_RNCINvNtNtCshmQA5Mrgi1L_10empack_lib6empack5state18execute_initializeDNtNtNtB8_11application7session18FileSystemProviderEL_Es1_0Csj8HZQhsijMc_12build_server
FN:188,_RNCINvNtNtCshmQA5Mrgi1L_10empack_lib6empack5state18execute_initializeDNtNtNtB8_11application7session18FileSystemProviderEL_Es_0Csj8HZQhsijMc_12build_server
FN:78,_RNCINvNtNtCshmQA5Mrgi1L_10empack_lib6empack5state18execute_transitionDNtNtNtB8_11application7session18FileSystemProviderEL_E0Csj8HZQhsijMc_12build_server
FN:351,_RNCINvNtNtCshmQA5Mrgi1L_10empack_lib6empack5state19clean_configurationDNtNtNtB8_11application7session18FileSystemProviderEL_E0Csj8HZQhsijMc_12build_server
FN:369,_RNCINvNtNtCshmQA5Mrgi1L_10empack_lib6empack5state19clean_configurationDNtNtNtB8_11application7session18FileSystemProviderEL_Es0_0Csj8HZQhsijMc_12build_server
FN:360,_RNCINvNtNtCshmQA5Mrgi1L_10empack_lib6empack5state19clean_configurationDNtNtNtB8_11application7session18FileSystemProviderEL_Es_0Csj8HZQhsijMc_12build_server
FN:334,_RNCINvNtNtCshmQA5Mrgi1L_10empack_lib6empack5state21clean_build_artifactsDNtNtNtB8_11application7session18FileSystemProviderEL_E0Csj8HZQhsijMc_12build_server
FN:304,_RNCINvNtNtCshmQA5Mrgi1L_10empack_lib6empack5state24create_initial_structureDNtNtNtB8_11application7session18FileSystemProviderEL_E0Csj8HZQhsijMc_12build_server
FN:318,_RNCINvNtNtCshmQA5Mrgi1L_10empack_lib6empack5state24create_initial_structureDNtNtNtB8_11application7session18FileSystemProviderEL_Es0_0Csj8HZQhsijMc_12build_server
FN:311,_RNCINvNtNtCshmQA5Mrgi1L_10empack_lib6empack5state24create_initial_structureDNtNtNtB8_11application7session18FileSystemProviderEL_Es_0Csj8HZQhsijMc_12build_server
FN:275,_RNCNCNvNtNtCshmQA5Mrgi1L_10empack_lib6empack5state13execute_build00Csj8HZQhsijMc_12build_server
FN:530,_RNCNvMs2_NtNtCshmQA5Mrgi1L_10empack_lib6empack5stateINtB7_19ModpackStateManagerDNtNtNtBb_11application7session18FileSystemProviderEL_E18execute_transition0Csj8HZQhsijMc_12build_server
FN:247,_RNCNvNtNtCshmQA5Mrgi1L_10empack_lib6empack5state13execute_build0Csj8HZQhsijMc_12build_server
FN:456,_RNvMs2_NtNtCshmQA5Mrgi1L_10empack_lib6empack5stateINtB5_19ModpackStateManagerDNtNtNtB9_11application7session18FileSystemProviderEL_E14discover_stateCsj8HZQhsijMc_12build_server
FN:527,_RNvMs2_NtNtCshmQA5Mrgi1L_10empack_lib6empack5stateINtB5_19ModpackStateManagerDNtNtNtB9_11application7session18FileSystemProviderEL_E18execute_transitionCsj8HZQhsijMc_12build_server
FN:535,_RNvMs2_NtNtCshmQA5Mrgi1L_10empack_lib6empack5stateINtB5_19ModpackStateManagerDNtNtNtB9_11application7session18FileSystemProviderEL_E22begin_state_transitionCsj8HZQhsijMc_12build_server
FN:574,_RNvMs2_NtNtCshmQA5Mrgi1L_10empack_lib6empack5stateINtB5_19ModpackStateManagerDNtNtNtB9_11application7session18FileSystemProviderEL_E25complete_state_transitionCsj8HZQhsijMc_12build_server
FN:16,_RINvNtNtCshmQA5Mrgi1L_10empack_lib6empack5state14discover_stateDNtNtNtB6_11application7session18FileSystemProviderEL_ECsdrRwdeEzguW_17build_server_full
FN:168,_RINvNtNtCshmQA5Mrgi1L_10empack_lib6empack5state18execute_initializeDNtNtNtB6_11application7session18FileSystemProviderEL_ECsdrRwdeEzguW_17build_server_full
FN:74,_RINvNtNtCshmQA5Mrgi1L_10empack_lib6empack5state18execute_transitionDNtNtNtB6_11application7session18FileSystemProviderEL_ECsdrRwdeEzguW_17build_server_full
FN:341,_RINvNtNtCshmQA5Mrgi1L_10empack_lib6empack5state19clean_configurationDNtNtNtB6_11application7session18FileSystemProviderEL_ECsdrRwdeEzguW_17build_server_full
FN:223,_RINvNtNtCshmQA5Mrgi1L_10empack_lib6empack5state19execute_synchronizeDNtNtNtB6_11application7session18FileSystemProviderEL_ECsdrRwdeEzguW_17build_server_full
FN:325,_RINvNtNtCshmQA5Mrgi1L_10empack_lib6empack5state21clean_build_artifactsDNtNtNtB6_11application7session18FileSystemProviderEL_ECsdrRwdeEzguW_17build_server_full
FN:296,_RINvNtNtCshmQA5Mrgi1L_10empack_lib6empack5state24create_initial_structureDNtNtNtB6_11application7session18FileSystemProviderEL_ECsdrRwdeEzguW_17build_server_full
FN:179,_RNCINvNtNtCshmQA5Mrgi1L_10empack_lib6empack5state18execute_initializeDNtNtNtB8_11application7session18FileSystemProviderEL_E0CsdrRwdeEzguW_17build_server_full
FN:195,_RNCINvNtNtCshmQA5Mrgi1L_10empack_lib6empack5state18execute_initializeDNtNtNtB8_11application7session18FileSystemProviderEL_Es0_0CsdrRwdeEzguW_17build_server_full
FN:214,_RNCINvNtNtCshmQA5Mrgi1L_10empack_lib6empack5state18execute_initializeDNtNtNtB8_11application7session18FileSystemProviderEL_Es1_0CsdrRwdeEzguW_17build_server_full
FN:188,_RNCINvNtNtCshmQA5Mrgi1L_10empack_lib6empack5state18execute_initializeDNtNtNtB8_11application7session18FileSystemProviderEL_Es_0CsdrRwdeEzguW_17build_server_full
FN:78,_RNCINvNtNtCshmQA5Mrgi1L_10empack_lib6empack5state18execute_transitionDNtNtNtB8_11application7session18FileSystemProviderEL_E0CsdrRwdeEzguW_17build_server_full
FN:351,_RNCINvNtNtCshmQA5Mrgi1L_10empack_lib6empack5state19clean_configurationDNtNtNtB8_11application7session18FileSystemProviderEL_E0CsdrRwdeEzguW_17build_server_full
FN:369,_RNCINvNtNtCshmQA5Mrgi1L_10empack_lib6empack5state19clean_configurationDNtNtNtB8_11application7session18FileSystemProviderEL_Es0_0CsdrRwdeEzguW_17build_server_full
FN:360,_RNCINvNtNtCshmQA5Mrgi1L_10empack_lib6empack5state19clean_configurationDNtNtNtB8_11application7session18FileSystemProviderEL_Es_0CsdrRwdeEzguW_17build_server_full
FN:334,_RNCINvNtNtCshmQA5Mrgi1L_10empack_lib6empack5state21clean_build_artifactsDNtNtNtB8_11application7session18FileSystemProviderEL_E0CsdrRwdeEzguW_17build_server_full
FN:304,_RNCINvNtNtCshmQA5Mrgi1L_10empack_lib6empack5state24create_initial_structureDNtNtNtB8_11application7session18FileSystemProviderEL_E0CsdrRwdeEzguW_17build_server_full
FN:318,_RNCINvNtNtCshmQA5Mrgi1L_10empack_lib6empack5state24create_initial_structureDNtNtNtB8_11application7session18FileSystemProviderEL_Es0_0CsdrRwdeEzguW_17build_server_full
FN:311,_RNCINvNtNtCshmQA5Mrgi1L_10empack_lib6empack5state24create_initial_structureDNtNtNtB8_11application7session18FileSystemProviderEL_Es_0CsdrRwdeEzguW_17build_server_full
FN:275,_RNCNCNvNtNtCshmQA5Mrgi1L_10empack_lib6empack5state13execute_build00CsdrRwdeEzguW_17build_server_full
FN:530,_RNCNvMs2_NtNtCshmQA5Mrgi1L_10empack_lib6empack5stateINtB7_19ModpackStateManagerDNtNtNtBb_11application7session18FileSystemProviderEL_E18execute_transition0CsdrRwdeEzguW_17build_server_full
FN:247,_RNCNvNtNtCshmQA5Mrgi1L_10empack_lib6empack5state13execute_build0CsdrRwdeEzguW_17build_server_full
FN:456,_RNvMs2_NtNtCshmQA5Mrgi1L_10empack_lib6empack5stateINtB5_19ModpackStateManagerDNtNtNtB9_11application7session18FileSystemProviderEL_E14discover_stateCsdrRwdeEzguW_17build_server_full
FN:527,_RNvMs2_NtNtCshmQA5Mrgi1L_10empack_lib6empack5stateINtB5_19ModpackStateManagerDNtNtNtB9_11application7session18FileSystemProviderEL_E18execute_transitionCsdrRwdeEzguW_17build_server_full
FN:535,_RNvMs2_NtNtCshmQA5Mrgi1L_10empack_lib6empack5stateINtB5_19ModpackStateManagerDNtNtNtB9_11application7session18FileSystemProviderEL_E22begin_state_transitionCsdrRwdeEzguW_17build_server_full
FN:574,_RNvMs2_NtNtCshmQA5Mrgi1L_10empack_lib6empack5stateINtB5_19ModpackStateManagerDNtNtNtB9_11application7session18FileSystemProviderEL_E25complete_state_transitionCsdrRwdeEzguW_17build_server_full
FN:16,_RINvNtNtCs5BmVzKVgC1k_10empack_lib6empack5state14discover_stateDNtNtNtB6_11application7session18FileSystemProviderEL_EB6_
FN:16,_RINvNtNtCs5BmVzKVgC1k_10empack_lib6empack5state14discover_stateNtNtB2_5tests17MockStateProviderEB6_
FN:168,_RINvNtNtCs5BmVzKVgC1k_10empack_lib6empack5state18execute_initializeDNtNtNtB6_11application7session18FileSystemProviderEL_EB6_
FN:168,_RINvNtNtCs5BmVzKVgC1k_10empack_lib6empack5state18execute_initializeNtNtB2_5tests17MockStateProviderEB6_
FN:74,_RINvNtNtCs5BmVzKVgC1k_10empack_lib6empack5state18execute_transitionDNtNtNtB6_11application7session18FileSystemProviderEL_EB6_
FN:74,_RINvNtNtCs5BmVzKVgC1k_10empack_lib6empack5state18execute_transitionNtNtB2_5tests17MockStateProviderEB6_
FN:341,_RINvNtNtCs5BmVzKVgC1k_10empack_lib6empack5state19clean_configurationDNtNtNtB6_11application7session18FileSystemProviderEL_EB6_
FN:341,_RINvNtNtCs5BmVzKVgC1k_10empack_lib6empack5state19clean_configurationNtNtB2_5tests17MockStateProviderEB6_
FN:223,_RINvNtNtCs5BmVzKVgC1k_10empack_lib6empack5state19execute_synchronizeDNtNtNtB6_11application7session18FileSystemProviderEL_EB6_
FN:223,_RINvNtNtCs5BmVzKVgC1k_10empack_lib6empack5state19execute_synchronizeNtNtB2_5tests17MockStateProviderEB6_
FN:325,_RINvNtNtCs5BmVzKVgC1k_10empack_lib6empack5state21clean_build_artifactsDNtNtNtB6_11application7session18FileSystemProviderEL_EB6_
FN:325,_RINvNtNtCs5BmVzKVgC1k_10empack_lib6empack5state21clean_build_artifactsNtNtB2_5tests17MockStateProviderEB6_
FN:296,_RINvNtNtCs5BmVzKVgC1k_10empack_lib6empack5state24create_initial_structureDNtNtNtB6_11application7session18FileSystemProviderEL_EB6_
FN:296,_RINvNtNtCs5BmVzKVgC1k_10empack_lib6empack5state24create_initial_structureNtNtB2_5tests17MockStateProviderEB6_
FN:179,_RNCINvNtNtCs5BmVzKVgC1k_10empack_lib6empack5state18execute_initializeDNtNtNtB8_11application7session18FileSystemProviderEL_E0B8_
FN:195,_RNCINvNtNtCs5BmVzKVgC1k_10empack_lib6empack5state18execute_initializeDNtNtNtB8_11application7session18FileSystemProviderEL_Es0_0B8_
FN:214,_RNCINvNtNtCs5BmVzKVgC1k_10empack_lib6empack5state18execute_initializeDNtNtNtB8_11application7session18FileSystemProviderEL_Es1_0B8_
FN:188,_RNCINvNtNtCs5BmVzKVgC1k_10empack_lib6empack5state18execute_initializeDNtNtNtB8_11application7session18FileSystemProviderEL_Es_0B8_
FN:179,_RNCINvNtNtCs5BmVzKVgC1k_10empack_lib6empack5state18execute_initializeNtNtB4_5tests17MockStateProviderE0B8_
FN:195,_RNCINvNtNtCs5BmVzKVgC1k_10empack_lib6empack5state18execute_initializeNtNtB4_5tests17MockStateProviderEs0_0B8_
FN:214,_RNCINvNtNtCs5BmVzKVgC1k_10empack_lib6empack5state18execute_initializeNtNtB4_5tests17MockStateProviderEs1_0B8_
FN:188,_RNCINvNtNtCs5BmVzKVgC1k_10empack_lib6empack5state18execute_initializeNtNtB4_5tests17MockStateProviderEs_0B8_
FN:78,_RNCINvNtNtCs5BmVzKVgC1k_10empack_lib6empack5state18execute_transitionDNtNtNtB8_11application7session18FileSystemProviderEL_E0B8_
FN:78,_RNCINvNtNtCs5BmVzKVgC1k_10empack_lib6empack5state18execute_transitionNtNtB4_5tests17MockStateProviderE0B8_
FN:351,_RNCINvNtNtCs5BmVzKVgC1k_10empack_lib6empack5state19clean_configurationDNtNtNtB8_11application7session18FileSystemProviderEL_E0B8_
FN:369,_RNCINvNtNtCs5BmVzKVgC1k_10empack_lib6empack5state19clean_configurationDNtNtNtB8_11application7session18FileSystemProviderEL_Es0_0B8_
FN:360,_RNCINvNtNtCs5BmVzKVgC1k_10empack_lib6empack5state19clean_configurationDNtNtNtB8_11application7session18FileSystemProviderEL_Es_0B8_
FN:351,_RNCINvNtNtCs5BmVzKVgC1k_10empack_lib6empack5state19clean_configurationNtNtB4_5tests17MockStateProviderE0B8_
FN:369,_RNCINvNtNtCs5BmVzKVgC1k_10empack_lib6empack5state19clean_configurationNtNtB4_5tests17MockStateProviderEs0_0B8_
FN:360,_RNCINvNtNtCs5BmVzKVgC1k_10empack_lib6empack5state19clean_configurationNtNtB4_5tests17MockStateProviderEs_0B8_
FN:334,_RNCINvNtNtCs5BmVzKVgC1k_10empack_lib6empack5state21clean_build_artifactsDNtNtNtB8_11application7session18FileSystemProviderEL_E0B8_
FN:334,_RNCINvNtNtCs5BmVzKVgC1k_10empack_lib6empack5state21clean_build_artifactsNtNtB4_5tests17MockStateProviderE0B8_
FN:304,_RNCINvNtNtCs5BmVzKVgC1k_10empack_lib6empack5state24create_initial_structureDNtNtNtB8_11application7session18FileSystemProviderEL_E0B8_
FN:318,_RNCINvNtNtCs5BmVzKVgC1k_10empack_lib6empack5state24create_initial_structureDNtNtNtB8_11application7session18FileSystemProviderEL_Es0_0B8_
FN:311,_RNCINvNtNtCs5BmVzKVgC1k_10empack_lib6empack5state24create_initial_structureDNtNtNtB8_11application7session18FileSystemProviderEL_Es_0B8_
FN:304,_RNCINvNtNtCs5BmVzKVgC1k_10empack_lib6empack5state24create_initial_structureNtNtB4_5tests17MockStateProviderE0B8_
FN:318,_RNCINvNtNtCs5BmVzKVgC1k_10empack_lib6empack5state24create_initial_structureNtNtB4_5tests17MockStateProviderEs0_0B8_
FN:311,_RNCINvNtNtCs5BmVzKVgC1k_10empack_lib6empack5state24create_initial_structureNtNtB4_5tests17MockStateProviderEs_0B8_
FN:530,_RNCNvMs2_NtNtCs5BmVzKVgC1k_10empack_lib6empack5stateINtB7_19ModpackStateManagerDNtNtNtBb_11application7session18FileSystemProviderEL_E18execute_transition0Bb_
FN:530,_RNCNvMs2_NtNtCs5BmVzKVgC1k_10empack_lib6empack5stateINtB7_19ModpackStateManagerNtNtB7_5tests17MockStateProviderE18execute_transition0Bb_
FN:247,_RNCNvNtNtCs5BmVzKVgC1k_10empack_lib6empack5state13execute_build0B7_
FN:456,_RNvMs2_NtNtCs5BmVzKVgC1k_10empack_lib6empack5stateINtB5_19ModpackStateManagerDNtNtNtB9_11application7session18FileSystemProviderEL_E14discover_stateB9_
FN:527,_RNvMs2_NtNtCs5BmVzKVgC1k_10empack_lib6empack5stateINtB5_19ModpackStateManagerDNtNtNtB9_11application7session18FileSystemProviderEL_E18execute_transitionB9_
FN:535,_RNvMs2_NtNtCs5BmVzKVgC1k_10empack_lib6empack5stateINtB5_19ModpackStateManagerDNtNtNtB9_11application7session18FileSystemProviderEL_E22begin_state_transitionB9_
FN:574,_RNvMs2_NtNtCs5BmVzKVgC1k_10empack_lib6empack5stateINtB5_19ModpackStateManagerDNtNtNtB9_11application7session18FileSystemProviderEL_E25complete_state_transitionB9_
FN:451,_RNvMs2_NtNtCs5BmVzKVgC1k_10empack_lib6empack5stateINtB5_19ModpackStateManagerDNtNtNtB9_11application7session18FileSystemProviderEL_E3newB9_
FN:456,_RNvMs2_NtNtCs5BmVzKVgC1k_10empack_lib6empack5stateINtB5_19ModpackStateManagerNtNtB5_5tests17MockStateProviderE14discover_stateB9_
FN:486,_RNvMs2_NtNtCs5BmVzKVgC1k_10empack_lib6empack5stateINtB5_19ModpackStateManagerNtNtB5_5tests17MockStateProviderE14validate_stateB9_
FN:527,_RNvMs2_NtNtCs5BmVzKVgC1k_10empack_lib6empack5stateINtB5_19ModpackStateManagerNtNtB5_5tests17MockStateProviderE18execute_transitionB9_
FN:451,_RNvMs2_NtNtCs5BmVzKVgC1k_10empack_lib6empack5stateINtB5_19ModpackStateManagerNtNtB5_5tests17MockStateProviderE3newB9_
FN:585,_RNvMs2_NtNtCs5BmVzKVgC1k_10empack_lib6empack5stateINtB5_19ModpackStateManagerNtNtB5_5tests17MockStateProviderE5pathsB9_
FN:612,_RNvMs3_NtNtCs5BmVzKVgC1k_10empack_lib6empack5stateNtB5_12ModpackPaths12build_output
FN:244,_RNvNtNtCs5BmVzKVgC1k_10empack_lib6empack5state13execute_build
FN:52,_RNvNtNtCs5BmVzKVgC1k_10empack_lib6empack5state14can_transition
FN:434,_RNvXs0_NtNtCs5BmVzKVgC1k_10empack_lib6empack5stateNtB5_10StateErrorINtNtCsj3QBrvpYeJs_4core7convert4FromNtNtB7_6config11ConfigErrorE4from
FN:522,_RNvMs2_NtNtCs5BmVzKVgC1k_10empack_lib6empack5stateINtB5_19ModpackStateManagerpE14can_transitionB9_
FN:461,_RNvMs2_NtNtCs5BmVzKVgC1k_10empack_lib6empack5stateINtB5_19ModpackStateManagerpE15get_state_filesB9_
FN:418,_RNvXNtNtCs5BmVzKVgC1k_10empack_lib6empack5stateNtB2_10StateErrorINtNtCsj3QBrvpYeJs_4core7convert4FromNtNtNtCs580JJAt54ne_3std2io5error5ErrorE4from
FN:442,_RNvXs1_NtNtCs5BmVzKVgC1k_10empack_lib6empack5stateNtB5_10StateErrorINtNtCsj3QBrvpYeJs_4core7convert4FromNtCsjWkhl1aWdVK_6anyhow5ErrorE4from
FN:426,_RNvXs_NtNtCs5BmVzKVgC1k_10empack_lib6empack5stateNtB4_10StateErrorINtNtCsj3QBrvpYeJs_4core7convert4FromNtNtB6_6builds10BuildErrorE4from
FN:16,_RINvNtNtCshmQA5Mrgi1L_10empack_lib6empack5state14discover_stateDNtNtNtB6_11application7session18FileSystemProviderEL_ECsaTeXJNQleyZ_12hermetic_e2e
FN:168,_RINvNtNtCshmQA5Mrgi1L_10empack_lib6empack5state18execute_initializeDNtNtNtB6_11application7session18FileSystemProviderEL_ECsaTeXJNQleyZ_12hermetic_e2e
FN:74,_RINvNtNtCshmQA5Mrgi1L_10empack_lib6empack5state18execute_transitionDNtNtNtB6_11application7session18FileSystemProviderEL_ECsaTeXJNQleyZ_12hermetic_e2e
FN:341,_RINvNtNtCshmQA5Mrgi1L_10empack_lib6empack5state19clean_configurationDNtNtNtB6_11application7session18FileSystemProviderEL_ECsaTeXJNQleyZ_12hermetic_e2e
FN:223,_RINvNtNtCshmQA5Mrgi1L_10empack_lib6empack5state19execute_synchronizeDNtNtNtB6_11application7session18FileSystemProviderEL_ECsaTeXJNQleyZ_12hermetic_e2e
FN:325,_RINvNtNtCshmQA5Mrgi1L_10empack_lib6empack5state21clean_build_artifactsDNtNtNtB6_11application7session18FileSystemProviderEL_ECsaTeXJNQleyZ_12hermetic_e2e
FN:296,_RINvNtNtCshmQA5Mrgi1L_10empack_lib6empack5state24create_initial_structureDNtNtNtB6_11application7session18FileSystemProviderEL_ECsaTeXJNQleyZ_12hermetic_e2e
FN:179,_RNCINvNtNtCshmQA5Mrgi1L_10empack_lib6empack5state18execute_initializeDNtNtNtB8_11application7session18FileSystemProviderEL_E0CsaTeXJNQleyZ_12hermetic_e2e
FN:195,_RNCINvNtNtCshmQA5Mrgi1L_10empack_lib6empack5state18execute_initializeDNtNtNtB8_11application7session18FileSystemProviderEL_Es0_0CsaTeXJNQleyZ_12hermetic_e2e
FN:214,_RNCINvNtNtCshmQA5Mrgi1L_10empack_lib6empack5state18execute_initializeDNtNtNtB8_11application7session18FileSystemProviderEL_Es1_0CsaTeXJNQleyZ_12hermetic_e2e
FN:188,_RNCINvNtNtCshmQA5Mrgi1L_10empack_lib6empack5state18execute_initializeDNtNtNtB8_11application7session18FileSystemProviderEL_Es_0CsaTeXJNQleyZ_12hermetic_e2e
FN:78,_RNCINvNtNtCshmQA5Mrgi1L_10empack_lib6empack5state18execute_transitionDNtNtNtB8_11application7session18FileSystemProviderEL_E0CsaTeXJNQleyZ_12hermetic_e2e
FN:351,_RNCINvNtNtCshmQA5Mrgi1L_10empack_lib6empack5state19clean_configurationDNtNtNtB8_11application7session18FileSystemProviderEL_E0CsaTeXJNQleyZ_12hermetic_e2e
FN:369,_RNCINvNtNtCshmQA5Mrgi1L_10empack_lib6empack5state19clean_configurationDNtNtNtB8_11application7session18FileSystemProviderEL_Es0_0CsaTeXJNQleyZ_12hermetic_e2e
FN:360,_RNCINvNtNtCshmQA5Mrgi1L_10empack_lib6empack5state19clean_configurationDNtNtNtB8_11application7session18FileSystemProviderEL_Es_0CsaTeXJNQleyZ_12hermetic_e2e
FN:334,_RNCINvNtNtCshmQA5Mrgi1L_10empack_lib6empack5state21clean_build_artifactsDNtNtNtB8_11application7session18FileSystemProviderEL_E0CsaTeXJNQleyZ_12hermetic_e2e
FN:304,_RNCINvNtNtCshmQA5Mrgi1L_10empack_lib6empack5state24create_initial_structureDNtNtNtB8_11application7session18FileSystemProviderEL_E0CsaTeXJNQleyZ_12hermetic_e2e
FN:318,_RNCINvNtNtCshmQA5Mrgi1L_10empack_lib6empack5state24create_initial_structureDNtNtNtB8_11application7session18FileSystemProviderEL_Es0_0CsaTeXJNQleyZ_12hermetic_e2e
FN:311,_RNCINvNtNtCshmQA5Mrgi1L_10empack_lib6empack5state24create_initial_structureDNtNtNtB8_11application7session18FileSystemProviderEL_Es_0CsaTeXJNQleyZ_12hermetic_e2e
FN:275,_RNCNCNvNtNtCshmQA5Mrgi1L_10empack_lib6empack5state13execute_build00CsaTeXJNQleyZ_12hermetic_e2e
FN:530,_RNCNvMs2_NtNtCshmQA5Mrgi1L_10empack_lib6empack5stateINtB7_19ModpackStateManagerDNtNtNtBb_11application7session18FileSystemProviderEL_E18execute_transition0CsaTeXJNQleyZ_12hermetic_e2e
FN:247,_RNCNvNtNtCshmQA5Mrgi1L_10empack_lib6empack5state13execute_build0CsaTeXJNQleyZ_12hermetic_e2e
FN:456,_RNvMs2_NtNtCshmQA5Mrgi1L_10empack_lib6empack5stateINtB5_19ModpackStateManagerDNtNtNtB9_11application7session18FileSystemProviderEL_E14discover_stateCsaTeXJNQleyZ_12hermetic_e2e
FN:527,_RNvMs2_NtNtCshmQA5Mrgi1L_10empack_lib6empack5stateINtB5_19ModpackStateManagerDNtNtNtB9_11application7session18FileSystemProviderEL_E18execute_transitionCsaTeXJNQleyZ_12hermetic_e2e
FN:535,_RNvMs2_NtNtCshmQA5Mrgi1L_10empack_lib6empack5stateINtB5_19ModpackStateManagerDNtNtNtB9_11application7session18FileSystemProviderEL_E22begin_state_transitionCsaTeXJNQleyZ_12hermetic_e2e
FN:574,_RNvMs2_NtNtCshmQA5Mrgi1L_10empack_lib6empack5stateINtB5_19ModpackStateManagerDNtNtNtB9_11application7session18FileSystemProviderEL_E25complete_state_transitionCsaTeXJNQleyZ_12hermetic_e2e
FNDA:1,_RINvNtNtCshmQA5Mrgi1L_10empack_lib6empack5state14discover_stateDNtNtNtB6_11application7session18FileSystemProviderEL_ECsbc2rGA5VZid_11add_command
FNDA:0,_RINvNtNtCshmQA5Mrgi1L_10empack_lib6empack5state18execute_initializeDNtNtNtB6_11application7session18FileSystemProviderEL_ECsbc2rGA5VZid_11add_command
FNDA:0,_RINvNtNtCshmQA5Mrgi1L_10empack_lib6empack5state18execute_transitionDNtNtNtB6_11application7session18FileSystemProviderEL_ECsbc2rGA5VZid_11add_command
FNDA:0,_RINvNtNtCshmQA5Mrgi1L_10empack_lib6empack5state19clean_configurationDNtNtNtB6_11application7session18FileSystemProviderEL_ECsbc2rGA5VZid_11add_command
FNDA:0,_RINvNtNtCshmQA5Mrgi1L_10empack_lib6empack5state19execute_synchronizeDNtNtNtB6_11application7session18FileSystemProviderEL_ECsbc2rGA5VZid_11add_command
FNDA:0,_RINvNtNtCshmQA5Mrgi1L_10empack_lib6empack5state21clean_build_artifactsDNtNtNtB6_11application7session18FileSystemProviderEL_ECsbc2rGA5VZid_11add_command
FNDA:0,_RINvNtNtCshmQA5Mrgi1L_10empack_lib6empack5state24create_initial_structureDNtNtNtB6_11application7session18FileSystemProviderEL_ECsbc2rGA5VZid_11add_command
FNDA:0,_RNCINvNtNtCshmQA5Mrgi1L_10empack_lib6empack5state18execute_initializeDNtNtNtB8_11application7session18FileSystemProviderEL_E0Csbc2rGA5VZid_11add_command
FNDA:0,_RNCINvNtNtCshmQA5Mrgi1L_10empack_lib6empack5state18execute_initializeDNtNtNtB8_11application7session18FileSystemProviderEL_Es0_0Csbc2rGA5VZid_11add_command
FNDA:0,_RNCINvNtNtCshmQA5Mrgi1L_10empack_lib6empack5state18execute_initializeDNtNtNtB8_11application7session18FileSystemProviderEL_Es1_0Csbc2rGA5VZid_11add_command
FNDA:0,_RNCINvNtNtCshmQA5Mrgi1L_10empack_lib6empack5state18execute_initializeDNtNtNtB8_11application7session18FileSystemProviderEL_Es_0Csbc2rGA5VZid_11add_command
FNDA:0,_RNCINvNtNtCshmQA5Mrgi1L_10empack_lib6empack5state18execute_transitionDNtNtNtB8_11application7session18FileSystemProviderEL_E0Csbc2rGA5VZid_11add_command
FNDA:0,_RNCINvNtNtCshmQA5Mrgi1L_10empack_lib6empack5state19clean_configurationDNtNtNtB8_11application7session18FileSystemProviderEL_E0Csbc2rGA5VZid_11add_command
FNDA:0,_RNCINvNtNtCshmQA5Mrgi1L_10empack_lib6empack5state19clean_configurationDNtNtNtB8_11application7session18FileSystemProviderEL_Es0_0Csbc2rGA5VZid_11add_command
FNDA:0,_RNCINvNtNtCshmQA5Mrgi1L_10empack_lib6empack5state19clean_configurationDNtNtNtB8_11application7session18FileSystemProviderEL_Es_0Csbc2rGA5VZid_11add_command
FNDA:0,_RNCINvNtNtCshmQA5Mrgi1L_10empack_lib6empack5state21clean_build_artifactsDNtNtNtB8_11application7session18FileSystemProviderEL_E0Csbc2rGA5VZid_11add_command
FNDA:0,_RNCINvNtNtCshmQA5Mrgi1L_10empack_lib6empack5state24create_initial_structureDNtNtNtB8_11application7session18FileSystemProviderEL_E0Csbc2rGA5VZid_11add_command
FNDA:0,_RNCINvNtNtCshmQA5Mrgi1L_10empack_lib6empack5state24create_initial_structureDNtNtNtB8_11application7session18FileSystemProviderEL_Es0_0Csbc2rGA5VZid_11add_command
FNDA:0,_RNCINvNtNtCshmQA5Mrgi1L_10empack_lib6empack5state24create_initial_structureDNtNtNtB8_11application7session18FileSystemProviderEL_Es_0Csbc2rGA5VZid_11add_command
FNDA:0,_RNCNCNvNtNtCshmQA5Mrgi1L_10empack_lib6empack5state13execute_build00Csbc2rGA5VZid_11add_command
FNDA:0,_RNCNvMs2_NtNtCshmQA5Mrgi1L_10empack_lib6empack5stateINtB7_19ModpackStateManagerDNtNtNtBb_11application7session18FileSystemProviderEL_E18execute_transition0Csbc2rGA5VZid_11add_command
FNDA:0,_RNCNvNtNtCshmQA5Mrgi1L_10empack_lib6empack5state13execute_build0Csbc2rGA5VZid_11add_command
FNDA:1,_RNvMs2_NtNtCshmQA5Mrgi1L_10empack_lib6empack5stateINtB5_19ModpackStateManagerDNtNtNtB9_11application7session18FileSystemProviderEL_E14discover_stateCsbc2rGA5VZid_11add_command
FNDA:0,_RNvMs2_NtNtCshmQA5Mrgi1L_10empack_lib6empack5stateINtB5_19ModpackStateManagerDNtNtNtB9_11application7session18FileSystemProviderEL_E18execute_transitionCsbc2rGA5VZid_11add_command
FNDA:0,_RNvMs2_NtNtCshmQA5Mrgi1L_10empack_lib6empack5stateINtB5_19ModpackStateManagerDNtNtNtB9_11application7session18FileSystemProviderEL_E22begin_state_transitionCsbc2rGA5VZid_11add_command
FNDA:0,_RNvMs2_NtNtCshmQA5Mrgi1L_10empack_lib6empack5stateINtB5_19ModpackStateManagerDNtNtNtB9_11application7session18FileSystemProviderEL_E25complete_state_transitionCsbc2rGA5VZid_11add_command
FNDA:0,_RINvNtNtCshmQA5Mrgi1L_10empack_lib6empack5state14discover_statepEB6_
FNDA:0,_RINvNtNtCshmQA5Mrgi1L_10empack_lib6empack5state18execute_initializepEB6_
FNDA:0,_RINvNtNtCshmQA5Mrgi1L_10empack_lib6empack5state18execute_transitionpEB6_
FNDA:0,_RINvNtNtCshmQA5Mrgi1L_10empack_lib6empack5state19clean_configurationpEB6_
FNDA:0,_RINvNtNtCshmQA5Mrgi1L_10empack_lib6empack5state19execute_synchronizepEB6_
FNDA:0,_RINvNtNtCshmQA5Mrgi1L_10empack_lib6empack5state21clean_build_artifactspEB6_
FNDA:0,_RINvNtNtCshmQA5Mrgi1L_10empack_lib6empack5state24create_initial_structurepEB6_
FNDA:0,_RNCINvNtNtCshmQA5Mrgi1L_10empack_lib6empack5state18execute_initializepE0B8_
FNDA:0,_RNCINvNtNtCshmQA5Mrgi1L_10empack_lib6empack5state18execute_initializepEs0_0B8_
FNDA:0,_RNCINvNtNtCshmQA5Mrgi1L_10empack_lib6empack5state18execute_initializepEs1_0B8_
FNDA:0,_RNCINvNtNtCshmQA5Mrgi1L_10empack_lib6empack5state18execute_initializepEs_0B8_
FNDA:0,_RNCINvNtNtCshmQA5Mrgi1L_10empack_lib6empack5state18execute_transitionpE0B8_
FNDA:0,_RNCINvNtNtCshmQA5Mrgi1L_10empack_lib6empack5state19clean_configurationpE0B8_
FNDA:0,_RNCINvNtNtCshmQA5Mrgi1L_10empack_lib6empack5state19clean_configurationpEs0_0B8_
FNDA:0,_RNCINvNtNtCshmQA5Mrgi1L_10empack_lib6empack5state19clean_configurationpEs_0B8_
FNDA:0,_RNCINvNtNtCshmQA5Mrgi1L_10empack_lib6empack5state21clean_build_artifactspE0B8_
FNDA:0,_RNCINvNtNtCshmQA5Mrgi1L_10empack_lib6empack5state24create_initial_structurepE0B8_
FNDA:0,_RNCINvNtNtCshmQA5Mrgi1L_10empack_lib6empack5state24create_initial_structurepEs0_0B8_
FNDA:0,_RNCINvNtNtCshmQA5Mrgi1L_10empack_lib6empack5state24create_initial_structurepEs_0B8_
FNDA:0,_RNCNCNvNtNtCshmQA5Mrgi1L_10empack_lib6empack5state13execute_build00B9_
FNDA:0,_RNCNvMs2_NtNtCshmQA5Mrgi1L_10empack_lib6empack5stateINtB7_19ModpackStateManagerpE18execute_transition0Bb_
FNDA:0,_RNCNvNtNtCshmQA5Mrgi1L_10empack_lib6empack5state13execute_build0B7_
FNDA:0,_RNvMs2_NtNtCshmQA5Mrgi1L_10empack_lib6empack5stateINtB5_19ModpackStateManagerpE14can_transitionB9_
FNDA:0,_RNvMs2_NtNtCshmQA5Mrgi1L_10empack_lib6empack5stateINtB5_19ModpackStateManagerpE14discover_stateB9_
FNDA:0,_RNvMs2_NtNtCshmQA5Mrgi1L_10empack_lib6empack5stateINtB5_19ModpackStateManagerpE14validate_stateB9_
FNDA:0,_RNvMs2_NtNtCshmQA5Mrgi1L_10empack_lib6empack5stateINtB5_19ModpackStateManagerpE15get_state_filesB9_
FNDA:0,_RNvMs2_NtNtCshmQA5Mrgi1L_10empack_lib6empack5stateINtB5_19ModpackStateManagerpE18execute_transitionB9_
FNDA:0,_RNvMs2_NtNtCshmQA5Mrgi1L_10empack_lib6empack5stateINtB5_19ModpackStateManagerpE22begin_state_transitionB9_
FNDA:0,_RNvMs2_NtNtCshmQA5Mrgi1L_10empack_lib6empack5stateINtB5_19ModpackStateManagerpE25complete_state_transitionB9_
FNDA:0,_RNvMs2_NtNtCshmQA5Mrgi1L_10empack_lib6empack5stateINtB5_19ModpackStateManagerpE5pathsB9_
FNDA:34,_RNvMs2_NtNtCshmQA5Mrgi1L_10empack_lib6empack5stateINtB5_19ModpackStateManagerDNtNtNtB9_11application7session18FileSystemProviderEL_E3newB9_
FNDA:0,_RNvMs3_NtNtCshmQA5Mrgi1L_10empack_lib6empack5stateNtB5_12ModpackPaths12build_output
FNDA:0,_RNvNtNtCshmQA5Mrgi1L_10empack_lib6empack5state13execute_build
FNDA:0,_RNvNtNtCshmQA5Mrgi1L_10empack_lib6empack5state14can_transition
FNDA:0,_RNvXNtNtCshmQA5Mrgi1L_10empack_lib6empack5stateNtB2_10StateErrorINtNtCsj3QBrvpYeJs_4core7convert4FromNtNtNtCs580JJAt54ne_3std2io5error5ErrorE4from
FNDA:0,_RNvXs0_NtNtCshmQA5Mrgi1L_10empack_lib6empack5stateNtB5_10StateErrorINtNtCsj3QBrvpYeJs_4core7convert4FromNtNtB7_6config11ConfigErrorE4from
FNDA:0,_RNvXs1_NtNtCshmQA5Mrgi1L_10empack_lib6empack5stateNtB5_10StateErrorINtNtCsj3QBrvpYeJs_4core7convert4FromNtCsjWkhl1aWdVK_6anyhow5ErrorE4from
FNDA:0,_RNvXs_NtNtCshmQA5Mrgi1L_10empack_lib6empack5stateNtB4_10StateErrorINtNtCsj3QBrvpYeJs_4core7convert4FromNtNtB6_6builds10BuildErrorE4from
FNDA:6,_RINvNtNtCshmQA5Mrgi1L_10empack_lib6empack5state14discover_stateDNtNtNtB6_11application7session18FileSystemProviderEL_ECs8uoVYB8rq8D_17build_client_full
FNDA:0,_RINvNtNtCshmQA5Mrgi1L_10empack_lib6empack5state18execute_initializeDNtNtNtB6_11application7session18FileSystemProviderEL_ECs8uoVYB8rq8D_17build_client_full
FNDA:0,_RINvNtNtCshmQA5Mrgi1L_10empack_lib6empack5state18execute_transitionDNtNtNtB6_11application7session18FileSystemProviderEL_ECs8uoVYB8rq8D_17build_client_full
FNDA:0,_RINvNtNtCshmQA5Mrgi1L_10empack_lib6empack5state19clean_configurationDNtNtNtB6_11application7session18FileSystemProviderEL_ECs8uoVYB8rq8D_17build_client_full
FNDA:0,_RINvNtNtCshmQA5Mrgi1L_10empack_lib6empack5state19execute_synchronizeDNtNtNtB6_11application7session18FileSystemProviderEL_ECs8uoVYB8rq8D_17build_client_full
FNDA:0,_RINvNtNtCshmQA5Mrgi1L_10empack_lib6empack5state21clean_build_artifactsDNtNtNtB6_11application7session18FileSystemProviderEL_ECs8uoVYB8rq8D_17build_client_full
FNDA:0,_RINvNtNtCshmQA5Mrgi1L_10empack_lib6empack5state24create_initial_structureDNtNtNtB6_11application7session18FileSystemProviderEL_ECs8uoVYB8rq8D_17build_client_full
FNDA:0,_RNCINvNtNtCshmQA5Mrgi1L_10empack_lib6empack5state18execute_initializeDNtNtNtB8_11application7session18FileSystemProviderEL_E0Cs8uoVYB8rq8D_17build_client_full
FNDA:0,_RNCINvNtNtCshmQA5Mrgi1L_10empack_lib6empack5state18execute_initializeDNtNtNtB8_11application7session18FileSystemProviderEL_Es0_0Cs8uoVYB8rq8D_17build_client_full
FNDA:0,_RNCINvNtNtCshmQA5Mrgi1L_10empack_lib6empack5state18execute_initializeDNtNtNtB8_11application7session18FileSystemProviderEL_Es1_0Cs8uoVYB8rq8D_17build_client_full
FNDA:0,_RNCINvNtNtCshmQA5Mrgi1L_10empack_lib6empack5state18execute_initializeDNtNtNtB8_11application7session18FileSystemProviderEL_Es_0Cs8uoVYB8rq8D_17build_client_full
FNDA:0,_RNCINvNtNtCshmQA5Mrgi1L_10empack_lib6empack5state18execute_transitionDNtNtNtB8_11application7session18FileSystemProviderEL_E0Cs8uoVYB8rq8D_17build_client_full
FNDA:0,_RNCINvNtNtCshmQA5Mrgi1L_10empack_lib6empack5state19clean_configurationDNtNtNtB8_11application7session18FileSystemProviderEL_E0Cs8uoVYB8rq8D_17build_client_full
FNDA:0,_RNCINvNtNtCshmQA5Mrgi1L_10empack_lib6empack5state19clean_configurationDNtNtNtB8_11application7session18FileSystemProviderEL_Es0_0Cs8uoVYB8rq8D_17build_client_full
FNDA:0,_RNCINvNtNtCshmQA5Mrgi1L_10empack_lib6empack5state19clean_configurationDNtNtNtB8_11application7session18FileSystemProviderEL_Es_0Cs8uoVYB8rq8D_17build_client_full
FNDA:0,_RNCINvNtNtCshmQA5Mrgi1L_10empack_lib6empack5state21clean_build_artifactsDNtNtNtB8_11application7session18FileSystemProviderEL_E0Cs8uoVYB8rq8D_17build_client_full
FNDA:0,_RNCINvNtNtCshmQA5Mrgi1L_10empack_lib6empack5state24create_initial_structureDNtNtNtB8_11application7session18FileSystemProviderEL_E0Cs8uoVYB8rq8D_17build_client_full
FNDA:0,_RNCINvNtNtCshmQA5Mrgi1L_10empack_lib6empack5state24create_initial_structureDNtNtNtB8_11application7session18FileSystemProviderEL_Es0_0Cs8uoVYB8rq8D_17build_client_full
FNDA:0,_RNCINvNtNtCshmQA5Mrgi1L_10empack_lib6empack5state24create_initial_structureDNtNtNtB8_11application7session18FileSystemProviderEL_Es_0Cs8uoVYB8rq8D_17build_client_full
FNDA:0,_RNCNCNvNtNtCshmQA5Mrgi1L_10empack_lib6empack5state13execute_build00Cs8uoVYB8rq8D_17build_client_full
FNDA:0,_RNCNvMs2_NtNtCshmQA5Mrgi1L_10empack_lib6empack5stateINtB7_19ModpackStateManagerDNtNtNtBb_11application7session18FileSystemProviderEL_E18execute_transition0Cs8uoVYB8rq8D_17build_client_full
FNDA:0,_RNCNvNtNtCshmQA5Mrgi1L_10empack_lib6empack5state13execute_build0Cs8uoVYB8rq8D_17build_client_full
FNDA:6,_RNvMs2_NtNtCshmQA5Mrgi1L_10empack_lib6empack5stateINtB5_19ModpackStateManagerDNtNtNtB9_11application7session18FileSystemProviderEL_E14discover_stateCs8uoVYB8rq8D_17build_client_full
FNDA:0,_RNvMs2_NtNtCshmQA5Mrgi1L_10empack_lib6empack5stateINtB5_19ModpackStateManagerDNtNtNtB9_11application7session18FileSystemProviderEL_E18execute_transitionCs8uoVYB8rq8D_17build_client_full
FNDA:3,_RNvMs2_NtNtCshmQA5Mrgi1L_10empack_lib6empack5stateINtB5_19ModpackStateManagerDNtNtNtB9_11application7session18FileSystemProviderEL_E22begin_state_transitionCs8uoVYB8rq8D_17build_client_full
FNDA:3,_RNvMs2_NtNtCshmQA5Mrgi1L_10empack_lib6empack5stateINtB5_19ModpackStateManagerDNtNtNtB9_11application7session18FileSystemProviderEL_E25complete_state_transitionCs8uoVYB8rq8D_17build_client_full
FNDA:6,_RINvNtNtCshmQA5Mrgi1L_10empack_lib6empack5state14discover_stateDNtNtNtB6_11application7session18FileSystemProviderEL_ECsj8HZQhsijMc_12build_server
FNDA:0,_RINvNtNtCshmQA5Mrgi1L_10empack_lib6empack5state18execute_initializeDNtNtNtB6_11application7session18FileSystemProviderEL_ECsj8HZQhsijMc_12build_server
FNDA:0,_RINvNtNtCshmQA5Mrgi1L_10empack_lib6empack5state18execute_transitionDNtNtNtB6_11application7session18FileSystemProviderEL_ECsj8HZQhsijMc_12build_server
FNDA:0,_RINvNtNtCshmQA5Mrgi1L_10empack_lib6empack5state19clean_configurationDNtNtNtB6_11application7session18FileSystemProviderEL_ECsj8HZQhsijMc_12build_server
FNDA:0,_RINvNtNtCshmQA5Mrgi1L_10empack_lib6empack5state19execute_synchronizeDNtNtNtB6_11application7session18FileSystemProviderEL_ECsj8HZQhsijMc_12build_server
FNDA:0,_RINvNtNtCshmQA5Mrgi1L_10empack_lib6empack5state21clean_build_artifactsDNtNtNtB6_11application7session18FileSystemProviderEL_ECsj8HZQhsijMc_12build_server
FNDA:0,_RINvNtNtCshmQA5Mrgi1L_10empack_lib6empack5state24create_initial_structureDNtNtNtB6_11application7session18FileSystemProviderEL_ECsj8HZQhsijMc_12build_server
FNDA:0,_RNCINvNtNtCshmQA5Mrgi1L_10empack_lib6empack5state18execute_initializeDNtNtNtB8_11application7session18FileSystemProviderEL_E0Csj8HZQhsijMc_12build_server
FNDA:0,_RNCINvNtNtCshmQA5Mrgi1L_10empack_lib6empack5state18execute_initializeDNtNtNtB8_11application7session18FileSystemProviderEL_Es0_0Csj8HZQhsijMc_12build_server
FNDA:0,_RNCINvNtNtCshmQA5Mrgi1L_10empack_lib6empack5state18execute_initializeDNtNtNtB8_11application7session18FileSystemProviderEL_Es1_0Csj8HZQhsijMc_12build_server
FNDA:0,_RNCINvNtNtCshmQA5Mrgi1L_10empack_lib6empack5state18execute_initializeDNtNtNtB8_11application7session18FileSystemProviderEL_Es_0Csj8HZQhsijMc_12build_server
FNDA:0,_RNCINvNtNtCshmQA5Mrgi1L_10empack_lib6empack5state18execute_transitionDNtNtNtB8_11application7session18FileSystemProviderEL_E0Csj8HZQhsijMc_12build_server
FNDA:0,_RNCINvNtNtCshmQA5Mrgi1L_10empack_lib6empack5state19clean_configurationDNtNtNtB8_11application7session18FileSystemProviderEL_E0Csj8HZQhsijMc_12build_server
FNDA:0,_RNCINvNtNtCshmQA5Mrgi1L_10empack_lib6empack5state19clean_configurationDNtNtNtB8_11application7session18FileSystemProviderEL_Es0_0Csj8HZQhsijMc_12build_server
FNDA:0,_RNCINvNtNtCshmQA5Mrgi1L_10empack_lib6empack5state19clean_configurationDNtNtNtB8_11application7session18FileSystemProviderEL_Es_0Csj8HZQhsijMc_12build_server
FNDA:0,_RNCINvNtNtCshmQA5Mrgi1L_10empack_lib6empack5state21clean_build_artifactsDNtNtNtB8_11application7session18FileSystemProviderEL_E0Csj8HZQhsijMc_12build_server
FNDA:0,_RNCINvNtNtCshmQA5Mrgi1L_10empack_lib6empack5state24create_initial_structureDNtNtNtB8_11application7session18FileSystemProviderEL_E0Csj8HZQhsijMc_12build_server
FNDA:0,_RNCINvNtNtCshmQA5Mrgi1L_10empack_lib6empack5state24create_initial_structureDNtNtNtB8_11application7session18FileSystemProviderEL_Es0_0Csj8HZQhsijMc_12build_server
FNDA:0,_RNCINvNtNtCshmQA5Mrgi1L_10empack_lib6empack5state24create_initial_structureDNtNtNtB8_11application7session18FileSystemProviderEL_Es_0Csj8HZQhsijMc_12build_server
FNDA:0,_RNCNCNvNtNtCshmQA5Mrgi1L_10empack_lib6empack5state13execute_build00Csj8HZQhsijMc_12build_server
FNDA:0,_RNCNvMs2_NtNtCshmQA5Mrgi1L_10empack_lib6empack5stateINtB7_19ModpackStateManagerDNtNtNtBb_11application7session18FileSystemProviderEL_E18execute_transition0Csj8HZQhsijMc_12build_server
FNDA:0,_RNCNvNtNtCshmQA5Mrgi1L_10empack_lib6empack5state13execute_build0Csj8HZQhsijMc_12build_server
FNDA:6,_RNvMs2_NtNtCshmQA5Mrgi1L_10empack_lib6empack5stateINtB5_19ModpackStateManagerDNtNtNtB9_11application7session18FileSystemProviderEL_E14discover_stateCsj8HZQhsijMc_12build_server
FNDA:0,_RNvMs2_NtNtCshmQA5Mrgi1L_10empack_lib6empack5stateINtB5_19ModpackStateManagerDNtNtNtB9_11application7session18FileSystemProviderEL_E18execute_transitionCsj8HZQhsijMc_12build_server
FNDA:3,_RNvMs2_NtNtCshmQA5Mrgi1L_10empack_lib6empack5stateINtB5_19ModpackStateManagerDNtNtNtB9_11application7session18FileSystemProviderEL_E22begin_state_transitionCsj8HZQhsijMc_12build_server
FNDA:2,_RNvMs2_NtNtCshmQA5Mrgi1L_10empack_lib6empack5stateINtB5_19ModpackStateManagerDNtNtNtB9_11application7session18FileSystemProviderEL_E25complete_state_transitionCsj8HZQhsijMc_12build_server
FNDA:6,_RINvNtNtCshmQA5Mrgi1L_10empack_lib6empack5state14discover_stateDNtNtNtB6_11application7session18FileSystemProviderEL_ECsdrRwdeEzguW_17build_server_full
FNDA:0,_RINvNtNtCshmQA5Mrgi1L_10empack_lib6empack5state18execute_initializeDNtNtNtB6_11application7session18FileSystemProviderEL_ECsdrRwdeEzguW_17build_server_full
FNDA:0,_RINvNtNtCshmQA5Mrgi1L_10empack_lib6empack5state18execute_transitionDNtNtNtB6_11application7session18FileSystemProviderEL_ECsdrRwdeEzguW_17build_server_full
FNDA:0,_RINvNtNtCshmQA5Mrgi1L_10empack_lib6empack5state19clean_configurationDNtNtNtB6_11application7session18FileSystemProviderEL_ECsdrRwdeEzguW_17build_server_full
FNDA:0,_RINvNtNtCshmQA5Mrgi1L_10empack_lib6empack5state19execute_synchronizeDNtNtNtB6_11application7session18FileSystemProviderEL_ECsdrRwdeEzguW_17build_server_full
FNDA:0,_RINvNtNtCshmQA5Mrgi1L_10empack_lib6empack5state21clean_build_artifactsDNtNtNtB6_11application7session18FileSystemProviderEL_ECsdrRwdeEzguW_17build_server_full
FNDA:0,_RINvNtNtCshmQA5Mrgi1L_10empack_lib6empack5state24create_initial_structureDNtNtNtB6_11application7session18FileSystemProviderEL_ECsdrRwdeEzguW_17build_server_full
FNDA:0,_RNCINvNtNtCshmQA5Mrgi1L_10empack_lib6empack5state18execute_initializeDNtNtNtB8_11application7session18FileSystemProviderEL_E0CsdrRwdeEzguW_17build_server_full
FNDA:0,_RNCINvNtNtCshmQA5Mrgi1L_10empack_lib6empack5state18execute_initializeDNtNtNtB8_11application7session18FileSystemProviderEL_Es0_0CsdrRwdeEzguW_17build_server_full
FNDA:0,_RNCINvNtNtCshmQA5Mrgi1L_10empack_lib6empack5state18execute_initializeDNtNtNtB8_11application7session18FileSystemProviderEL_Es1_0CsdrRwdeEzguW_17build_server_full
FNDA:0,_RNCINvNtNtCshmQA5Mrgi1L_10empack_lib6empack5state18execute_initializeDNtNtNtB8_11application7session18FileSystemProviderEL_Es_0CsdrRwdeEzguW_17build_server_full
FNDA:0,_RNCINvNtNtCshmQA5Mrgi1L_10empack_lib6empack5state18execute_transitionDNtNtNtB8_11application7session18FileSystemProviderEL_E0CsdrRwdeEzguW_17build_server_full
FNDA:0,_RNCINvNtNtCshmQA5Mrgi1L_10empack_lib6empack5state19clean_configurationDNtNtNtB8_11application7session18FileSystemProviderEL_E0CsdrRwdeEzguW_17build_server_full
FNDA:0,_RNCINvNtNtCshmQA5Mrgi1L_10empack_lib6empack5state19clean_configurationDNtNtNtB8_11application7session18FileSystemProviderEL_Es0_0CsdrRwdeEzguW_17build_server_full
FNDA:0,_RNCINvNtNtCshmQA5Mrgi1L_10empack_lib6empack5state19clean_configurationDNtNtNtB8_11application7session18FileSystemProviderEL_Es_0CsdrRwdeEzguW_17build_server_full
FNDA:0,_RNCINvNtNtCshmQA5Mrgi1L_10empack_lib6empack5state21clean_build_artifactsDNtNtNtB8_11application7session18FileSystemProviderEL_E0CsdrRwdeEzguW_17build_server_full
FNDA:0,_RNCINvNtNtCshmQA5Mrgi1L_10empack_lib6empack5state24create_initial_structureDNtNtNtB8_11application7session18FileSystemProviderEL_E0CsdrRwdeEzguW_17build_server_full
FNDA:0,_RNCINvNtNtCshmQA5Mrgi1L_10empack_lib6empack5state24create_initial_structureDNtNtNtB8_11application7session18FileSystemProviderEL_Es0_0CsdrRwdeEzguW_17build_server_full
FNDA:0,_RNCINvNtNtCshmQA5Mrgi1L_10empack_lib6empack5state24create_initial_structureDNtNtNtB8_11application7session18FileSystemProviderEL_Es_0CsdrRwdeEzguW_17build_server_full
FNDA:0,_RNCNCNvNtNtCshmQA5Mrgi1L_10empack_lib6empack5state13execute_build00CsdrRwdeEzguW_17build_server_full
FNDA:0,_RNCNvMs2_NtNtCshmQA5Mrgi1L_10empack_lib6empack5stateINtB7_19ModpackStateManagerDNtNtNtBb_11application7session18FileSystemProviderEL_E18execute_transition0CsdrRwdeEzguW_17build_server_full
FNDA:0,_RNCNvNtNtCshmQA5Mrgi1L_10empack_lib6empack5state13execute_build0CsdrRwdeEzguW_17build_server_full
FNDA:6,_RNvMs2_NtNtCshmQA5Mrgi1L_10empack_lib6empack5stateINtB5_19ModpackStateManagerDNtNtNtB9_11application7session18FileSystemProviderEL_E14discover_stateCsdrRwdeEzguW_17build_server_full
FNDA:0,_RNvMs2_NtNtCshmQA5Mrgi1L_10empack_lib6empack5stateINtB5_19ModpackStateManagerDNtNtNtB9_11application7session18FileSystemProviderEL_E18execute_transitionCsdrRwdeEzguW_17build_server_full
FNDA:3,_RNvMs2_NtNtCshmQA5Mrgi1L_10empack_lib6empack5stateINtB5_19ModpackStateManagerDNtNtNtB9_11application7session18FileSystemProviderEL_E22begin_state_transitionCsdrRwdeEzguW_17build_server_full
FNDA:3,_RNvMs2_NtNtCshmQA5Mrgi1L_10empack_lib6empack5stateINtB5_19ModpackStateManagerDNtNtNtB9_11application7session18FileSystemProviderEL_E25complete_state_transitionCsdrRwdeEzguW_17build_server_full
FNDA:29,_RINvNtNtCs5BmVzKVgC1k_10empack_lib6empack5state14discover_stateDNtNtNtB6_11application7session18FileSystemProviderEL_EB6_
FNDA:19,_RINvNtNtCs5BmVzKVgC1k_10empack_lib6empack5state14discover_stateNtNtB2_5tests17MockStateProviderEB6_
FNDA:0,_RINvNtNtCs5BmVzKVgC1k_10empack_lib6empack5state18execute_initializeDNtNtNtB6_11application7session18FileSystemProviderEL_EB6_
FNDA:3,_RINvNtNtCs5BmVzKVgC1k_10empack_lib6empack5state18execute_initializeNtNtB2_5tests17MockStateProviderEB6_
FNDA:1,_RINvNtNtCs5BmVzKVgC1k_10empack_lib6empack5state18execute_transitionDNtNtNtB6_11application7session18FileSystemProviderEL_EB6_
FNDA:11,_RINvNtNtCs5BmVzKVgC1k_10empack_lib6empack5state18execute_transitionNtNtB2_5tests17MockStateProviderEB6_
FNDA:1,_RINvNtNtCs5BmVzKVgC1k_10empack_lib6empack5state19clean_configurationDNtNtNtB6_11application7session18FileSystemProviderEL_EB6_
FNDA:3,_RINvNtNtCs5BmVzKVgC1k_10empack_lib6empack5state19clean_configurationNtNtB2_5tests17MockStateProviderEB6_
FNDA:0,_RINvNtNtCs5BmVzKVgC1k_10empack_lib6empack5state19execute_synchronizeDNtNtNtB6_11application7session18FileSystemProviderEL_EB6_
FNDA:2,_RINvNtNtCs5BmVzKVgC1k_10empack_lib6empack5state19execute_synchronizeNtNtB2_5tests17MockStateProviderEB6_
FNDA:0,_RINvNtNtCs5BmVzKVgC1k_10empack_lib6empack5state21clean_build_artifactsDNtNtNtB6_11application7session18FileSystemProviderEL_EB6_
FNDA:3,_RINvNtNtCs5BmVzKVgC1k_10empack_lib6empack5state21clean_build_artifactsNtNtB2_5tests17MockStateProviderEB6_
FNDA:0,_RINvNtNtCs5BmVzKVgC1k_10empack_lib6empack5state24create_initial_structureDNtNtNtB6_11application7session18FileSystemProviderEL_EB6_
FNDA:4,_RINvNtNtCs5BmVzKVgC1k_10empack_lib6empack5state24create_initial_structureNtNtB2_5tests17MockStateProviderEB6_
FNDA:0,_RNCINvNtNtCs5BmVzKVgC1k_10empack_lib6empack5state18execute_initializeDNtNtNtB8_11application7session18FileSystemProviderEL_E0B8_
FNDA:0,_RNCINvNtNtCs5BmVzKVgC1k_10empack_lib6empack5state18execute_initializeDNtNtNtB8_11application7session18FileSystemProviderEL_Es0_0B8_
FNDA:0,_RNCINvNtNtCs5BmVzKVgC1k_10empack_lib6empack5state18execute_initializeDNtNtNtB8_11application7session18FileSystemProviderEL_Es1_0B8_
FNDA:0,_RNCINvNtNtCs5BmVzKVgC1k_10empack_lib6empack5state18execute_initializeDNtNtNtB8_11application7session18FileSystemProviderEL_Es_0B8_
FNDA:0,_RNCINvNtNtCs5BmVzKVgC1k_10empack_lib6empack5state18execute_initializeNtNtB4_5tests17MockStateProviderE0B8_
FNDA:0,_RNCINvNtNtCs5BmVzKVgC1k_10empack_lib6empack5state18execute_initializeNtNtB4_5tests17MockStateProviderEs0_0B8_
FNDA:0,_RNCINvNtNtCs5BmVzKVgC1k_10empack_lib6empack5state18execute_initializeNtNtB4_5tests17MockStateProviderEs1_0B8_
FNDA:0,_RNCINvNtNtCs5BmVzKVgC1k_10empack_lib6empack5state18execute_initializeNtNtB4_5tests17MockStateProviderEs_0B8_
FNDA:1,_RNCINvNtNtCs5BmVzKVgC1k_10empack_lib6empack5state18execute_transitionDNtNtNtB8_11application7session18FileSystemProviderEL_E0B8_
FNDA:11,_RNCINvNtNtCs5BmVzKVgC1k_10empack_lib6empack5state18execute_transitionNtNtB4_5tests17MockStateProviderE0B8_
FNDA:0,_RNCINvNtNtCs5BmVzKVgC1k_10empack_lib6empack5state19clean_configurationDNtNtNtB8_11application7session18FileSystemProviderEL_E0B8_
FNDA:0,_RNCINvNtNtCs5BmVzKVgC1k_10empack_lib6empack5state19clean_configurationDNtNtNtB8_11application7session18FileSystemProviderEL_Es0_0B8_
FNDA:0,_RNCINvNtNtCs5BmVzKVgC1k_10empack_lib6empack5state19clean_configurationDNtNtNtB8_11application7session18FileSystemProviderEL_Es_0B8_
FNDA:0,_RNCINvNtNtCs5BmVzKVgC1k_10empack_lib6empack5state19clean_configurationNtNtB4_5tests17MockStateProviderE0B8_
FNDA:0,_RNCINvNtNtCs5BmVzKVgC1k_10empack_lib6empack5state19clean_configurationNtNtB4_5tests17MockStateProviderEs0_0B8_
FNDA:0,_RNCINvNtNtCs5BmVzKVgC1k_10empack_lib6empack5state19clean_configurationNtNtB4_5tests17MockStateProviderEs_0B8_
FNDA:0,_RNCINvNtNtCs5BmVzKVgC1k_10empack_lib6empack5state21clean_build_artifactsDNtNtNtB8_11application7session18FileSystemProviderEL_E0B8_
FNDA:0,_RNCINvNtNtCs5BmVzKVgC1k_10empack_lib6empack5state21clean_build_artifactsNtNtB4_5tests17MockStateProviderE0B8_
FNDA:0,_RNCINvNtNtCs5BmVzKVgC1k_10empack_lib6empack5state24create_initial_structureDNtNtNtB8_11application7session18FileSystemProviderEL_E0B8_
FNDA:0,_RNCINvNtNtCs5BmVzKVgC1k_10empack_lib6empack5state24create_initial_structureDNtNtNtB8_11application7session18FileSystemProviderEL_Es0_0B8_
FNDA:0,_RNCINvNtNtCs5BmVzKVgC1k_10empack_lib6empack5state24create_initial_structureDNtNtNtB8_11application7session18FileSystemProviderEL_Es_0B8_
FNDA:0,_RNCINvNtNtCs5BmVzKVgC1k_10empack_lib6empack5state24create_initial_structureNtNtB4_5tests17MockStateProviderE0B8_
FNDA:0,_RNCINvNtNtCs5BmVzKVgC1k_10empack_lib6empack5state24create_initial_structureNtNtB4_5tests17MockStateProviderEs0_0B8_
FNDA:0,_RNCINvNtNtCs5BmVzKVgC1k_10empack_lib6empack5state24create_initial_structureNtNtB4_5tests17MockStateProviderEs_0B8_
FNDA:1,_RNCNvMs2_NtNtCs5BmVzKVgC1k_10empack_lib6empack5stateINtB7_19ModpackStateManagerDNtNtNtBb_11application7session18FileSystemProviderEL_E18execute_transition0Bb_
FNDA:6,_RNCNvMs2_NtNtCs5BmVzKVgC1k_10empack_lib6empack5stateINtB7_19ModpackStateManagerNtNtB7_5tests17MockStateProviderE18execute_transition0Bb_
FNDA:3,_RNCNvNtNtCs5BmVzKVgC1k_10empack_lib6empack5state13execute_build0B7_
FNDA:28,_RNvMs2_NtNtCs5BmVzKVgC1k_10empack_lib6empack5stateINtB5_19ModpackStateManagerDNtNtNtB9_11application7session18FileSystemProviderEL_E14discover_stateB9_
FNDA:1,_RNvMs2_NtNtCs5BmVzKVgC1k_10empack_lib6empack5stateINtB5_19ModpackStateManagerDNtNtNtB9_11application7session18FileSystemProviderEL_E18execute_transitionB9_
FNDA:4,_RNvMs2_NtNtCs5BmVzKVgC1k_10empack_lib6empack5stateINtB5_19ModpackStateManagerDNtNtNtB9_11application7session18FileSystemProviderEL_E22begin_state_transitionB9_
FNDA:3,_RNvMs2_NtNtCs5BmVzKVgC1k_10empack_lib6empack5stateINtB5_19ModpackStateManagerDNtNtNtB9_11application7session18FileSystemProviderEL_E25complete_state_transitionB9_
FNDA:42,_RNvMs2_NtNtCs5BmVzKVgC1k_10empack_lib6empack5stateINtB5_19ModpackStateManagerDNtNtNtB9_11application7session18FileSystemProviderEL_E3newB9_
FNDA:5,_RNvMs2_NtNtCs5BmVzKVgC1k_10empack_lib6empack5stateINtB5_19ModpackStateManagerNtNtB5_5tests17MockStateProviderE14discover_stateB9_
FNDA:4,_RNvMs2_NtNtCs5BmVzKVgC1k_10empack_lib6empack5stateINtB5_19ModpackStateManagerNtNtB5_5tests17MockStateProviderE14validate_stateB9_
FNDA:6,_RNvMs2_NtNtCs5BmVzKVgC1k_10empack_lib6empack5stateINtB5_19ModpackStateManagerNtNtB5_5tests17MockStateProviderE18execute_transitionB9_
FNDA:8,_RNvMs2_NtNtCs5BmVzKVgC1k_10empack_lib6empack5stateINtB5_19ModpackStateManagerNtNtB5_5tests17MockStateProviderE3newB9_
FNDA:1,_RNvMs2_NtNtCs5BmVzKVgC1k_10empack_lib6empack5stateINtB5_19ModpackStateManagerNtNtB5_5tests17MockStateProviderE5pathsB9_
FNDA:1,_RNvMs3_NtNtCs5BmVzKVgC1k_10empack_lib6empack5stateNtB5_12ModpackPaths12build_output
FNDA:3,_RNvNtNtCs5BmVzKVgC1k_10empack_lib6empack5state13execute_build
FNDA:12,_RNvNtNtCs5BmVzKVgC1k_10empack_lib6empack5state14can_transition
FNDA:2,_RNvXs0_NtNtCs5BmVzKVgC1k_10empack_lib6empack5stateNtB5_10StateErrorINtNtCsj3QBrvpYeJs_4core7convert4FromNtNtB7_6config11ConfigErrorE4from
FNDA:0,_RNvMs2_NtNtCs5BmVzKVgC1k_10empack_lib6empack5stateINtB5_19ModpackStateManagerpE14can_transitionB9_
FNDA:0,_RNvMs2_NtNtCs5BmVzKVgC1k_10empack_lib6empack5stateINtB5_19ModpackStateManagerpE15get_state_filesB9_
FNDA:0,_RNvXNtNtCs5BmVzKVgC1k_10empack_lib6empack5stateNtB2_10StateErrorINtNtCsj3QBrvpYeJs_4core7convert4FromNtNtNtCs580JJAt54ne_3std2io5error5ErrorE4from
FNDA:0,_RNvXs1_NtNtCs5BmVzKVgC1k_10empack_lib6empack5stateNtB5_10StateErrorINtNtCsj3QBrvpYeJs_4core7convert4FromNtCsjWkhl1aWdVK_6anyhow5ErrorE4from
FNDA:0,_RNvXs_NtNtCs5BmVzKVgC1k_10empack_lib6empack5stateNtB4_10StateErrorINtNtCsj3QBrvpYeJs_4core7convert4FromNtNtB6_6builds10BuildErrorE4from
FNDA:5,_RINvNtNtCshmQA5Mrgi1L_10empack_lib6empack5state14discover_stateDNtNtNtB6_11application7session18FileSystemProviderEL_ECsaTeXJNQleyZ_12hermetic_e2e
FNDA:0,_RINvNtNtCshmQA5Mrgi1L_10empack_lib6empack5state18execute_initializeDNtNtNtB6_11application7session18FileSystemProviderEL_ECsaTeXJNQleyZ_12hermetic_e2e
FNDA:1,_RINvNtNtCshmQA5Mrgi1L_10empack_lib6empack5state18execute_transitionDNtNtNtB6_11application7session18FileSystemProviderEL_ECsaTeXJNQleyZ_12hermetic_e2e
FNDA:0,_RINvNtNtCshmQA5Mrgi1L_10empack_lib6empack5state19clean_configurationDNtNtNtB6_11application7session18FileSystemProviderEL_ECsaTeXJNQleyZ_12hermetic_e2e
FNDA:0,_RINvNtNtCshmQA5Mrgi1L_10empack_lib6empack5state19execute_synchronizeDNtNtNtB6_11application7session18FileSystemProviderEL_ECsaTeXJNQleyZ_12hermetic_e2e
FNDA:1,_RINvNtNtCshmQA5Mrgi1L_10empack_lib6empack5state21clean_build_artifactsDNtNtNtB6_11application7session18FileSystemProviderEL_ECsaTeXJNQleyZ_12hermetic_e2e
FNDA:0,_RINvNtNtCshmQA5Mrgi1L_10empack_lib6empack5state24create_initial_structureDNtNtNtB6_11application7session18FileSystemProviderEL_ECsaTeXJNQleyZ_12hermetic_e2e
FNDA:0,_RNCINvNtNtCshmQA5Mrgi1L_10empack_lib6empack5state18execute_initializeDNtNtNtB8_11application7session18FileSystemProviderEL_E0CsaTeXJNQleyZ_12hermetic_e2e
FNDA:0,_RNCINvNtNtCshmQA5Mrgi1L_10empack_lib6empack5state18execute_initializeDNtNtNtB8_11application7session18FileSystemProviderEL_Es0_0CsaTeXJNQleyZ_12hermetic_e2e
FNDA:0,_RNCINvNtNtCshmQA5Mrgi1L_10empack_lib6empack5state18execute_initializeDNtNtNtB8_11application7session18FileSystemProviderEL_Es1_0CsaTeXJNQleyZ_12hermetic_e2e
FNDA:0,_RNCINvNtNtCshmQA5Mrgi1L_10empack_lib6empack5state18execute_initializeDNtNtNtB8_11application7session18FileSystemProviderEL_Es_0CsaTeXJNQleyZ_12hermetic_e2e
FNDA:1,_RNCINvNtNtCshmQA5Mrgi1L_10empack_lib6empack5state18execute_transitionDNtNtNtB8_11application7session18FileSystemProviderEL_E0CsaTeXJNQleyZ_12hermetic_e2e
FNDA:0,_RNCINvNtNtCshmQA5Mrgi1L_10empack_lib6empack5state19clean_configurationDNtNtNtB8_11application7session18FileSystemProviderEL_E0CsaTeXJNQleyZ_12hermetic_e2e
FNDA:0,_RNCINvNtNtCshmQA5Mrgi1L_10empack_lib6empack5state19clean_configurationDNtNtNtB8_11application7session18FileSystemProviderEL_Es0_0CsaTeXJNQleyZ_12hermetic_e2e
FNDA:0,_RNCINvNtNtCshmQA5Mrgi1L_10empack_lib6empack5state19clean_configurationDNtNtNtB8_11application7session18FileSystemProviderEL_Es_0CsaTeXJNQleyZ_12hermetic_e2e
FNDA:0,_RNCINvNtNtCshmQA5Mrgi1L_10empack_lib6empack5state21clean_build_artifactsDNtNtNtB8_11application7session18FileSystemProviderEL_E0CsaTeXJNQleyZ_12hermetic_e2e
FNDA:0,_RNCINvNtNtCshmQA5Mrgi1L_10empack_lib6empack5state24create_initial_structureDNtNtNtB8_11application7session18FileSystemProviderEL_E0CsaTeXJNQleyZ_12hermetic_e2e
FNDA:0,_RNCINvNtNtCshmQA5Mrgi1L_10empack_lib6empack5state24create_initial_structureDNtNtNtB8_11application7session18FileSystemProviderEL_Es0_0CsaTeXJNQleyZ_12hermetic_e2e
FNDA:0,_RNCINvNtNtCshmQA5Mrgi1L_10empack_lib6empack5state24create_initial_structureDNtNtNtB8_11application7session18FileSystemProviderEL_Es_0CsaTeXJNQleyZ_12hermetic_e2e
FNDA:0,_RNCNCNvNtNtCshmQA5Mrgi1L_10empack_lib6empack5state13execute_build00CsaTeXJNQleyZ_12hermetic_e2e
FNDA:1,_RNCNvMs2_NtNtCshmQA5Mrgi1L_10empack_lib6empack5stateINtB7_19ModpackStateManagerDNtNtNtBb_11application7session18FileSystemProviderEL_E18execute_transition0CsaTeXJNQleyZ_12hermetic_e2e
FNDA:0,_RNCNvNtNtCshmQA5Mrgi1L_10empack_lib6empack5state13execute_build0CsaTeXJNQleyZ_12hermetic_e2e
FNDA:4,_RNvMs2_NtNtCshmQA5Mrgi1L_10empack_lib6empack5stateINtB5_19ModpackStateManagerDNtNtNtB9_11application7session18FileSystemProviderEL_E14discover_stateCsaTeXJNQleyZ_12hermetic_e2e
FNDA:1,_RNvMs2_NtNtCshmQA5Mrgi1L_10empack_lib6empack5stateINtB5_19ModpackStateManagerDNtNtNtB9_11application7session18FileSystemProviderEL_E18execute_transitionCsaTeXJNQleyZ_12hermetic_e2e
FNDA:1,_RNvMs2_NtNtCshmQA5Mrgi1L_10empack_lib6empack5stateINtB5_19ModpackStateManagerDNtNtNtB9_11application7session18FileSystemProviderEL_E22begin_state_transitionCsaTeXJNQleyZ_12hermetic_e2e
FNDA:1,_RNvMs2_NtNtCshmQA5Mrgi1L_10empack_lib6empack5stateINtB5_19ModpackStateManagerDNtNtNtB9_11application7session18FileSystemProviderEL_E25complete_state_transitionCsaTeXJNQleyZ_12hermetic_e2e
FNF:38
FNH:21
DA:16,72
DA:17,72
DA:18,72
DA:19,72
DA:21,72
DA:22,0
DA:23,0
DA:24,0
DA:25,72
DA:27,72
DA:28,72
DA:29,72
DA:32,72
DA:34,5
DA:35,5
DA:36,0
DA:37,67
DA:40,67
DA:41,67
DA:42,67
DA:43,51
DA:44,16
DA:45,0
DA:48,16
DA:49,72
DA:52,12
DA:53,12
DA:55,1
DA:56,1
DA:59,3
DA:60,3
DA:63,1
DA:66,3
DA:69,3
DA:71,12
DA:74,13
DA:75,13
DA:76,13
DA:77,13
DA:78,13
DA:79,13
DA:81,13
DA:82,2
DA:83,2
DA:84,0
DA:85,0
DA:86,0
DA:87,0
DA:88,2
DA:89,2
DA:90,2
DA:91,2
DA:92,2
DA:93,2
DA:94,2
DA:95,2
DA:96,2
DA:97,2
DA:102,2
DA:103,1
DA:104,1
DA:105,1
DA:106,1
DA:107,1
DA:108,1
DA:111,3
DA:112,3
DA:113,1
DA:114,1
DA:115,1
DA:116,1
DA:117,2
DA:118,2
DA:121,6
DA:123,3
DA:124,3
DA:127,3
DA:128,3
DA:130,0
DA:132,0
DA:133,0
DA:134,0
DA:135,0
DA:138,0
DA:139,0
DA:140,0
DA:141,0
DA:146,0
DA:147,0
DA:148,0
DA:149,0
DA:150,0
DA:151,0
DA:152,0
DA:156,0
DA:157,0
DA:158,0
DA:159,0
DA:160,0
DA:161,0
DA:162,0
DA:165,13
DA:168,3
DA:169,3
DA:170,3
DA:171,3
DA:172,3
DA:173,3
DA:174,3
DA:175,3
DA:176,3
DA:177,3
DA:179,3
DA:180,0
DA:181,0
DA:182,0
DA:185,3
DA:186,3
DA:187,3
DA:188,3
DA:189,0
DA:190,0
DA:191,0
DA:193,3
DA:194,3
DA:195,3
DA:196,0
DA:197,0
DA:198,0
DA:199,0
DA:200,0
DA:201,0
DA:204,3
DA:205,3
DA:206,3
DA:207,3
DA:208,3
DA:209,3
DA:210,3
DA:211,3
DA:212,3
DA:214,3
DA:215,0
DA:216,0
DA:217,0
DA:219,3
DA:220,3
DA:223,2
DA:224,2
DA:225,2
DA:226,2
DA:228,2
DA:229,2
DA:231,0
DA:232,0
DA:233,0
DA:234,0
DA:235,0
DA:238,0
DA:240,0
DA:241,2
DA:244,3
DA:245,3
DA:246,3
DA:247,3
DA:252,3
DA:254,8
DA:256,5
DA:257,3
DA:258,2
DA:259,0
DA:260,0
DA:261,0
DA:263,5
DA:272,0
DA:274,0
DA:275,0
DA:276,0
DA:279,0
DA:280,0
DA:281,0
DA:282,0
DA:285,0
DA:286,0
DA:287,0
DA:288,0
DA:292,3
DA:293,3
DA:296,4
DA:297,4
DA:298,4
DA:299,4
DA:300,4
DA:301,4
DA:302,4
DA:303,4
DA:304,0
DA:305,0
DA:307,4
DA:308,4
DA:309,4
DA:310,4
DA:311,0
DA:312,0
DA:314,4
DA:315,4
DA:316,4
DA:317,4
DA:318,0
DA:319,0
DA:321,4
DA:322,4
DA:325,4
DA:326,4
DA:327,4
DA:328,4
DA:329,4
DA:330,4
DA:331,4
DA:332,4
DA:333,4
DA:334,0
DA:335,0
DA:336,0
DA:337,4
DA:338,4
DA:341,4
DA:342,4
DA:343,4
DA:344,4
DA:345,4
DA:346,4
DA:347,4
DA:348,4
DA:349,4
DA:350,4
DA:351,0
DA:352,0
DA:353,0
DA:355,4
DA:356,4
DA:357,4
DA:358,4
DA:359,4
DA:360,0
DA:361,0
DA:362,0
DA:364,4
DA:365,4
DA:366,0
DA:367,0
DA:368,0
DA:369,0
DA:370,0
DA:371,4
DA:373,4
DA:374,4
DA:418,0
DA:419,0
DA:420,0
DA:421,0
DA:422,0
DA:426,0
DA:427,0
DA:428,0
DA:429,0
DA:430,0
DA:434,2
DA:435,2
DA:436,2
DA:437,2
DA:438,2
DA:442,0
DA:443,0
DA:444,0
DA:445,0
DA:446,0
DA:451,84
DA:452,84
DA:453,84
DA:456,56
DA:457,56
DA:458,56
DA:461,0
DA:462,0
DA:463,0
DA:464,0
DA:465,0
DA:466,0
DA:467,0
DA:470,0
DA:471,0
DA:472,0
DA:476,0
DA:480,0
DA:483,0
DA:486,4
DA:487,4
DA:489,4
DA:490,2
DA:491,2
DA:494,2
DA:495,1
DA:497,1
DA:498,1
DA:501,0
DA:502,0
DA:503,0
DA:504,0
DA:505,0
DA:506,0
DA:510,0
DA:511,0
DA:515,0
DA:516,0
DA:519,4
DA:522,0
DA:523,0
DA:524,0
DA:527,8
DA:528,8
DA:529,8
DA:530,8
DA:531,8
DA:532,8
DA:535,14
DA:536,14
DA:537,14
DA:538,14
DA:539,14
DA:542,14
DA:544,14
DA:545,1
DA:546,1
DA:547,1
DA:548,1
DA:549,13
DA:552,0
DA:553,0
DA:554,0
DA:555,0
DA:556,0
DA:557,0
DA:560,0
DA:561,0
DA:562,0
DA:563,0
DA:564,0
DA:570,13
DA:571,14
DA:574,12
DA:581,12
DA:582,12
DA:585,1
DA:586,1
DA:587,1
DA:588,1
DA:589,1
DA:590,1
DA:591,1
DA:592,1
DA:593,1
DA:594,1
DA:612,1
DA:613,1
DA:614,1
BRF:0
BRH:0
LF:376
LH:228
end_of_record
SF:/Users/zer0cell/production/empack/crates/empack-lib/src/empack/state.test.rs
FN:270,_RNCNvNtNtNtCs5BmVzKVgC1k_10empack_lib6empack5state5testss_22test_clean_transitions0B9_
FN:292,_RNCNvNtNtNtCs5BmVzKVgC1k_10empack_lib6empack5state5testss_24test_invalid_transitions0B9_
FN:251,_RNCNvNtNtNtCs5BmVzKVgC1k_10empack_lib6empack5state5testss_24test_transition_to_built0B9_
FN:227,_RNCNvNtNtNtCs5BmVzKVgC1k_10empack_lib6empack5state5testss_29test_transition_to_configured0B9_
FN:527,_RNCNvNtNtNtCs5BmVzKVgC1k_10empack_lib6empack5state5testss_32test_pure_execute_build_function0B9_
FN:400,_RNCNvNtNtNtCs5BmVzKVgC1k_10empack_lib6empack5state5testss_37test_pure_execute_transition_function0B9_
FN:45,_RNvMNtNtNtCs5BmVzKVgC1k_10empack_lib6empack5state5testsNtB2_17MockStateProvider19with_packwiz_result
FN:35,_RNvMNtNtNtCs5BmVzKVgC1k_10empack_lib6empack5state5testsNtB2_17MockStateProvider13add_directory
FN:40,_RNvMNtNtNtCs5BmVzKVgC1k_10empack_lib6empack5state5testsNtB2_17MockStateProvider18add_build_artifact
FN:20,_RNvMNtNtNtCs5BmVzKVgC1k_10empack_lib6empack5state5testsNtB2_17MockStateProvider3new
FN:30,_RNvMNtNtNtCs5BmVzKVgC1k_10empack_lib6empack5state5testsNtB2_17MockStateProvider8add_file
FN:207,_RNvNtNtNtCs5BmVzKVgC1k_10empack_lib6empack5state5tests17create_built_test
FN:194,_RNvNtNtNtCs5BmVzKVgC1k_10empack_lib6empack5state5tests22create_configured_test
FN:186,_RNvNtNtNtCs5BmVzKVgC1k_10empack_lib6empack5state5tests25create_uninitialized_test
FN:330,_RNvNtNtNtCs5BmVzKVgC1k_10empack_lib6empack5state5testss_17test_paths_helper
FN:315,_RNvNtNtNtCs5BmVzKVgC1k_10empack_lib6empack5state5testss_21test_state_validation
FN:270,_RNvNtNtNtCs5BmVzKVgC1k_10empack_lib6empack5state5testss_22test_clean_transitions
FN:292,_RNvNtNtNtCs5BmVzKVgC1k_10empack_lib6empack5state5testss_24test_invalid_transitions
FN:251,_RNvNtNtNtCs5BmVzKVgC1k_10empack_lib6empack5state5testss_24test_transition_to_built
FN:540,_RNvNtNtNtCs5BmVzKVgC1k_10empack_lib6empack5state5testss_25test_pure_clean_functions
FN:227,_RNvNtNtNtCs5BmVzKVgC1k_10empack_lib6empack5state5testss_29test_transition_to_configured
FN:527,_RNvNtNtNtCs5BmVzKVgC1k_10empack_lib6empack5state5testss_32test_pure_execute_build_function
FN:363,_RNvNtNtNtCs5BmVzKVgC1k_10empack_lib6empack5state5testss_33test_pure_can_transition_function
FN:345,_RNvNtNtNtCs5BmVzKVgC1k_10empack_lib6empack5state5testss_33test_pure_discover_state_function
FN:219,_RNvNtNtNtCs5BmVzKVgC1k_10empack_lib6empack5state5testss_35test_initial_state_is_uninitialized
FN:455,_RNvNtNtNtCs5BmVzKVgC1k_10empack_lib6empack5state5testss_37test_pure_execute_initialize_function
FN:400,_RNvNtNtNtCs5BmVzKVgC1k_10empack_lib6empack5state5testss_37test_pure_execute_transition_function
FN:498,_RNvNtNtNtCs5BmVzKVgC1k_10empack_lib6empack5state5testss_38test_pure_execute_synchronize_function
FN:571,_RNvNtNtNtCs5BmVzKVgC1k_10empack_lib6empack5state5testss_43test_pure_create_initial_structure_function
FN:74,_RNvXs_NtNtNtCs5BmVzKVgC1k_10empack_lib6empack5state5testsNtB4_17MockStateProviderNtNtNtBa_11application7session18FileSystemProvider10write_file
FN:52,_RNvXs_NtNtNtCs5BmVzKVgC1k_10empack_lib6empack5state5testsNtB4_17MockStateProviderNtNtNtBa_11application7session18FileSystemProvider11current_dir
FN:121,_RNvXs_NtNtNtCs5BmVzKVgC1k_10empack_lib6empack5state5testsNtB4_17MockStateProviderNtNtNtBa_11application7session18FileSystemProvider11remove_file
FN:84,_RNvXs_NtNtNtCs5BmVzKVgC1k_10empack_lib6empack5state5testsNtB4_17MockStateProviderNtNtNtBa_11application7session18FileSystemProvider12is_directory
FN:94,_RNvXs_NtNtNtCs5BmVzKVgC1k_10empack_lib6empack5state5testsNtB4_17MockStateProviderNtNtNtBa_11application7session18FileSystemProvider13get_file_list
FN:62,_RNvXs_NtNtNtCs5BmVzKVgC1k_10empack_lib6empack5state5testsNtB4_17MockStateProviderNtNtNtBa_11application7session18FileSystemProvider14config_manager
FN:88,_RNvXs_NtNtNtCs5BmVzKVgC1k_10empack_lib6empack5state5testsNtB4_17MockStateProviderNtNtNtBa_11application7session18FileSystemProvider14create_dir_all
FN:66,_RNvXs_NtNtNtCs5BmVzKVgC1k_10empack_lib6empack5state5testsNtB4_17MockStateProviderNtNtNtBa_11application7session18FileSystemProvider14read_to_string
FN:128,_RNvXs_NtNtNtCs5BmVzKVgC1k_10empack_lib6empack5state5testsNtB4_17MockStateProviderNtNtNtBa_11application7session18FileSystemProvider14remove_dir_all
FN:156,_RNvXs_NtNtNtCs5BmVzKVgC1k_10empack_lib6empack5state5testsNtB4_17MockStateProviderNtNtNtBa_11application7session18FileSystemProvider16run_packwiz_init
FN:58,_RNvXs_NtNtNtCs5BmVzKVgC1k_10empack_lib6empack5state5testsNtB4_17MockStateProviderNtNtNtBa_11application7session18FileSystemProvider18get_installed_mods
FN:109,_RNvXs_NtNtNtCs5BmVzKVgC1k_10empack_lib6empack5state5testsNtB4_17MockStateProviderNtNtNtBa_11application7session18FileSystemProvider19has_build_artifacts
FN:172,_RNvXs_NtNtNtCs5BmVzKVgC1k_10empack_lib6empack5state5testsNtB4_17MockStateProviderNtNtNtBa_11application7session18FileSystemProvider19run_packwiz_refresh
FN:179,_RNvXs_NtNtNtCs5BmVzKVgC1k_10empack_lib6empack5state5testsNtB4_17MockStateProviderNtNtNtBa_11application7session18FileSystemProvider28get_bootstrap_jar_cache_path
FN:80,_RNvXs_NtNtNtCs5BmVzKVgC1k_10empack_lib6empack5state5testsNtB4_17MockStateProviderNtNtNtBa_11application7session18FileSystemProvider6exists
FNDA:1,_RNCNvNtNtNtCs5BmVzKVgC1k_10empack_lib6empack5state5testss_22test_clean_transitions0B9_
FNDA:1,_RNCNvNtNtNtCs5BmVzKVgC1k_10empack_lib6empack5state5testss_24test_invalid_transitions0B9_
FNDA:1,_RNCNvNtNtNtCs5BmVzKVgC1k_10empack_lib6empack5state5testss_24test_transition_to_built0B9_
FNDA:1,_RNCNvNtNtNtCs5BmVzKVgC1k_10empack_lib6empack5state5testss_29test_transition_to_configured0B9_
FNDA:1,_RNCNvNtNtNtCs5BmVzKVgC1k_10empack_lib6empack5state5testss_32test_pure_execute_build_function0B9_
FNDA:1,_RNCNvNtNtNtCs5BmVzKVgC1k_10empack_lib6empack5state5testss_37test_pure_execute_transition_function0B9_
FNDA:0,_RNvMNtNtNtCs5BmVzKVgC1k_10empack_lib6empack5state5testsNtB2_17MockStateProvider19with_packwiz_result
FNDA:39,_RNvMNtNtNtCs5BmVzKVgC1k_10empack_lib6empack5state5testsNtB2_17MockStateProvider13add_directory
FNDA:4,_RNvMNtNtNtCs5BmVzKVgC1k_10empack_lib6empack5state5testsNtB2_17MockStateProvider18add_build_artifact
FNDA:22,_RNvMNtNtNtCs5BmVzKVgC1k_10empack_lib6empack5state5testsNtB2_17MockStateProvider3new
FNDA:39,_RNvMNtNtNtCs5BmVzKVgC1k_10empack_lib6empack5state5testsNtB2_17MockStateProvider8add_file
FNDA:4,_RNvNtNtNtCs5BmVzKVgC1k_10empack_lib6empack5state5tests17create_built_test
FNDA:13,_RNvNtNtNtCs5BmVzKVgC1k_10empack_lib6empack5state5tests22create_configured_test
FNDA:22,_RNvNtNtNtCs5BmVzKVgC1k_10empack_lib6empack5state5tests25create_uninitialized_test
FNDA:1,_RNvNtNtNtCs5BmVzKVgC1k_10empack_lib6empack5state5testss_17test_paths_helper
FNDA:1,_RNvNtNtNtCs5BmVzKVgC1k_10empack_lib6empack5state5testss_21test_state_validation
FNDA:1,_RNvNtNtNtCs5BmVzKVgC1k_10empack_lib6empack5state5testss_22test_clean_transitions
FNDA:1,_RNvNtNtNtCs5BmVzKVgC1k_10empack_lib6empack5state5testss_24test_invalid_transitions
FNDA:1,_RNvNtNtNtCs5BmVzKVgC1k_10empack_lib6empack5state5testss_24test_transition_to_built
FNDA:1,_RNvNtNtNtCs5BmVzKVgC1k_10empack_lib6empack5state5testss_25test_pure_clean_functions
FNDA:1,_RNvNtNtNtCs5BmVzKVgC1k_10empack_lib6empack5state5testss_29test_transition_to_configured
FNDA:1,_RNvNtNtNtCs5BmVzKVgC1k_10empack_lib6empack5state5testss_32test_pure_execute_build_function
FNDA:1,_RNvNtNtNtCs5BmVzKVgC1k_10empack_lib6empack5state5testss_33test_pure_can_transition_function
FNDA:1,_RNvNtNtNtCs5BmVzKVgC1k_10empack_lib6empack5state5testss_33test_pure_discover_state_function
FNDA:1,_RNvNtNtNtCs5BmVzKVgC1k_10empack_lib6empack5state5testss_35test_initial_state_is_uninitialized
FNDA:1,_RNvNtNtNtCs5BmVzKVgC1k_10empack_lib6empack5state5testss_37test_pure_execute_initialize_function
FNDA:1,_RNvNtNtNtCs5BmVzKVgC1k_10empack_lib6empack5state5testss_37test_pure_execute_transition_function
FNDA:1,_RNvNtNtNtCs5BmVzKVgC1k_10empack_lib6empack5state5testss_38test_pure_execute_synchronize_function
FNDA:1,_RNvNtNtNtCs5BmVzKVgC1k_10empack_lib6empack5state5testss_43test_pure_create_initial_structure_function
FNDA:3,_RNvXs_NtNtNtCs5BmVzKVgC1k_10empack_lib6empack5state5testsNtB4_17MockStateProviderNtNtNtBa_11application7session18FileSystemProvider10write_file
FNDA:0,_RNvXs_NtNtNtCs5BmVzKVgC1k_10empack_lib6empack5state5testsNtB4_17MockStateProviderNtNtNtBa_11application7session18FileSystemProvider11current_dir
FNDA:3,_RNvXs_NtNtNtCs5BmVzKVgC1k_10empack_lib6empack5state5testsNtB4_17MockStateProviderNtNtNtBa_11application7session18FileSystemProvider11remove_file
FNDA:64,_RNvXs_NtNtNtCs5BmVzKVgC1k_10empack_lib6empack5state5testsNtB4_17MockStateProviderNtNtNtBa_11application7session18FileSystemProvider12is_directory
FNDA:19,_RNvXs_NtNtNtCs5BmVzKVgC1k_10empack_lib6empack5state5testsNtB4_17MockStateProviderNtNtNtBa_11application7session18FileSystemProvider13get_file_list
FNDA:5,_RNvXs_NtNtNtCs5BmVzKVgC1k_10empack_lib6empack5state5testsNtB4_17MockStateProviderNtNtNtBa_11application7session18FileSystemProvider14config_manager
FNDA:12,_RNvXs_NtNtNtCs5BmVzKVgC1k_10empack_lib6empack5state5testsNtB4_17MockStateProviderNtNtNtBa_11application7session18FileSystemProvider14create_dir_all
FNDA:2,_RNvXs_NtNtNtCs5BmVzKVgC1k_10empack_lib6empack5state5testsNtB4_17MockStateProviderNtNtNtBa_11application7session18FileSystemProvider14read_to_string
FNDA:6,_RNvXs_NtNtNtCs5BmVzKVgC1k_10empack_lib6empack5state5testsNtB4_17MockStateProviderNtNtNtBa_11application7session18FileSystemProvider14remove_dir_all
FNDA:3,_RNvXs_NtNtNtCs5BmVzKVgC1k_10empack_lib6empack5state5testsNtB4_17MockStateProviderNtNtNtBa_11application7session18FileSystemProvider16run_packwiz_init
FNDA:0,_RNvXs_NtNtNtCs5BmVzKVgC1k_10empack_lib6empack5state5testsNtB4_17MockStateProviderNtNtNtBa_11application7session18FileSystemProvider18get_installed_mods
FNDA:3,_RNvXs_NtNtNtCs5BmVzKVgC1k_10empack_lib6empack5state5testsNtB4_17MockStateProviderNtNtNtBa_11application7session18FileSystemProvider19has_build_artifacts
FNDA:0,_RNvXs_NtNtNtCs5BmVzKVgC1k_10empack_lib6empack5state5testsNtB4_17MockStateProviderNtNtNtBa_11application7session18FileSystemProvider19run_packwiz_refresh
FNDA:0,_RNvXs_NtNtNtCs5BmVzKVgC1k_10empack_lib6empack5state5testsNtB4_17MockStateProviderNtNtNtBa_11application7session18FileSystemProvider28get_bootstrap_jar_cache_path
FNDA:8,_RNvXs_NtNtNtCs5BmVzKVgC1k_10empack_lib6empack5state5testsNtB4_17MockStateProviderNtNtNtBa_11application7session18FileSystemProvider6exists
FNF:44
FNH:39
DA:20,22
DA:21,22
DA:22,22
DA:23,22
DA:24,22
DA:25,22
DA:26,22
DA:27,22
DA:30,39
DA:31,39
DA:32,39
DA:35,39
DA:36,39
DA:37,39
DA:40,4
DA:41,4
DA:42,4
DA:45,0
DA:46,0
DA:47,0
DA:48,0
DA:52,0
DA:53,0
DA:54,0
DA:58,0
DA:59,0
DA:60,0
DA:62,5
DA:63,5
DA:64,5
DA:66,2
DA:67,2
DA:68,2
DA:70,0
DA:72,2
DA:74,3
DA:76,3
DA:77,3
DA:78,3
DA:80,8
DA:81,8
DA:82,8
DA:84,64
DA:85,64
DA:86,64
DA:88,12
DA:90,12
DA:91,12
DA:92,12
DA:94,19
DA:95,19
DA:98,33
DA:99,33
DA:100,33
DA:101,11
DA:102,22
DA:103,0
DA:106,19
DA:107,19
DA:109,3
DA:111,3
DA:112,3
DA:113,3
DA:114,3
DA:115,0
DA:116,0
DA:118,0
DA:119,3
DA:121,3
DA:123,3
DA:124,3
DA:125,3
DA:126,3
DA:128,6
DA:130,6
DA:133,6
DA:134,15
DA:135,15
DA:136,6
DA:137,9
DA:139,12
DA:140,6
DA:141,6
DA:143,6
DA:144,6
DA:145,3
DA:146,3
DA:147,3
DA:149,9
DA:150,3
DA:151,3
DA:153,6
DA:154,6
DA:156,3
DA:157,3
DA:158,3
DA:159,3
DA:160,3
DA:161,3
DA:162,3
DA:163,3
DA:164,3
DA:165,3
DA:166,3
DA:167,0
DA:168,3
DA:170,3
DA:172,0
DA:173,0
DA:174,0
DA:175,0
DA:177,0
DA:179,0
DA:181,0
DA:182,0
DA:186,22
DA:187,22
DA:188,22
DA:189,22
DA:190,22
DA:191,22
DA:194,13
DA:195,13
DA:198,13
DA:199,13
DA:200,13
DA:201,13
DA:203,13
DA:204,13
DA:207,4
DA:208,4
DA:211,4
DA:212,4
DA:213,4
DA:215,4
DA:216,4
DA:219,1
DA:220,1
DA:221,1
DA:222,1
DA:223,1
DA:224,1
DA:227,1
DA:228,1
DA:229,1
DA:231,1
DA:232,1
DA:233,1
DA:234,1
DA:235,1
DA:236,1
DA:237,1
DA:238,1
DA:239,1
DA:240,1
DA:241,1
DA:242,1
DA:243,1
DA:244,1
DA:248,1
DA:251,1
DA:252,1
DA:253,1
DA:256,1
DA:257,1
DA:258,1
DA:259,1
DA:260,1
DA:261,1
DA:262,1
DA:263,1
DA:267,1
DA:270,1
DA:271,1
DA:272,1
DA:275,1
DA:276,1
DA:277,1
DA:278,1
DA:279,1
DA:282,1
DA:283,1
DA:284,1
DA:285,1
DA:286,1
DA:289,1
DA:292,1
DA:293,1
DA:294,1
DA:297,1
DA:298,1
DA:299,1
DA:300,1
DA:301,1
DA:302,1
DA:303,1
DA:304,1
DA:305,1
DA:308,1
DA:309,1
DA:310,1
DA:311,1
DA:312,1
DA:315,1
DA:317,1
DA:318,1
DA:319,1
DA:320,1
DA:323,1
DA:324,1
DA:325,1
DA:326,1
DA:327,1
DA:330,1
DA:331,1
DA:332,1
DA:333,1
DA:335,1
DA:336,1
DA:337,1
DA:338,1
DA:339,1
DA:341,1
DA:345,1
DA:347,1
DA:348,1
DA:349,1
DA:352,1
DA:353,1
DA:354,1
DA:357,1
DA:358,1
DA:359,1
DA:360,1
DA:363,1
DA:365,1
DA:366,1
DA:367,1
DA:369,1
DA:370,1
DA:371,1
DA:373,1
DA:374,1
DA:375,1
DA:377,1
DA:378,1
DA:379,1
DA:383,1
DA:384,1
DA:385,1
DA:389,1
DA:390,1
DA:391,1
DA:392,1
DA:393,1
DA:394,1
DA:395,1
DA:396,1
DA:397,1
DA:400,1
DA:402,1
DA:403,1
DA:404,1
DA:405,1
DA:406,1
DA:407,1
DA:408,1
DA:409,1
DA:410,1
DA:411,1
DA:412,1
DA:413,1
DA:414,1
DA:415,1
DA:416,1
DA:417,1
DA:420,1
DA:421,1
DA:422,1
DA:423,1
DA:424,1
DA:425,1
DA:426,1
DA:427,1
DA:428,1
DA:429,1
DA:430,1
DA:431,1
DA:434,1
DA:435,1
DA:437,1
DA:440,1
DA:441,1
DA:442,1
DA:443,1
DA:444,1
DA:447,1
DA:448,1
DA:449,1
DA:450,1
DA:451,1
DA:452,1
DA:455,1
DA:456,1
DA:457,1
DA:458,1
DA:459,1
DA:460,1
DA:461,1
DA:462,1
DA:463,1
DA:464,1
DA:465,1
DA:467,1
DA:468,1
DA:471,1
DA:472,1
DA:473,1
DA:474,1
DA:475,1
DA:477,1
DA:478,1
DA:479,1
DA:480,1
DA:481,1
DA:483,1
DA:484,1
DA:485,1
DA:486,1
DA:487,1
DA:489,1
DA:490,1
DA:491,1
DA:492,1
DA:493,1
DA:495,1
DA:498,1
DA:502,1
DA:503,1
DA:507,1
DA:510,1
DA:511,1
DA:512,1
DA:513,1
DA:514,1
DA:515,1
DA:516,1
DA:519,0
DA:520,0
DA:521,0
DA:524,1
DA:527,1
DA:528,1
DA:529,1
DA:530,1
DA:531,1
DA:532,1
DA:533,1
DA:537,1
DA:540,1
DA:542,1
DA:543,1
DA:544,1
DA:545,1
DA:546,1
DA:547,1
DA:548,1
DA:549,1
DA:553,1
DA:554,1
DA:555,1
DA:556,1
DA:557,1
DA:558,1
DA:559,1
DA:560,1
DA:562,1
DA:563,1
DA:564,1
DA:565,1
DA:566,1
DA:568,1
DA:571,1
DA:572,1
DA:573,1
DA:574,1
DA:577,1
DA:578,1
DA:579,1
DA:580,1
DA:581,1
DA:583,1
DA:584,1
DA:585,1
DA:586,1
DA:587,1
DA:589,1
DA:590,1
DA:591,1
DA:592,1
DA:593,1
DA:595,1
BRF:0
BRH:0
LF:414
LH:387
end_of_record
SF:/Users/zer0cell/production/empack/crates/empack-lib/src/empack/versions.rs
FN:458,_RINvMs0_NtNtCshmQA5Mrgi1L_10empack_lib6empack8versionsNtB6_14VersionFetcher23fetch_cached_or_networkNCNCNvB2_24fetch_minecraft_versions00NCNCB1C_00ECsbc2rGA5VZid_11add_command
FN:458,_RINvMs0_NtNtCshmQA5Mrgi1L_10empack_lib6empack8versionsNtB6_14VersionFetcher23fetch_cached_or_networkNCNCNvB2_28fetch_fabric_loader_versions00NCNCB1C_00ECsbc2rGA5VZid_11add_command
FN:458,_RINvMs0_NtNtCshmQA5Mrgi1L_10empack_lib6empack8versionsNtB6_14VersionFetcher23fetch_cached_or_networkNCNCNvB2_30fetch_neoforge_loader_versions00NCNCB1C_00ECsbc2rGA5VZid_11add_command
FN:467,_RNCINvMs0_NtNtCshmQA5Mrgi1L_10empack_lib6empack8versionsNtB8_14VersionFetcher23fetch_cached_or_networkNCNCNvB4_24fetch_minecraft_versions00NCNCB1E_00E0Csbc2rGA5VZid_11add_command
FN:467,_RNCINvMs0_NtNtCshmQA5Mrgi1L_10empack_lib6empack8versionsNtB8_14VersionFetcher23fetch_cached_or_networkNCNCNvB4_28fetch_fabric_loader_versions00NCNCB1E_00E0Csbc2rGA5VZid_11add_command
FN:467,_RNCINvMs0_NtNtCshmQA5Mrgi1L_10empack_lib6empack8versionsNtB8_14VersionFetcher23fetch_cached_or_networkNCNCNvB4_30fetch_neoforge_loader_versions00NCNCB1E_00E0Csbc2rGA5VZid_11add_command
FN:262,_RNCNCNCNCNvMs0_NtNtCshmQA5Mrgi1L_10empack_lib6empack8versionsNtBd_14VersionFetcher24fetch_minecraft_versions0000Csbc2rGA5VZid_11add_command
FN:313,_RNCNCNCNCNvMs0_NtNtCshmQA5Mrgi1L_10empack_lib6empack8versionsNtBd_14VersionFetcher28fetch_fabric_loader_versions000s0_0Csbc2rGA5VZid_11add_command
FN:314,_RNCNCNCNCNvMs0_NtNtCshmQA5Mrgi1L_10empack_lib6empack8versionsNtBd_14VersionFetcher28fetch_fabric_loader_versions000s1_0Csbc2rGA5VZid_11add_command
FN:308,_RNCNCNCNCNvMs0_NtNtCshmQA5Mrgi1L_10empack_lib6empack8versionsNtBd_14VersionFetcher28fetch_fabric_loader_versions000s_0Csbc2rGA5VZid_11add_command
FN:236,_RNCNCNCNvMs0_NtNtCshmQA5Mrgi1L_10empack_lib6empack8versionsNtBb_14VersionFetcher24fetch_minecraft_versions000Csbc2rGA5VZid_11add_command
FN:438,_RNCNCNCNvMs0_NtNtCshmQA5Mrgi1L_10empack_lib6empack8versionsNtBb_14VersionFetcher27fetch_quilt_loader_versions000Csbc2rGA5VZid_11add_command
FN:279,_RNCNCNCNvMs0_NtNtCshmQA5Mrgi1L_10empack_lib6empack8versionsNtBb_14VersionFetcher28fetch_fabric_loader_versions000Csbc2rGA5VZid_11add_command
FN:332,_RNCNCNCNvMs0_NtNtCshmQA5Mrgi1L_10empack_lib6empack8versionsNtBb_14VersionFetcher30fetch_neoforge_loader_versions000Csbc2rGA5VZid_11add_command
FN:267,_RNCNCNvMs0_NtNtCshmQA5Mrgi1L_10empack_lib6empack8versionsNtB9_14VersionFetcher24fetch_minecraft_versions00Csbc2rGA5VZid_11add_command
FN:438,_RNCNCNvMs0_NtNtCshmQA5Mrgi1L_10empack_lib6empack8versionsNtB9_14VersionFetcher27fetch_quilt_loader_versions00Csbc2rGA5VZid_11add_command
FN:320,_RNCNCNvMs0_NtNtCshmQA5Mrgi1L_10empack_lib6empack8versionsNtB9_14VersionFetcher28fetch_fabric_loader_versions00Csbc2rGA5VZid_11add_command
FN:389,_RNCNCNvMs0_NtNtCshmQA5Mrgi1L_10empack_lib6empack8versionsNtB9_14VersionFetcher30fetch_neoforge_loader_versions00Csbc2rGA5VZid_11add_command
FN:165,_RNCNvMs0_NtNtCshmQA5Mrgi1L_10empack_lib6empack8versionsNtB7_14VersionFetcher24fetch_compatible_loaders0Csbc2rGA5VZid_11add_command
FN:232,_RNCNvMs0_NtNtCshmQA5Mrgi1L_10empack_lib6empack8versionsNtB7_14VersionFetcher24fetch_minecraft_versions0Csbc2rGA5VZid_11add_command
FN:394,_RNCNvMs0_NtNtCshmQA5Mrgi1L_10empack_lib6empack8versionsNtB7_14VersionFetcher27fetch_forge_loader_versions0Csbc2rGA5VZid_11add_command
FN:427,_RNCNvMs0_NtNtCshmQA5Mrgi1L_10empack_lib6empack8versionsNtB7_14VersionFetcher27fetch_quilt_loader_versions0Csbc2rGA5VZid_11add_command
FN:273,_RNCNvMs0_NtNtCshmQA5Mrgi1L_10empack_lib6empack8versionsNtB7_14VersionFetcher28fetch_fabric_loader_versions0Csbc2rGA5VZid_11add_command
FN:326,_RNCNvMs0_NtNtCshmQA5Mrgi1L_10empack_lib6empack8versionsNtB7_14VersionFetcher30fetch_neoforge_loader_versions0Csbc2rGA5VZid_11add_command
FN:458,_RINvMs0_NtNtCshmQA5Mrgi1L_10empack_lib6empack8versionsNtB6_14VersionFetcher23fetch_cached_or_networkppEBa_
